	.file	"test_VisCmd-ReplyCommandInvalid.c"
	.text
.Ltext0:
	.cfi_sections	.debug_frame
	.globl	OK
	.section .rdata,"dr"
OK:
	.space 1
	.globl	ERROR
ERROR:
	.byte	1
	.globl	INVALID_CMD
INVALID_CMD:
	.byte	2
	.globl	OFF
OFF:
	.space 1
	.globl	GREEN
GREEN:
	.byte	1
	.globl	RED
RED:
	.byte	2
	.globl	PADDING
	.data
PADDING:
	.byte	-1
.lcomm value_in_fake_BiColorLed_ddr,1,1
.lcomm value_in_fake_BiColorLed_port,1,1
	.globl	status_led
	.section .rdata,"dr"
status_led:
	.byte	3
	.globl	led_0
led_0:
	.space 1
	.globl	led_1
led_1:
	.byte	1
	.globl	BiColorLed_ddr
	.align 8
BiColorLed_ddr:
	.quad	value_in_fake_BiColorLed_ddr
	.globl	BiColorLed_port
	.align 8
BiColorLed_port:
	.quad	value_in_fake_BiColorLed_port
.lcomm fake_SpiFlags,1,1
	.globl	Flag_SpiFlags
	.align 8
Flag_SpiFlags:
	.quad	fake_SpiFlags
	.globl	Flag_SlaveRx
Flag_SlaveRx:
	.space 1
	.globl	Flag_TransferDone
Flag_TransferDone:
	.byte	1
.lcomm fake_Spi_PortDirection,1,1
.lcomm fake_Spi_PortInput,1,1
.lcomm fake_Spi_PortOutput,1,1
.lcomm fake_Spi_PortPullup,1,1
.lcomm fake_Spi_SPCR,1,1
.lcomm fake_Spi_SPSR,1,1
.lcomm fake_Spi_SPDR,1,1
	.globl	Spi_PortDirection
	.align 8
Spi_PortDirection:
	.quad	fake_Spi_PortDirection
	.globl	Spi_PortInput
	.align 8
Spi_PortInput:
	.quad	fake_Spi_PortInput
	.globl	Spi_PortOutput
	.align 8
Spi_PortOutput:
	.quad	fake_Spi_PortOutput
	.globl	Spi_SPCR
	.align 8
Spi_SPCR:
	.quad	fake_Spi_SPCR
	.globl	Spi_SPSR
	.align 8
Spi_SPSR:
	.quad	fake_Spi_SPSR
	.globl	Spi_SPDR
	.align 8
Spi_SPDR:
	.quad	fake_Spi_SPDR
	.globl	Spi_DataReady
Spi_DataReady:
	.byte	1
	.globl	Spi_Ss
Spi_Ss:
	.byte	2
	.globl	Spi_Mosi
Spi_Mosi:
	.byte	3
	.globl	Spi_Miso
Spi_Miso:
	.byte	4
	.globl	Spi_Sck
Spi_Sck:
	.byte	5
	.globl	Spi_MasterSlaveSelect
Spi_MasterSlaveSelect:
	.byte	4
	.globl	Spi_ClockBit0
Spi_ClockBit0:
	.space 1
	.globl	Spi_ClockBit1
Spi_ClockBit1:
	.byte	1
	.globl	Spi_DoubleClock
Spi_DoubleClock:
	.space 1
	.globl	Spi_Enable
Spi_Enable:
	.byte	6
	.globl	Spi_InterruptEnable
Spi_InterruptEnable:
	.byte	7
	.globl	Spi_InterruptFlag
Spi_InterruptFlag:
	.byte	7
.lcomm fake_ddr,1,1
.lcomm fake_port,1,1
.lcomm fake_UCSR0A,1,1
.lcomm fake_UCSR0B,1,1
.lcomm fake_UCSR0C,1,1
.lcomm fake_UDR0,1,1
.lcomm fake_UBRR0,2,2
	.globl	UartSpi_ddr
	.align 8
UartSpi_ddr:
	.quad	fake_ddr
	.globl	UartSpi_port
	.align 8
UartSpi_port:
	.quad	fake_port
	.globl	UartSpi_UCSR0A
	.align 8
UartSpi_UCSR0A:
	.quad	fake_UCSR0A
	.globl	UartSpi_UCSR0B
	.align 8
UartSpi_UCSR0B:
	.quad	fake_UCSR0B
	.globl	UartSpi_UCSR0C
	.align 8
UartSpi_UCSR0C:
	.quad	fake_UCSR0C
	.globl	UartSpi_UDR0
	.align 8
UartSpi_UDR0:
	.quad	fake_UDR0
	.globl	UartSpi_UBRR0
	.align 8
UartSpi_UBRR0:
	.quad	fake_UBRR0
	.globl	UartSpi_Miso
UartSpi_Miso:
	.space 1
	.globl	UartSpi_AdcConv
UartSpi_AdcConv:
	.byte	2
	.globl	UartSpi_Sck
UartSpi_Sck:
	.byte	4
	.globl	UartSpi_UMSEL00
UartSpi_UMSEL00:
	.byte	6
	.globl	UartSpi_UMSEL01
UartSpi_UMSEL01:
	.byte	7
	.globl	UartSpi_RXEN0
UartSpi_RXEN0:
	.byte	4
	.globl	UartSpi_TXEN0
UartSpi_TXEN0:
	.byte	3
	.globl	UartSpi_UCPOL0
UartSpi_UCPOL0:
	.space 1
	.globl	UartSpi_UCPHA0
UartSpi_UCPHA0:
	.byte	1
	.globl	UartSpi_UDORD0
UartSpi_UDORD0:
	.byte	2
	.globl	UartSpi_UDRE0
UartSpi_UDRE0:
	.byte	5
	.globl	UartSpi_RXC0
UartSpi_RXC0:
	.byte	7
.lcomm fake_FtCtrl_port,1,1
.lcomm fake_FtCtrl_pin,1,1
.lcomm fake_FtData_pin,1,1
.lcomm fake_FtData_ddr,1,1
.lcomm fake_FtData_port,1,1
	.globl	FtCtrl_port
	.align 8
FtCtrl_port:
	.quad	fake_FtCtrl_port
	.globl	FtCtrl_pin
	.align 8
FtCtrl_pin:
	.quad	fake_FtCtrl_pin
	.globl	FtData_pin
	.align 8
FtData_pin:
	.quad	fake_FtData_pin
	.globl	FtData_ddr
	.align 8
FtData_ddr:
	.quad	fake_FtData_ddr
	.globl	FtData_port
	.align 8
FtData_port:
	.quad	fake_FtData_port
	.globl	FtMiso
FtMiso:
	.byte	2
	.globl	FtChipSelect
FtChipSelect:
	.space 1
	.globl	FtClock
FtClock:
	.byte	1
	.globl	FtMiosio0
FtMiosio0:
	.space 1
.LC0:
	.ascii "`%s` is not call %d\0"
	.text
	.def	_SilentAssertCall;	.scl	3;	.type	32;	.endef
	.seh_proc	_SilentAssertCall
_SilentAssertCall:
.LFB114:
	.file 1 "code-not-used/test-boiler-plate.h"
	.loc 1 8 1
	.cfi_startproc
	pushq	%rbp
	.seh_pushreg	%rbp
	.cfi_def_cfa_offset 16
	.cfi_offset 6, -16
	movq	%rsp, %rbp
	.seh_setframe	%rbp, 0
	.cfi_def_cfa_register 6
	subq	$48, %rsp
	.seh_stackalloc	48
	.seh_endprologue
	movl	%ecx, %eax
	movq	%rdx, 24(%rbp)
	movw	%ax, 16(%rbp)
	.loc 1 11 24
	movl	$0, %ecx
	call	g_string_new
	movq	%rax, -8(%rbp)
	.loc 1 12 5
	movzwl	16(%rbp), %ecx
	movq	24(%rbp), %rdx
	movq	-8(%rbp), %rax
	movl	%ecx, %r9d
	movq	%rdx, %r8
	leaq	.LC0(%rip), %rdx
	movq	%rax, %rcx
	call	g_string_append_printf
	.loc 1 14 5
	movzwl	16(%rbp), %edx
	movq	mock(%rip), %rax
	movq	24(%rbp), %rcx
	movq	%rcx, %r8
	movq	%rax, %rcx
	call	SilentAssertCall
	testb	%al, %al
	jne	.L2
	.loc 1 14 5 is_stmt 0 discriminator 1
	movq	-8(%rbp), %rax
	movq	(%rax), %rax
	movl	$14, %edx
	movq	%rax, %rcx
	call	UnityFail
.L2:
	.loc 1 19 5 is_stmt 1
	movq	-8(%rbp), %rax
	movl	$1, %edx
	movq	%rax, %rcx
	call	g_string_free
	.loc 1 20 1
	nop
	addq	$48, %rsp
	popq	%rbp
	.cfi_restore 6
	.cfi_def_cfa 7, 8
	ret
	.cfi_endproc
.LFE114:
	.seh_endproc
	.def	_AssertCall;	.scl	3;	.type	32;	.endef
	.seh_proc	_AssertCall
_AssertCall:
.LFB115:
	.loc 1 22 1
	.cfi_startproc
	pushq	%rbp
	.seh_pushreg	%rbp
	.cfi_def_cfa_offset 16
	.cfi_offset 6, -16
	movq	%rsp, %rbp
	.seh_setframe	%rbp, 0
	.cfi_def_cfa_register 6
	subq	$48, %rsp
	.seh_stackalloc	48
	.seh_endprologue
	movl	%ecx, %eax
	movq	%rdx, 24(%rbp)
	movw	%ax, 16(%rbp)
	.loc 1 25 24
	movl	$0, %ecx
	call	g_string_new
	movq	%rax, -8(%rbp)
	.loc 1 26 5
	movzwl	16(%rbp), %ecx
	movq	24(%rbp), %rdx
	movq	-8(%rbp), %rax
	movl	%ecx, %r9d
	movq	%rdx, %r8
	leaq	.LC0(%rip), %rdx
	movq	%rax, %rcx
	call	g_string_append_printf
	.loc 1 28 5
	movzwl	16(%rbp), %edx
	movq	mock(%rip), %rax
	movq	24(%rbp), %rcx
	movq	%rcx, %r8
	movq	%rax, %rcx
	call	AssertCall
	testb	%al, %al
	jne	.L4
	.loc 1 28 5 is_stmt 0 discriminator 1
	movq	-8(%rbp), %rax
	movq	(%rax), %rax
	movl	$28, %edx
	movq	%rax, %rcx
	call	UnityFail
.L4:
	.loc 1 33 5 is_stmt 1
	movq	-8(%rbp), %rax
	movl	$1, %edx
	movq	%rax, %rcx
	call	g_string_free
	.loc 1 34 1
	nop
	addq	$48, %rsp
	popq	%rbp
	.cfi_restore 6
	.cfi_def_cfa 7, 8
	ret
	.cfi_endproc
.LFE115:
	.seh_endproc
	.section .rdata,"dr"
	.align 8
.LC1:
	.ascii "Expect different value for call %d arg %d.\0"
	.text
	.def	_AssertArg;	.scl	3;	.type	32;	.endef
	.seh_proc	_AssertArg
_AssertArg:
.LFB116:
	.loc 1 36 1
	.cfi_startproc
	pushq	%rbp
	.seh_pushreg	%rbp
	.cfi_def_cfa_offset 16
	.cfi_offset 6, -16
	movq	%rsp, %rbp
	.seh_setframe	%rbp, 0
	.cfi_def_cfa_register 6
	subq	$48, %rsp
	.seh_stackalloc	48
	.seh_endprologue
	movl	%ecx, %eax
	movq	%r8, 32(%rbp)
	movw	%ax, 16(%rbp)
	movl	%edx, %eax
	movb	%al, 24(%rbp)
	.loc 1 75 20
	movl	$0, %ecx
	call	g_string_new
	movq	%rax, -8(%rbp)
	.loc 1 76 5
	movzbl	24(%rbp), %ecx
	movzwl	16(%rbp), %edx
	movq	-8(%rbp), %rax
	movl	%ecx, %r9d
	movl	%edx, %r8d
	leaq	.LC1(%rip), %rdx
	movq	%rax, %rcx
	call	g_string_printf
	.loc 1 80 5
	movzbl	24(%rbp), %ecx
	movzwl	16(%rbp), %edx
	movq	mock(%rip), %rax
	movq	32(%rbp), %r8
	movq	%r8, %r9
	movl	%ecx, %r8d
	movq	%rax, %rcx
	call	AssertArg
	testb	%al, %al
	jne	.L6
	.loc 1 80 5 is_stmt 0 discriminator 1
	movq	-8(%rbp), %rax
	movq	(%rax), %rax
	movl	$80, %edx
	movq	%rax, %rcx
	call	UnityFail
.L6:
	.loc 1 84 5 is_stmt 1
	movq	-8(%rbp), %rax
	movl	$1, %edx
	movq	%rax, %rcx
	call	g_string_free
	.loc 1 85 1
	nop
	addq	$48, %rsp
	popq	%rbp
	.cfi_restore 6
	.cfi_def_cfa 7, 8
	ret
	.cfi_endproc
.LFE116:
	.seh_endproc
	.def	_AssertArgByteVal;	.scl	3;	.type	32;	.endef
	.seh_proc	_AssertArgByteVal
_AssertArgByteVal:
.LFB117:
	.loc 1 86 81
	.cfi_startproc
	pushq	%rbp
	.seh_pushreg	%rbp
	.cfi_def_cfa_offset 16
	.cfi_offset 6, -16
	movq	%rsp, %rbp
	.seh_setframe	%rbp, 0
	.cfi_def_cfa_register 6
	subq	$32, %rsp
	.seh_stackalloc	32
	.seh_endprologue
	movl	%ecx, %eax
	movl	%r8d, %ecx
	movw	%ax, 16(%rbp)
	movl	%edx, %eax
	movb	%al, 24(%rbp)
	movl	%ecx, %eax
	movb	%al, 32(%rbp)
	.loc 1 86 83
	movzbl	24(%rbp), %edx
	movzwl	16(%rbp), %eax
	leaq	32(%rbp), %rcx
	movq	%rcx, %r8
	movl	%eax, %ecx
	call	_AssertArg
	.loc 1 86 121
	nop
	addq	$32, %rsp
	popq	%rbp
	.cfi_restore 6
	.cfi_def_cfa 7, 8
	ret
	.cfi_endproc
.LFE117:
	.seh_endproc
	.section .rdata,"dr"
	.align 8
.LC2:
	.ascii "Expect call count is %d, but was %d.\0"
	.text
	.def	_test_call_count_is;	.scl	3;	.type	32;	.endef
	.seh_proc	_test_call_count_is
_test_call_count_is:
.LFB118:
	.loc 1 88 1
	.cfi_startproc
	pushq	%rbp
	.seh_pushreg	%rbp
	.cfi_def_cfa_offset 16
	.cfi_offset 6, -16
	movq	%rsp, %rbp
	.seh_setframe	%rbp, 0
	.cfi_def_cfa_register 6
	subq	$48, %rsp
	.seh_stackalloc	48
	.seh_endprologue
	movl	%ecx, %eax
	movw	%ax, 16(%rbp)
	.loc 1 92 20
	movl	$0, %ecx
	call	g_string_new
	movq	%rax, -8(%rbp)
	.loc 1 95 14
	movq	mock(%rip), %rax
	movq	%rax, %rcx
	call	NumberOfActualCalls
	.loc 1 93 5
	movzwl	%ax, %ecx
	movzwl	16(%rbp), %edx
	movq	-8(%rbp), %rax
	movl	%ecx, %r9d
	movl	%edx, %r8d
	leaq	.LC2(%rip), %rdx
	movq	%rax, %rcx
	call	g_string_printf
	.loc 1 98 16
	movq	mock(%rip), %rax
	movq	%rax, %rcx
	call	NumberOfActualCalls
	.loc 1 98 8
	cmpw	%ax, 16(%rbp)
	jne	.L9
	.loc 1 98 43 discriminator 1
	movl	$1, %edx
	movq	.refptr.Unity(%rip), %rax
	leaq	80(%rax), %rcx
	call	longjmp
.L9:
	.loc 1 99 10
	movq	-8(%rbp), %rax
	movq	(%rax), %rax
	movl	$99, %edx
	movq	%rax, %rcx
	call	UnityFail
	.loc 1 101 5
	movq	-8(%rbp), %rax
	movl	$1, %edx
	movq	%rax, %rcx
	call	g_string_free
	.loc 1 102 1
	nop
	addq	$48, %rsp
	popq	%rbp
	.cfi_restore 6
	.cfi_def_cfa 7, 8
	ret
	.cfi_endproc
.LFE118:
	.seh_endproc
	.globl	setUp
	.bss
	.align 8
setUp:
	.space 8
	.globl	tearDown
	.align 8
tearDown:
	.space 8
	.globl	mock
	.align 8
mock:
	.space 8
	.text
	.globl	SetUp_Mock
	.def	SetUp_Mock;	.scl	2;	.type	32;	.endef
	.seh_proc	SetUp_Mock
SetUp_Mock:
.LFB127:
	.file 2 "code-not-used/test_VisCmd-ReplyCommandInvalid.c"
	.loc 2 9 22
	.cfi_startproc
	pushq	%rbp
	.seh_pushreg	%rbp
	.cfi_def_cfa_offset 16
	.cfi_offset 6, -16
	movq	%rsp, %rbp
	.seh_setframe	%rbp, 0
	.cfi_def_cfa_register 6
	subq	$32, %rsp
	.seh_stackalloc	32
	.seh_endprologue
	.loc 2 10 12
	call	Mock_new
	.loc 2 10 10
	movq	%rax, mock(%rip)
	.loc 2 11 1
	nop
	addq	$32, %rsp
	popq	%rbp
	.cfi_restore 6
	.cfi_def_cfa 7, 8
	ret
	.cfi_endproc
.LFE127:
	.seh_endproc
	.globl	TearDown_Mock
	.def	TearDown_Mock;	.scl	2;	.type	32;	.endef
	.seh_proc	TearDown_Mock
TearDown_Mock:
.LFB128:
	.loc 2 12 25
	.cfi_startproc
	pushq	%rbp
	.seh_pushreg	%rbp
	.cfi_def_cfa_offset 16
	.cfi_offset 6, -16
	movq	%rsp, %rbp
	.seh_setframe	%rbp, 0
	.cfi_def_cfa_register 6
	subq	$32, %rsp
	.seh_stackalloc	32
	.seh_endprologue
	.loc 2 13 5
	movq	mock(%rip), %rax
	movq	%rax, %rcx
	call	Mock_destroy
	.loc 2 14 10
	movq	$0, mock(%rip)
	.loc 2 15 1
	nop
	addq	$32, %rsp
	popq	%rbp
	.cfi_restore 6
	.cfi_def_cfa 7, 8
	ret
	.cfi_endproc
.LFE128:
	.seh_endproc
	.section .rdata,"dr"
.LC3:
	.ascii "SpiSlaveTxByte\0"
	.text
	.globl	ReplyCommandInvalid_transmits_one_byte_over_SPI
	.def	ReplyCommandInvalid_transmits_one_byte_over_SPI;	.scl	2;	.type	32;	.endef
	.seh_proc	ReplyCommandInvalid_transmits_one_byte_over_SPI
ReplyCommandInvalid_transmits_one_byte_over_SPI:
.LFB129:
	.loc 2 18 1
	.cfi_startproc
	pushq	%rbp
	.seh_pushreg	%rbp
	.cfi_def_cfa_offset 16
	.cfi_offset 6, -16
	movq	%rsp, %rbp
	.seh_setframe	%rbp, 0
	.cfi_def_cfa_register 6
	subq	$32, %rsp
	.seh_stackalloc	32
	.seh_endprologue
	.loc 2 20 5
	call	ReplyCommandInvalid
	.loc 2 22 5
	leaq	.LC3(%rip), %rdx
	movl	$1, %ecx
	call	_AssertCall
	.loc 2 23 5
	movl	$1, %ecx
	call	_test_call_count_is
	.loc 2 24 1
	nop
	addq	$32, %rsp
	popq	%rbp
	.cfi_restore 6
	.cfi_def_cfa 7, 8
	ret
	.cfi_endproc
.LFE129:
	.seh_endproc
	.globl	ReplyCommandInvalid_sends_byte_INVALID_CMD
	.def	ReplyCommandInvalid_sends_byte_INVALID_CMD;	.scl	2;	.type	32;	.endef
	.seh_proc	ReplyCommandInvalid_sends_byte_INVALID_CMD
ReplyCommandInvalid_sends_byte_INVALID_CMD:
.LFB130:
	.loc 2 26 1
	.cfi_startproc
	pushq	%rbp
	.seh_pushreg	%rbp
	.cfi_def_cfa_offset 16
	.cfi_offset 6, -16
	movq	%rsp, %rbp
	.seh_setframe	%rbp, 0
	.cfi_def_cfa_register 6
	subq	$48, %rsp
	.seh_stackalloc	48
	.seh_endprologue
	.loc 2 28 5
	call	ReplyCommandInvalid
	.loc 2 31 14
	movw	$1, -2(%rbp)
	.loc 2 32 5
	movzwl	-2(%rbp), %eax
	leaq	.LC3(%rip), %rdx
	movl	%eax, %ecx
	call	_SilentAssertCall
	.loc 2 33 5
	movl	$2, %eax
	movzbl	%al, %edx
	movzwl	-2(%rbp), %eax
	movl	%edx, %r8d
	movl	$1, %edx
	movl	%eax, %ecx
	call	_AssertArgByteVal
	.loc 2 34 1
	nop
	addq	$48, %rsp
	popq	%rbp
	.cfi_restore 6
	.cfi_def_cfa 7, 8
	ret
	.cfi_endproc
.LFE130:
	.seh_endproc
	.def	__main;	.scl	2;	.type	32;	.endef
	.section .rdata,"dr"
	.align 8
.LC4:
	.ascii "code-not-used/test_VisCmd-ReplyCommandInvalid.c\0"
.LC5:
	.ascii "# test VisCmd\0"
.LC6:
	.ascii "## VisCmd.ReplyCommandInvalid\0"
	.align 8
.LC7:
	.ascii "ReplyCommandInvalid_transmits_one_byte_over_SPI\0"
	.align 8
.LC8:
	.ascii "ReplyCommandInvalid_sends_byte_INVALID_CMD\0"
	.text
	.globl	main
	.def	main;	.scl	2;	.type	32;	.endef
	.seh_proc	main
main:
.LFB131:
	.loc 2 37 1
	.cfi_startproc
	pushq	%rbp
	.seh_pushreg	%rbp
	.cfi_def_cfa_offset 16
	.cfi_offset 6, -16
	movq	%rsp, %rbp
	.seh_setframe	%rbp, 0
	.cfi_def_cfa_register 6
	subq	$32, %rsp
	.seh_stackalloc	32
	.seh_endprologue
	.loc 2 37 1
	call	__main
	.loc 2 38 5
	leaq	.LC4(%rip), %rcx
	call	UnityBegin
	.loc 2 39 5
	leaq	.LC5(%rip), %rcx
	call	puts
	.loc 2 40 5
	leaq	.LC6(%rip), %rcx
	call	puts
	.loc 2 41 11
	leaq	SetUp_Mock(%rip), %rax
	movq	%rax, setUp(%rip)
	.loc 2 42 14
	leaq	TearDown_Mock(%rip), %rax
	movq	%rax, tearDown(%rip)
	.loc 2 43 5
	movl	$43, %r8d
	leaq	.LC7(%rip), %rdx
	leaq	ReplyCommandInvalid_transmits_one_byte_over_SPI(%rip), %rcx
	call	UnityDefaultTestRun
	.loc 2 44 5
	movl	$44, %r8d
	leaq	.LC8(%rip), %rdx
	leaq	ReplyCommandInvalid_sends_byte_INVALID_CMD(%rip), %rcx
	call	UnityDefaultTestRun
	.loc 2 45 12
	call	UnityEnd
	.loc 2 46 1
	addq	$32, %rsp
	popq	%rbp
	.cfi_restore 6
	.cfi_def_cfa 7, 8
	ret
	.cfi_endproc
.LFE131:
	.seh_endproc
.Letext0:
	.file 3 "/usr/include/machine/setjmp.h"
	.file 4 "/usr/include/machine/_default_types.h"
	.file 5 "/usr/include/sys/_stdint.h"
	.file 6 "../mock-c/code/unity_internals.h"
	.file 7 "../mock-c/code/unity.h"
	.file 8 "/usr/lib/glib-2.0/include/glibconfig.h"
	.file 9 "/usr/include/glib-2.0/glib/gtypes.h"
	.file 10 "/usr/include/glib-2.0/glib/gstring.h"
	.file 11 "../mock-c/code/Mock.h"
	.file 12 "../lib/src/StatusCode.h"
	.file 13 "../lib/src/StatusCodes.h"
	.file 14 "../lib/src/BiColorLed.h"
	.file 15 "../lib/test/BiColorLed-HardwareFake.h"
	.file 16 "../lib/src/Flag.h"
	.file 17 "../lib/test/Flag-HardwareFake.h"
	.file 18 "../lib/src/Spi.h"
	.file 19 "../lib/test/Spi-HardwareFake.h"
	.file 20 "../lib/src/UartSpi.h"
	.file 21 "../lib/test/UartSpi-HardwareFake.h"
	.file 22 "../lib/src/Usb.h"
	.file 23 "../lib/test/Usb-HardwareFake.h"
	.section	.rdata$.refptr.Unity, "dr"
	.globl	.refptr.Unity
	.linkonce	discard
.refptr.Unity:
	.quad	Unity
