
build/vis-spi-out.elf:     file format elf32-avr

Sections:
Idx Name          Size      VMA       LMA       File off  Algn
  0 .data         00000078  00800100  00004a02  00004a96  2**0
                  CONTENTS, ALLOC, LOAD, DATA
  1 .text         00004a02  00000000  00000000  00000094  2**1
                  CONTENTS, ALLOC, LOAD, READONLY, CODE
  2 .bss          00000634  00800178  00800178  00004b0e  2**0
                  ALLOC
  3 .comment      00000030  00000000  00000000  00004b0e  2**0
                  CONTENTS, READONLY
  4 .note.gnu.avr.deviceinfo 00000040  00000000  00000000  00004b40  2**2
                  CONTENTS, READONLY
  5 .debug_aranges 00000368  00000000  00000000  00004b80  2**0
                  CONTENTS, READONLY, DEBUGGING
  6 .debug_info   00004c8c  00000000  00000000  00004ee8  2**0
                  CONTENTS, READONLY, DEBUGGING
  7 .debug_abbrev 00001569  00000000  00000000  00009b74  2**0
                  CONTENTS, READONLY, DEBUGGING
  8 .debug_line   00001a83  00000000  00000000  0000b0dd  2**0
                  CONTENTS, READONLY, DEBUGGING
  9 .debug_frame  000008e8  00000000  00000000  0000cb60  2**2
                  CONTENTS, READONLY, DEBUGGING
 10 .debug_str    000015b1  00000000  00000000  0000d448  2**0
                  CONTENTS, READONLY, DEBUGGING
 11 .debug_loc    00002611  00000000  00000000  0000e9f9  2**0
                  CONTENTS, READONLY, DEBUGGING
 12 .debug_ranges 00000400  00000000  00000000  0001100a  2**0
                  CONTENTS, READONLY, DEBUGGING

Disassembly of section .text:

00000000 <__vectors>:
       0:	0c 94 34 00 	jmp	0x68	; 0x68 <__ctors_end>
       4:	0c 94 51 00 	jmp	0xa2	; 0xa2 <__bad_interrupt>
       8:	0c 94 51 00 	jmp	0xa2	; 0xa2 <__bad_interrupt>
       c:	0c 94 51 00 	jmp	0xa2	; 0xa2 <__bad_interrupt>
      10:	0c 94 51 00 	jmp	0xa2	; 0xa2 <__bad_interrupt>
      14:	0c 94 51 00 	jmp	0xa2	; 0xa2 <__bad_interrupt>
      18:	0c 94 51 00 	jmp	0xa2	; 0xa2 <__bad_interrupt>
      1c:	0c 94 51 00 	jmp	0xa2	; 0xa2 <__bad_interrupt>
      20:	0c 94 51 00 	jmp	0xa2	; 0xa2 <__bad_interrupt>
      24:	0c 94 51 00 	jmp	0xa2	; 0xa2 <__bad_interrupt>
      28:	0c 94 51 00 	jmp	0xa2	; 0xa2 <__bad_interrupt>
      2c:	0c 94 51 00 	jmp	0xa2	; 0xa2 <__bad_interrupt>
      30:	0c 94 51 00 	jmp	0xa2	; 0xa2 <__bad_interrupt>
      34:	0c 94 51 00 	jmp	0xa2	; 0xa2 <__bad_interrupt>
      38:	0c 94 51 00 	jmp	0xa2	; 0xa2 <__bad_interrupt>
      3c:	0c 94 51 00 	jmp	0xa2	; 0xa2 <__bad_interrupt>
      40:	0c 94 51 00 	jmp	0xa2	; 0xa2 <__bad_interrupt>
      44:	0c 94 c4 24 	jmp	0x4988	; 0x4988 <__vector_17>
      48:	0c 94 51 00 	jmp	0xa2	; 0xa2 <__bad_interrupt>
      4c:	0c 94 51 00 	jmp	0xa2	; 0xa2 <__bad_interrupt>
      50:	0c 94 51 00 	jmp	0xa2	; 0xa2 <__bad_interrupt>
      54:	0c 94 51 00 	jmp	0xa2	; 0xa2 <__bad_interrupt>
      58:	0c 94 51 00 	jmp	0xa2	; 0xa2 <__bad_interrupt>
      5c:	0c 94 51 00 	jmp	0xa2	; 0xa2 <__bad_interrupt>
      60:	0c 94 51 00 	jmp	0xa2	; 0xa2 <__bad_interrupt>
      64:	0c 94 51 00 	jmp	0xa2	; 0xa2 <__bad_interrupt>

00000068 <__ctors_end>:
      68:	11 24       	eor	r1, r1
      6a:	1f be       	out	0x3f, r1	; 63
      6c:	cf ef       	ldi	r28, 0xFF	; 255
      6e:	d8 e0       	ldi	r29, 0x08	; 8
      70:	de bf       	out	0x3e, r29	; 62
      72:	cd bf       	out	0x3d, r28	; 61

00000074 <__do_copy_data>:
      74:	11 e0       	ldi	r17, 0x01	; 1
      76:	a0 e0       	ldi	r26, 0x00	; 0
      78:	b1 e0       	ldi	r27, 0x01	; 1
      7a:	e2 e0       	ldi	r30, 0x02	; 2
      7c:	fa e4       	ldi	r31, 0x4A	; 74
      7e:	02 c0       	rjmp	.+4      	; 0x84 <__do_copy_data+0x10>
      80:	05 90       	lpm	r0, Z+
      82:	0d 92       	st	X+, r0
      84:	a8 37       	cpi	r26, 0x78	; 120
      86:	b1 07       	cpc	r27, r17
      88:	d9 f7       	brne	.-10     	; 0x80 <__do_copy_data+0xc>

0000008a <__do_clear_bss>:
      8a:	27 e0       	ldi	r18, 0x07	; 7
      8c:	a8 e7       	ldi	r26, 0x78	; 120
      8e:	b1 e0       	ldi	r27, 0x01	; 1
      90:	01 c0       	rjmp	.+2      	; 0x94 <.do_clear_bss_start>

00000092 <.do_clear_bss_loop>:
      92:	1d 92       	st	X+, r1

00000094 <.do_clear_bss_start>:
      94:	ac 3a       	cpi	r26, 0xAC	; 172
      96:	b2 07       	cpc	r27, r18
      98:	e1 f7       	brne	.-8      	; 0x92 <.do_clear_bss_loop>
      9a:	0e 94 74 24 	call	0x48e8	; 0x48e8 <main>
      9e:	0c 94 ff 24 	jmp	0x49fe	; 0x49fe <_exit>

000000a2 <__bad_interrupt>:
      a2:	0c 94 00 00 	jmp	0	; 0x0 <__vectors>

000000a6 <ClearPendingSpiInterrupt_Implementation>:
}
bool (*SpiResponseIsReady)(void) = SpiResponseIsReady_Implementation;
void SpiMasterWaitForResponse(void)
{
    while( !SpiResponseIsReady() );
}
      a6:	e0 91 04 01 	lds	r30, 0x0104	; 0x800104 <ReadSpiStatusRegister>
      aa:	f0 91 05 01 	lds	r31, 0x0105	; 0x800105 <ReadSpiStatusRegister+0x1>
      ae:	09 95       	icall
      b0:	e0 91 00 01 	lds	r30, 0x0100	; 0x800100 <ReadSpiDataRegister>
      b4:	f0 91 01 01 	lds	r31, 0x0101	; 0x800101 <ReadSpiDataRegister+0x1>
      b8:	09 94       	ijmp

000000ba <ReadSpiStatusRegister_Implementation>:
      ba:	e0 91 70 01 	lds	r30, 0x0170	; 0x800170 <Spi_spsr>
      be:	f0 91 71 01 	lds	r31, 0x0171	; 0x800171 <Spi_spsr+0x1>
      c2:	80 81       	ld	r24, Z
      c4:	08 95       	ret

000000c6 <EnableSpi_Implementation>:
      c6:	e0 91 72 01 	lds	r30, 0x0172	; 0x800172 <Spi_spcr>
      ca:	f0 91 73 01 	lds	r31, 0x0173	; 0x800173 <Spi_spcr+0x1>
      ce:	20 81       	ld	r18, Z
      d0:	81 e0       	ldi	r24, 0x01	; 1
      d2:	90 e0       	ldi	r25, 0x00	; 0
      d4:	00 90 6b 01 	lds	r0, 0x016B	; 0x80016b <Spi_Enable>
      d8:	02 c0       	rjmp	.+4      	; 0xde <EnableSpi_Implementation+0x18>
      da:	88 0f       	add	r24, r24
      dc:	99 1f       	adc	r25, r25
      de:	0a 94       	dec	r0
      e0:	e2 f7       	brpl	.-8      	; 0xda <EnableSpi_Implementation+0x14>
      e2:	82 2b       	or	r24, r18
      e4:	80 83       	st	Z, r24
      e6:	08 95       	ret

000000e8 <ReadSpiDataRegister_Implementation>:
      e8:	e0 91 6e 01 	lds	r30, 0x016E	; 0x80016e <Spi_spdr>
      ec:	f0 91 6f 01 	lds	r31, 0x016F	; 0x80016f <Spi_spdr+0x1>
      f0:	80 81       	ld	r24, Z
      f2:	08 95       	ret

000000f4 <SpiSlaveInit>:
static void SetMisoAsOutput(void)
{
    SetBit(Spi_ddr, Spi_Miso);
}
void SpiSlaveInit(void)
{
      f4:	cf 93       	push	r28
      f6:	df 93       	push	r29
    ClearBit(Spi_ddr, Spi_DataReady); // make it an input
    SetBit(Spi_port, Spi_DataReady); // enable pull-up
}
void SetDataReadyAsOutputIdlesHigh(void) // For SpiSlave only!
{
    SetBit(Spi_port, Spi_DataReady); // idle HIGH
      f8:	e0 91 74 01 	lds	r30, 0x0174	; 0x800174 <Spi_port>
      fc:	f0 91 75 01 	lds	r31, 0x0175	; 0x800175 <Spi_port+0x1>
/* | 2019-03-04 WIP: inline version of ReadWriteBits | */
/* --------------------------------------------------- */

inline void SetBit(uint8_t volatile * const port, uint8_t const bit)
{
    *port |= 1<<bit;
     100:	20 81       	ld	r18, Z
     102:	c1 e0       	ldi	r28, 0x01	; 1
     104:	d0 e0       	ldi	r29, 0x00	; 0
     106:	ce 01       	movw	r24, r28
     108:	00 90 6c 01 	lds	r0, 0x016C	; 0x80016c <Spi_DataReady>
     10c:	02 c0       	rjmp	.+4      	; 0x112 <SpiSlaveInit+0x1e>
     10e:	88 0f       	add	r24, r24
     110:	99 1f       	adc	r25, r25
     112:	0a 94       	dec	r0
     114:	e2 f7       	brpl	.-8      	; 0x10e <SpiSlaveInit+0x1a>
     116:	92 2f       	mov	r25, r18
     118:	98 2b       	or	r25, r24
     11a:	90 83       	st	Z, r25
    SetBit(Spi_ddr, Spi_DataReady); // make it an output pin
     11c:	e0 91 76 01 	lds	r30, 0x0176	; 0x800176 <Spi_ddr>
     120:	f0 91 77 01 	lds	r31, 0x0177	; 0x800177 <Spi_ddr+0x1>
     124:	90 81       	ld	r25, Z
     126:	89 2b       	or	r24, r25
     128:	80 83       	st	Z, r24
     12a:	20 81       	ld	r18, Z
     12c:	ce 01       	movw	r24, r28
     12e:	00 90 6d 01 	lds	r0, 0x016D	; 0x80016d <Spi_Miso>
     132:	02 c0       	rjmp	.+4      	; 0x138 <SpiSlaveInit+0x44>
     134:	88 0f       	add	r24, r24
     136:	99 1f       	adc	r25, r25
     138:	0a 94       	dec	r0
     13a:	e2 f7       	brpl	.-8      	; 0x134 <SpiSlaveInit+0x40>
     13c:	82 2b       	or	r24, r18
     13e:	80 83       	st	Z, r24
{
    // Slave outputs LOW on DataReady to signal Master there is data to read.
    SetDataReadyAsOutputIdlesHigh();
    // TODO: do not drive MISO, that's why we have DataReady
    SetMisoAsOutput(); // pin-direction is user-defined
    EnableSpi();
     140:	e0 91 02 01 	lds	r30, 0x0102	; 0x800102 <EnableSpi>
     144:	f0 91 03 01 	lds	r31, 0x0103	; 0x800103 <EnableSpi+0x1>
     148:	09 95       	icall
    ClearPendingSpiInterrupt(); // access SPI status reg and SPI data reg
     14a:	e0 91 06 01 	lds	r30, 0x0106	; 0x800106 <ClearPendingSpiInterrupt>
     14e:	f0 91 07 01 	lds	r31, 0x0107	; 0x800107 <ClearPendingSpiInterrupt+0x1>
     152:	09 95       	icall
{
    SetBit(Spi_spcr, Spi_InterruptEnable);
}
void SpiEnableInterrupt(void)
{
    GlobalInterruptDisable();
     154:	e0 91 1c 01 	lds	r30, 0x011C	; 0x80011c <GlobalInterruptDisable>
     158:	f0 91 1d 01 	lds	r31, 0x011D	; 0x80011d <GlobalInterruptDisable+0x1>
     15c:	09 95       	icall
    ClearPendingSpiInterrupt();
     15e:	e0 91 06 01 	lds	r30, 0x0106	; 0x800106 <ClearPendingSpiInterrupt>
     162:	f0 91 07 01 	lds	r31, 0x0107	; 0x800107 <ClearPendingSpiInterrupt+0x1>
     166:	09 95       	icall
/*     // and disable with: */
/*     /1* ClearBit(Spi_spcr, Spi_InterruptEnable); // Disable SPI interrupt *1/ */
/* } */
static void EnableTransferCompleteInterrupt(void)
{
    SetBit(Spi_spcr, Spi_InterruptEnable);
     168:	e0 91 72 01 	lds	r30, 0x0172	; 0x800172 <Spi_spcr>
     16c:	f0 91 73 01 	lds	r31, 0x0173	; 0x800173 <Spi_spcr+0x1>
     170:	80 81       	ld	r24, Z
     172:	00 90 6a 01 	lds	r0, 0x016A	; 0x80016a <Spi_InterruptEnable>
     176:	02 c0       	rjmp	.+4      	; 0x17c <SpiSlaveInit+0x88>
     178:	cc 0f       	add	r28, r28
     17a:	dd 1f       	adc	r29, r29
     17c:	0a 94       	dec	r0
     17e:	e2 f7       	brpl	.-8      	; 0x178 <SpiSlaveInit+0x84>
     180:	c8 2b       	or	r28, r24
     182:	c0 83       	st	Z, r28
void SpiEnableInterrupt(void)
{
    GlobalInterruptDisable();
    ClearPendingSpiInterrupt();
    EnableTransferCompleteInterrupt();
    GlobalInterruptEnable();
     184:	e0 91 1e 01 	lds	r30, 0x011E	; 0x80011e <GlobalInterruptEnable>
     188:	f0 91 1f 01 	lds	r31, 0x011F	; 0x80011f <GlobalInterruptEnable+0x1>
    SetMisoAsOutput(); // pin-direction is user-defined
    EnableSpi();
    ClearPendingSpiInterrupt(); // access SPI status reg and SPI data reg
    // Slave uses interrupts to send and receive bytes over SPI.
    SpiEnableInterrupt();
}
     18c:	df 91       	pop	r29
     18e:	cf 91       	pop	r28
void SpiEnableInterrupt(void)
{
    GlobalInterruptDisable();
    ClearPendingSpiInterrupt();
    EnableTransferCompleteInterrupt();
    GlobalInterruptEnable();
     190:	09 94       	ijmp

00000192 <StartAdcReadout>:
uint8_t (*UartSpiReadDataRegister)(void) = ReadDataRegister;
static void Transfer16bits(void)
{
    uint8_t byte_to_send = 0x00; // arbitrary choice -- write zeroes
    *UartSpi_data = byte_to_send;  // load tx buffer and start SPI transmission
    *UartSpi_data = byte_to_send;  // this makes it a 16-bit transmission ?
     192:	e0 91 66 01 	lds	r30, 0x0166	; 0x800166 <UartSpi_port>
     196:	f0 91 67 01 	lds	r31, 0x0167	; 0x800167 <UartSpi_port+0x1>
     19a:	20 81       	ld	r18, Z
     19c:	81 e0       	ldi	r24, 0x01	; 1
     19e:	90 e0       	ldi	r25, 0x00	; 0
     1a0:	00 90 5f 01 	lds	r0, 0x015F	; 0x80015f <UartSpi_AdcConv>
     1a4:	02 c0       	rjmp	.+4      	; 0x1aa <StartAdcReadout+0x18>
     1a6:	88 0f       	add	r24, r24
     1a8:	99 1f       	adc	r25, r25
     1aa:	0a 94       	dec	r0
     1ac:	e2 f7       	brpl	.-8      	; 0x1a6 <StartAdcReadout+0x14>
     1ae:	80 95       	com	r24
     1b0:	82 23       	and	r24, r18
     1b2:	80 83       	st	Z, r24
     1b4:	08 95       	ret

000001b6 <UartSpiInit>:
    UseSpiDataModeCpol1CPha1();
    CfgSpiToTransferMsbFirst();
    GiveSpiControlOverMisoAndMosiPins();
}
void UartSpiInit(void)
{
     1b6:	ef 92       	push	r14
     1b8:	ff 92       	push	r15
     1ba:	0f 93       	push	r16
     1bc:	1f 93       	push	r17
     1be:	cf 93       	push	r28
     1c0:	df 93       	push	r29
        // baudrate in bits per second = fosc/(2*(UBBR0+1))
        // for (baudrate = fosc/2) set UBBR0=0
        // Check:
        // UBRR0 (baud rate register)  = ( fosc/(2*baudrate) ) -1
        // yes, UBBR0 is 0 if fosc=10MHz and baudrate=5MHz
    *UartSpi_br = 0;
     1c2:	00 91 60 01 	lds	r16, 0x0160	; 0x800160 <UartSpi_br>
     1c6:	10 91 61 01 	lds	r17, 0x0161	; 0x800161 <UartSpi_br+0x1>
     1ca:	f8 01       	movw	r30, r16
     1cc:	11 82       	std	Z+1, r1	; 0x01
     1ce:	10 82       	st	Z, r1
}
static void SetSckAsOutput(void)
{
    // Cfg XCK as an output. CPOL=1 makes the clock idle high.
    SetBit(UartSpi_ddr, UartSpi_Sck);
     1d0:	e0 90 68 01 	lds	r14, 0x0168	; 0x800168 <UartSpi_ddr>
     1d4:	f0 90 69 01 	lds	r15, 0x0169	; 0x800169 <UartSpi_ddr+0x1>
     1d8:	f7 01       	movw	r30, r14
     1da:	20 81       	ld	r18, Z
     1dc:	c1 e0       	ldi	r28, 0x01	; 1
     1de:	d0 e0       	ldi	r29, 0x00	; 0
     1e0:	ce 01       	movw	r24, r28
     1e2:	00 90 5e 01 	lds	r0, 0x015E	; 0x80015e <UartSpi_Sck>
     1e6:	02 c0       	rjmp	.+4      	; 0x1ec <UartSpiInit+0x36>
     1e8:	88 0f       	add	r24, r24
     1ea:	99 1f       	adc	r25, r25
     1ec:	0a 94       	dec	r0
     1ee:	e2 f7       	brpl	.-8      	; 0x1e8 <UartSpiInit+0x32>
     1f0:	82 2b       	or	r24, r18
     1f2:	80 83       	st	Z, r24
}
void UartSpiInit(void)
{
    RunSpiAt5Mhz(); // datasheet says to call this first
    SetSckAsOutput();
    AdcConvIdleLow(); SetAdcConvAsOutput();
     1f4:	0e 94 c9 00 	call	0x192	; 0x192 <StartAdcReadout>
     1f8:	f7 01       	movw	r30, r14
     1fa:	20 81       	ld	r18, Z
     1fc:	ce 01       	movw	r24, r28
     1fe:	00 90 5f 01 	lds	r0, 0x015F	; 0x80015f <UartSpi_AdcConv>
     202:	02 c0       	rjmp	.+4      	; 0x208 <UartSpiInit+0x52>
     204:	88 0f       	add	r24, r24
     206:	99 1f       	adc	r25, r25
     208:	0a 94       	dec	r0
     20a:	e2 f7       	brpl	.-8      	; 0x204 <UartSpiInit+0x4e>
     20c:	82 2b       	or	r24, r18
     20e:	80 83       	st	Z, r24
    // cfg general purpose output for conversion-start and readout-start
    SetBit(UartSpi_ddr, UartSpi_AdcConv);
}
static void EnableAtmega328UsartInSpiMasterMode(void)
{
    SetBit(UartSpi_csrc, UartSpi_ModeSelect0);
     210:	e0 91 62 01 	lds	r30, 0x0162	; 0x800162 <UartSpi_csrc>
     214:	f0 91 63 01 	lds	r31, 0x0163	; 0x800163 <UartSpi_csrc+0x1>
     218:	20 81       	ld	r18, Z
     21a:	ce 01       	movw	r24, r28
     21c:	00 90 5d 01 	lds	r0, 0x015D	; 0x80015d <UartSpi_ModeSelect0>
     220:	02 c0       	rjmp	.+4      	; 0x226 <UartSpiInit+0x70>
     222:	88 0f       	add	r24, r24
     224:	99 1f       	adc	r25, r25
     226:	0a 94       	dec	r0
     228:	e2 f7       	brpl	.-8      	; 0x222 <UartSpiInit+0x6c>
     22a:	82 2b       	or	r24, r18
     22c:	80 83       	st	Z, r24
     22e:	20 81       	ld	r18, Z
     230:	ce 01       	movw	r24, r28
     232:	00 90 5c 01 	lds	r0, 0x015C	; 0x80015c <UartSpi_ModeSelect1>
     236:	02 c0       	rjmp	.+4      	; 0x23c <UartSpiInit+0x86>
     238:	88 0f       	add	r24, r24
     23a:	99 1f       	adc	r25, r25
     23c:	0a 94       	dec	r0
     23e:	e2 f7       	brpl	.-8      	; 0x238 <UartSpiInit+0x82>
     240:	82 2b       	or	r24, r18
     242:	80 83       	st	Z, r24
     244:	20 81       	ld	r18, Z
     246:	ce 01       	movw	r24, r28
     248:	00 90 59 01 	lds	r0, 0x0159	; 0x800159 <UartSpi_ClockPolarity>
     24c:	02 c0       	rjmp	.+4      	; 0x252 <UartSpiInit+0x9c>
     24e:	88 0f       	add	r24, r24
     250:	99 1f       	adc	r25, r25
     252:	0a 94       	dec	r0
     254:	e2 f7       	brpl	.-8      	; 0x24e <UartSpiInit+0x98>
     256:	82 2b       	or	r24, r18
     258:	80 83       	st	Z, r24
     25a:	20 81       	ld	r18, Z
     25c:	ce 01       	movw	r24, r28
     25e:	00 90 58 01 	lds	r0, 0x0158	; 0x800158 <UartSpi_ClockPhase>
     262:	02 c0       	rjmp	.+4      	; 0x268 <UartSpiInit+0xb2>
     264:	88 0f       	add	r24, r24
     266:	99 1f       	adc	r25, r25
     268:	0a 94       	dec	r0
     26a:	e2 f7       	brpl	.-8      	; 0x264 <UartSpiInit+0xae>
     26c:	82 2b       	or	r24, r18
     26e:	80 83       	st	Z, r24
}
inline void ClearBit(uint8_t volatile * const port, uint8_t const bit)
{
    *port &= ~(1<<bit);
     270:	90 81       	ld	r25, Z
     272:	9e 01       	movw	r18, r28
     274:	00 90 57 01 	lds	r0, 0x0157	; 0x800157 <UartSpi_DataOrder>
     278:	02 c0       	rjmp	.+4      	; 0x27e <UartSpiInit+0xc8>
     27a:	22 0f       	add	r18, r18
     27c:	33 1f       	adc	r19, r19
     27e:	0a 94       	dec	r0
     280:	e2 f7       	brpl	.-8      	; 0x27a <UartSpiInit+0xc4>
     282:	82 2f       	mov	r24, r18
     284:	80 95       	com	r24
     286:	89 23       	and	r24, r25
     288:	80 83       	st	Z, r24
}
static void GiveSpiControlOverMisoAndMosiPins(void)
{
    /* ---Enabling Rx and Tx overrides normal port operation--- */
    // Enable the receiver. The UART Rx pin becomes the SPI Miso.
    SetBit(UartSpi_csrb, UartSpi_RxEnable);
     28a:	e0 91 64 01 	lds	r30, 0x0164	; 0x800164 <UartSpi_csrb>
     28e:	f0 91 65 01 	lds	r31, 0x0165	; 0x800165 <UartSpi_csrb+0x1>
/* | 2019-03-04 WIP: inline version of ReadWriteBits | */
/* --------------------------------------------------- */

inline void SetBit(uint8_t volatile * const port, uint8_t const bit)
{
    *port |= 1<<bit;
     292:	20 81       	ld	r18, Z
     294:	ce 01       	movw	r24, r28
     296:	00 90 5b 01 	lds	r0, 0x015B	; 0x80015b <UartSpi_RxEnable>
     29a:	02 c0       	rjmp	.+4      	; 0x2a0 <UartSpiInit+0xea>
     29c:	88 0f       	add	r24, r24
     29e:	99 1f       	adc	r25, r25
     2a0:	0a 94       	dec	r0
     2a2:	e2 f7       	brpl	.-8      	; 0x29c <UartSpiInit+0xe6>
     2a4:	82 2b       	or	r24, r18
     2a6:	80 83       	st	Z, r24
     2a8:	80 81       	ld	r24, Z
     2aa:	00 90 5a 01 	lds	r0, 0x015A	; 0x80015a <UartSpi_TxEnable>
     2ae:	02 c0       	rjmp	.+4      	; 0x2b4 <UartSpiInit+0xfe>
     2b0:	cc 0f       	add	r28, r28
     2b2:	dd 1f       	adc	r29, r29
     2b4:	0a 94       	dec	r0
     2b6:	e2 f7       	brpl	.-8      	; 0x2b0 <UartSpiInit+0xfa>
     2b8:	c8 2b       	or	r28, r24
     2ba:	c0 83       	st	Z, r28
        // baudrate in bits per second = fosc/(2*(UBBR0+1))
        // for (baudrate = fosc/2) set UBBR0=0
        // Check:
        // UBRR0 (baud rate register)  = ( fosc/(2*baudrate) ) -1
        // yes, UBBR0 is 0 if fosc=10MHz and baudrate=5MHz
    *UartSpi_br = 0;
     2bc:	f8 01       	movw	r30, r16
     2be:	11 82       	std	Z+1, r1	; 0x01
     2c0:	10 82       	st	Z, r1
    RunSpiAt5Mhz(); // datasheet says to call this first
    SetSckAsOutput();
    AdcConvIdleLow(); SetAdcConvAsOutput();
    SpiMasterCfg();
    RunSpiAt5Mhz(); // datasheet says to call this again after enable
}
     2c2:	df 91       	pop	r29
     2c4:	cf 91       	pop	r28
     2c6:	1f 91       	pop	r17
     2c8:	0f 91       	pop	r16
     2ca:	ff 90       	pop	r15
     2cc:	ef 90       	pop	r14
     2ce:	08 95       	ret

000002d0 <LisRunClkAt50kHz_Implementation>:
}
inline void ClearBit(uint8_t volatile * const port, uint8_t const bit)
{
    *port &= ~(1<<bit);
     2d0:	e0 91 12 01 	lds	r30, 0x0112	; 0x800112 <PwmResetCounterAtTop>
     2d4:	f0 91 13 01 	lds	r31, 0x0113	; 0x800113 <PwmResetCounterAtTop+0x1>
     2d8:	09 95       	icall
     2da:	e0 91 10 01 	lds	r30, 0x0110	; 0x800110 <PwmTopIsOcr0a>
     2de:	f0 91 11 01 	lds	r31, 0x0111	; 0x800111 <PwmTopIsOcr0a+0x1>
     2e2:	09 95       	icall
     2e4:	e0 91 0e 01 	lds	r30, 0x010E	; 0x80010e <PwmClkIsCpuClk>
     2e8:	f0 91 0f 01 	lds	r31, 0x010F	; 0x80010f <PwmClkIsCpuClk+0x1>
     2ec:	09 95       	icall
     2ee:	e0 91 4d 01 	lds	r30, 0x014D	; 0x80014d <Lis_clktop>
     2f2:	f0 91 4e 01 	lds	r31, 0x014E	; 0x80014e <Lis_clktop+0x1>
     2f6:	88 ec       	ldi	r24, 0xC8	; 200
     2f8:	80 83       	st	Z, r24
     2fa:	80 91 4b 01 	lds	r24, 0x014B	; 0x80014b <Lis_clkth>
     2fe:	90 91 4c 01 	lds	r25, 0x014C	; 0x80014c <Lis_clkth+0x1>
     302:	20 81       	ld	r18, Z
     304:	26 95       	lsr	r18
     306:	fc 01       	movw	r30, r24
     308:	20 83       	st	Z, r18
     30a:	08 95       	ret

0000030c <LisClkOn_Implementation>:
     30c:	e0 91 0c 01 	lds	r30, 0x010C	; 0x80010c <PwmEnableOutputSetUntilMatch>
     310:	f0 91 0d 01 	lds	r31, 0x010D	; 0x80010d <PwmEnableOutputSetUntilMatch+0x1>
     314:	09 94       	ijmp

00000316 <EnterLisProgrammingMode>:
}

inline void EnterLisProgrammingMode(void)
{
    /* Do all setup of Lis_Rst while Lis_Clk is low */
    LisWaitForClkFallEdge();
     316:	e0 91 41 01 	lds	r30, 0x0141	; 0x800141 <Pwm_tifr0>
     31a:	f0 91 42 01 	lds	r31, 0x0142	; 0x800142 <Pwm_tifr0+0x1>
/* | 2019-03-04 WIP: inline version of ReadWriteBits | */
/* --------------------------------------------------- */

inline void SetBit(uint8_t volatile * const port, uint8_t const bit)
{
    *port |= 1<<bit;
     31e:	80 81       	ld	r24, Z
     320:	21 e0       	ldi	r18, 0x01	; 1
     322:	30 e0       	ldi	r19, 0x00	; 0
     324:	00 90 38 01 	lds	r0, 0x0138	; 0x800138 <Pwm_Ocf0b>
     328:	02 c0       	rjmp	.+4      	; 0x32e <EnterLisProgrammingMode+0x18>
     32a:	22 0f       	add	r18, r18
     32c:	33 1f       	adc	r19, r19
     32e:	0a 94       	dec	r0
     330:	e2 f7       	brpl	.-8      	; 0x32a <EnterLisProgrammingMode+0x14>
     332:	82 2b       	or	r24, r18
     334:	80 83       	st	Z, r24
{
    return *port & (1<<bit);
}
inline bool BitIsClear(uint8_t volatile * const port, uint8_t const bit)
{
    return !(*port & (1<<bit));
     336:	80 81       	ld	r24, Z
     338:	90 e0       	ldi	r25, 0x00	; 0
     33a:	82 23       	and	r24, r18
     33c:	93 23       	and	r25, r19
     33e:	89 2b       	or	r24, r25
     340:	d1 f3       	breq	.-12     	; 0x336 <EnterLisProgrammingMode+0x20>
/* | 2019-03-04 WIP: inline version of ReadWriteBits | */
/* --------------------------------------------------- */

inline void SetBit(uint8_t volatile * const port, uint8_t const bit)
{
    *port |= 1<<bit;
     342:	80 81       	ld	r24, Z
     344:	28 2b       	or	r18, r24
     346:	20 83       	st	Z, r18
    /* Assert Pix_Select to program the LIS */
    SetBit(Lis_port2, Lis_PixSelect);
     348:	e0 91 4f 01 	lds	r30, 0x014F	; 0x80014f <Lis_port2>
     34c:	f0 91 50 01 	lds	r31, 0x0150	; 0x800150 <Lis_port2+0x1>
     350:	20 81       	ld	r18, Z
     352:	81 e0       	ldi	r24, 0x01	; 1
     354:	90 e0       	ldi	r25, 0x00	; 0
     356:	00 90 4a 01 	lds	r0, 0x014A	; 0x80014a <Lis_PixSelect>
     35a:	02 c0       	rjmp	.+4      	; 0x360 <EnterLisProgrammingMode+0x4a>
     35c:	88 0f       	add	r24, r24
     35e:	99 1f       	adc	r25, r25
     360:	0a 94       	dec	r0
     362:	e2 f7       	brpl	.-8      	; 0x35c <EnterLisProgrammingMode+0x46>
     364:	82 2b       	or	r24, r18
     366:	80 83       	st	Z, r24
     368:	08 95       	ret

0000036a <ExitLisProgrammingMode>:
}
inline void ExitLisProgrammingMode(void)
{
    /* Reset is low during normal (not programming mode) operation. */
    ClearBit(Lis_port1, Lis_Rst);
     36a:	e0 91 51 01 	lds	r30, 0x0151	; 0x800151 <Lis_port1>
     36e:	f0 91 52 01 	lds	r31, 0x0152	; 0x800152 <Lis_port1+0x1>
}
inline void ClearBit(uint8_t volatile * const port, uint8_t const bit)
{
    *port &= ~(1<<bit);
     372:	30 81       	ld	r19, Z
     374:	81 e0       	ldi	r24, 0x01	; 1
     376:	90 e0       	ldi	r25, 0x00	; 0
     378:	ac 01       	movw	r20, r24
     37a:	00 90 48 01 	lds	r0, 0x0148	; 0x800148 <Lis_Rst>
     37e:	02 c0       	rjmp	.+4      	; 0x384 <ExitLisProgrammingMode+0x1a>
     380:	44 0f       	add	r20, r20
     382:	55 1f       	adc	r21, r21
     384:	0a 94       	dec	r0
     386:	e2 f7       	brpl	.-8      	; 0x380 <ExitLisProgrammingMode+0x16>
     388:	24 2f       	mov	r18, r20
     38a:	20 95       	com	r18
     38c:	23 23       	and	r18, r19
     38e:	20 83       	st	Z, r18
    /* De-assert Pix_Select to stop programming the LIS. */
    ClearBit(Lis_port2, Lis_PixSelect);
     390:	e0 91 4f 01 	lds	r30, 0x014F	; 0x80014f <Lis_port2>
     394:	f0 91 50 01 	lds	r31, 0x0150	; 0x800150 <Lis_port2+0x1>
     398:	20 81       	ld	r18, Z
     39a:	00 90 4a 01 	lds	r0, 0x014A	; 0x80014a <Lis_PixSelect>
     39e:	02 c0       	rjmp	.+4      	; 0x3a4 <ExitLisProgrammingMode+0x3a>
     3a0:	88 0f       	add	r24, r24
     3a2:	99 1f       	adc	r25, r25
     3a4:	0a 94       	dec	r0
     3a6:	e2 f7       	brpl	.-8      	; 0x3a0 <ExitLisProgrammingMode+0x36>
     3a8:	80 95       	com	r24
     3aa:	82 23       	and	r24, r18
     3ac:	80 83       	st	Z, r24
     3ae:	08 95       	ret

000003b0 <LisInit>:
}

static void SetPixSelectAsOutput(void)
{
    SetBit(Lis_ddr2, Lis_PixSelect);
     3b0:	e0 91 53 01 	lds	r30, 0x0153	; 0x800153 <Lis_ddr2>
     3b4:	f0 91 54 01 	lds	r31, 0x0154	; 0x800154 <Lis_ddr2+0x1>
/* | 2019-03-04 WIP: inline version of ReadWriteBits | */
/* --------------------------------------------------- */

inline void SetBit(uint8_t volatile * const port, uint8_t const bit)
{
    *port |= 1<<bit;
     3b8:	40 81       	ld	r20, Z
     3ba:	81 e0       	ldi	r24, 0x01	; 1
     3bc:	90 e0       	ldi	r25, 0x00	; 0
     3be:	9c 01       	movw	r18, r24
     3c0:	00 90 4a 01 	lds	r0, 0x014A	; 0x80014a <Lis_PixSelect>
     3c4:	02 c0       	rjmp	.+4      	; 0x3ca <LisInit+0x1a>
     3c6:	22 0f       	add	r18, r18
     3c8:	33 1f       	adc	r19, r19
     3ca:	0a 94       	dec	r0
     3cc:	e2 f7       	brpl	.-8      	; 0x3c6 <LisInit+0x16>
     3ce:	34 2f       	mov	r19, r20
     3d0:	32 2b       	or	r19, r18
     3d2:	30 83       	st	Z, r19
{
    ClearBit(Lis_ddr1, Lis_Sync);
}
static void PixSelectIdleLow(void)
{
    ClearBit(Lis_port2, Lis_PixSelect);
     3d4:	e0 91 4f 01 	lds	r30, 0x014F	; 0x80014f <Lis_port2>
     3d8:	f0 91 50 01 	lds	r31, 0x0150	; 0x800150 <Lis_port2+0x1>
}
inline void ClearBit(uint8_t volatile * const port, uint8_t const bit)
{
    *port &= ~(1<<bit);
     3dc:	30 81       	ld	r19, Z
     3de:	20 95       	com	r18
     3e0:	23 23       	and	r18, r19
     3e2:	20 83       	st	Z, r18
{
    SetBit(Lis_ddr2, Lis_PixSelect);
}
static void SetClkAsOutput(void)
{
    SetBit(Lis_ddr1, Lis_Clk);
     3e4:	e0 91 55 01 	lds	r30, 0x0155	; 0x800155 <Lis_ddr1>
     3e8:	f0 91 56 01 	lds	r31, 0x0156	; 0x800156 <Lis_ddr1+0x1>
/* | 2019-03-04 WIP: inline version of ReadWriteBits | */
/* --------------------------------------------------- */

inline void SetBit(uint8_t volatile * const port, uint8_t const bit)
{
    *port |= 1<<bit;
     3ec:	40 81       	ld	r20, Z
     3ee:	9c 01       	movw	r18, r24
     3f0:	00 90 49 01 	lds	r0, 0x0149	; 0x800149 <Lis_Clk>
     3f4:	02 c0       	rjmp	.+4      	; 0x3fa <LisInit+0x4a>
     3f6:	22 0f       	add	r18, r18
     3f8:	33 1f       	adc	r19, r19
     3fa:	0a 94       	dec	r0
     3fc:	e2 f7       	brpl	.-8      	; 0x3f6 <LisInit+0x46>
     3fe:	24 2b       	or	r18, r20
     400:	20 83       	st	Z, r18
     402:	40 81       	ld	r20, Z
     404:	9c 01       	movw	r18, r24
     406:	00 90 48 01 	lds	r0, 0x0148	; 0x800148 <Lis_Rst>
     40a:	02 c0       	rjmp	.+4      	; 0x410 <__LOCK_REGION_LENGTH__+0x10>
     40c:	22 0f       	add	r18, r18
     40e:	33 1f       	adc	r19, r19
     410:	0a 94       	dec	r0
     412:	e2 f7       	brpl	.-8      	; 0x40c <__LOCK_REGION_LENGTH__+0xc>
     414:	34 2f       	mov	r19, r20
     416:	32 2b       	or	r19, r18
     418:	30 83       	st	Z, r19
{
    ClearBit(Lis_port2, Lis_PixSelect);
}
static void RstIdleLowAfterPowerUp(void)
{
    ClearBit(Lis_port1, Lis_Rst);
     41a:	a0 91 51 01 	lds	r26, 0x0151	; 0x800151 <Lis_port1>
     41e:	b0 91 52 01 	lds	r27, 0x0152	; 0x800152 <Lis_port1+0x1>
}
inline void ClearBit(uint8_t volatile * const port, uint8_t const bit)
{
    *port &= ~(1<<bit);
     422:	3c 91       	ld	r19, X
     424:	20 95       	com	r18
     426:	23 23       	and	r18, r19
     428:	2c 93       	st	X, r18
     42a:	20 81       	ld	r18, Z
     42c:	00 90 47 01 	lds	r0, 0x0147	; 0x800147 <Lis_Sync>
     430:	02 c0       	rjmp	.+4      	; 0x436 <__LOCK_REGION_LENGTH__+0x36>
     432:	88 0f       	add	r24, r24
     434:	99 1f       	adc	r25, r25
     436:	0a 94       	dec	r0
     438:	e2 f7       	brpl	.-8      	; 0x432 <__LOCK_REGION_LENGTH__+0x32>
     43a:	80 95       	com	r24
     43c:	82 23       	and	r24, r18
     43e:	80 83       	st	Z, r24
    PixSelectIdleLow();
    SetClkAsOutput();
    SetRstAsOutput();
    RstIdleLowAfterPowerUp();
    SetSyncAsInput();
    LisRunClkAt50kHz();
     440:	e0 91 0a 01 	lds	r30, 0x010A	; 0x80010a <LisRunClkAt50kHz>
     444:	f0 91 0b 01 	lds	r31, 0x010B	; 0x80010b <LisRunClkAt50kHz+0x1>
     448:	09 95       	icall
    LisClkOn();
     44a:	e0 91 08 01 	lds	r30, 0x0108	; 0x800108 <LisClkOn>
     44e:	f0 91 09 01 	lds	r31, 0x0109	; 0x800109 <LisClkOn+0x1>
     452:	09 94       	ijmp

00000454 <ResetCounterAtTop>:
#include "Pwm.h"
#include "ReadWriteBits.h"
static void ResetCounterAtTop(void)
{
    SetBit(Pwm_tccr0a, Pwm_Wgm00);
     454:	e0 91 45 01 	lds	r30, 0x0145	; 0x800145 <Pwm_tccr0a>
     458:	f0 91 46 01 	lds	r31, 0x0146	; 0x800146 <Pwm_tccr0a+0x1>
/* | 2019-03-04 WIP: inline version of ReadWriteBits | */
/* --------------------------------------------------- */

inline void SetBit(uint8_t volatile * const port, uint8_t const bit)
{
    *port |= 1<<bit;
     45c:	40 81       	ld	r20, Z
     45e:	81 e0       	ldi	r24, 0x01	; 1
     460:	90 e0       	ldi	r25, 0x00	; 0
     462:	9c 01       	movw	r18, r24
     464:	00 90 40 01 	lds	r0, 0x0140	; 0x800140 <Pwm_Wgm00>
     468:	02 c0       	rjmp	.+4      	; 0x46e <ResetCounterAtTop+0x1a>
     46a:	22 0f       	add	r18, r18
     46c:	33 1f       	adc	r19, r19
     46e:	0a 94       	dec	r0
     470:	e2 f7       	brpl	.-8      	; 0x46a <ResetCounterAtTop+0x16>
     472:	24 2b       	or	r18, r20
     474:	20 83       	st	Z, r18
     476:	20 81       	ld	r18, Z
     478:	00 90 3f 01 	lds	r0, 0x013F	; 0x80013f <Pwm_Wgm01>
     47c:	02 c0       	rjmp	.+4      	; 0x482 <ResetCounterAtTop+0x2e>
     47e:	88 0f       	add	r24, r24
     480:	99 1f       	adc	r25, r25
     482:	0a 94       	dec	r0
     484:	e2 f7       	brpl	.-8      	; 0x47e <ResetCounterAtTop+0x2a>
     486:	82 2b       	or	r24, r18
     488:	80 83       	st	Z, r24
     48a:	08 95       	ret

0000048c <TopIsOcr0a>:
}
void (*PwmResetCounterAtTop)(void) = ResetCounterAtTop;

static void TopIsOcr0a(void)
{
    SetBit(Pwm_tccr0b, Pwm_Wgm02);
     48c:	e0 91 43 01 	lds	r30, 0x0143	; 0x800143 <Pwm_tccr0b>
     490:	f0 91 44 01 	lds	r31, 0x0144	; 0x800144 <Pwm_tccr0b+0x1>
     494:	20 81       	ld	r18, Z
     496:	81 e0       	ldi	r24, 0x01	; 1
     498:	90 e0       	ldi	r25, 0x00	; 0
     49a:	00 90 3e 01 	lds	r0, 0x013E	; 0x80013e <Pwm_Wgm02>
     49e:	02 c0       	rjmp	.+4      	; 0x4a4 <TopIsOcr0a+0x18>
     4a0:	88 0f       	add	r24, r24
     4a2:	99 1f       	adc	r25, r25
     4a4:	0a 94       	dec	r0
     4a6:	e2 f7       	brpl	.-8      	; 0x4a0 <TopIsOcr0a+0x14>
     4a8:	82 2b       	or	r24, r18
     4aa:	80 83       	st	Z, r24
     4ac:	08 95       	ret

000004ae <PwmClkIsCpuClk_Implementation>:
}
void (*PwmTopIsOcr0a)(void) = TopIsOcr0a;

static void PwmClkIsCpuClk_Implementation(void)
{
    SetBit  (Pwm_tccr0b, Pwm_Cs00);
     4ae:	e0 91 43 01 	lds	r30, 0x0143	; 0x800143 <Pwm_tccr0b>
     4b2:	f0 91 44 01 	lds	r31, 0x0144	; 0x800144 <Pwm_tccr0b+0x1>
     4b6:	40 81       	ld	r20, Z
     4b8:	81 e0       	ldi	r24, 0x01	; 1
     4ba:	90 e0       	ldi	r25, 0x00	; 0
     4bc:	9c 01       	movw	r18, r24
     4be:	00 90 3d 01 	lds	r0, 0x013D	; 0x80013d <Pwm_Cs00>
     4c2:	02 c0       	rjmp	.+4      	; 0x4c8 <PwmClkIsCpuClk_Implementation+0x1a>
     4c4:	22 0f       	add	r18, r18
     4c6:	33 1f       	adc	r19, r19
     4c8:	0a 94       	dec	r0
     4ca:	e2 f7       	brpl	.-8      	; 0x4c4 <PwmClkIsCpuClk_Implementation+0x16>
     4cc:	24 2b       	or	r18, r20
     4ce:	20 83       	st	Z, r18
}
inline void ClearBit(uint8_t volatile * const port, uint8_t const bit)
{
    *port &= ~(1<<bit);
     4d0:	30 81       	ld	r19, Z
     4d2:	ac 01       	movw	r20, r24
     4d4:	00 90 3c 01 	lds	r0, 0x013C	; 0x80013c <Pwm_Cs01>
     4d8:	02 c0       	rjmp	.+4      	; 0x4de <PwmClkIsCpuClk_Implementation+0x30>
     4da:	44 0f       	add	r20, r20
     4dc:	55 1f       	adc	r21, r21
     4de:	0a 94       	dec	r0
     4e0:	e2 f7       	brpl	.-8      	; 0x4da <PwmClkIsCpuClk_Implementation+0x2c>
     4e2:	24 2f       	mov	r18, r20
     4e4:	20 95       	com	r18
     4e6:	23 23       	and	r18, r19
     4e8:	20 83       	st	Z, r18
     4ea:	20 81       	ld	r18, Z
     4ec:	00 90 3b 01 	lds	r0, 0x013B	; 0x80013b <Pwm_Cs02>
     4f0:	02 c0       	rjmp	.+4      	; 0x4f6 <PwmClkIsCpuClk_Implementation+0x48>
     4f2:	88 0f       	add	r24, r24
     4f4:	99 1f       	adc	r25, r25
     4f6:	0a 94       	dec	r0
     4f8:	e2 f7       	brpl	.-8      	; 0x4f2 <PwmClkIsCpuClk_Implementation+0x44>
     4fa:	80 95       	com	r24
     4fc:	82 23       	and	r24, r18
     4fe:	80 83       	st	Z, r24
     500:	08 95       	ret

00000502 <EnableOutputSetUntilMatch>:
}
void (*PwmClkIsCpuClk)(void) = PwmClkIsCpuClk_Implementation;

static void EnableOutputSetUntilMatch(void)
{
    ClearBit(Pwm_tccr0a, Pwm_Com0b0);
     502:	e0 91 45 01 	lds	r30, 0x0145	; 0x800145 <Pwm_tccr0a>
     506:	f0 91 46 01 	lds	r31, 0x0146	; 0x800146 <Pwm_tccr0a+0x1>
     50a:	30 81       	ld	r19, Z
     50c:	81 e0       	ldi	r24, 0x01	; 1
     50e:	90 e0       	ldi	r25, 0x00	; 0
     510:	ac 01       	movw	r20, r24
     512:	00 90 3a 01 	lds	r0, 0x013A	; 0x80013a <Pwm_Com0b0>
     516:	02 c0       	rjmp	.+4      	; 0x51c <EnableOutputSetUntilMatch+0x1a>
     518:	44 0f       	add	r20, r20
     51a:	55 1f       	adc	r21, r21
     51c:	0a 94       	dec	r0
     51e:	e2 f7       	brpl	.-8      	; 0x518 <EnableOutputSetUntilMatch+0x16>
     520:	24 2f       	mov	r18, r20
     522:	20 95       	com	r18
     524:	23 23       	and	r18, r19
     526:	20 83       	st	Z, r18
/* | 2019-03-04 WIP: inline version of ReadWriteBits | */
/* --------------------------------------------------- */

inline void SetBit(uint8_t volatile * const port, uint8_t const bit)
{
    *port |= 1<<bit;
     528:	20 81       	ld	r18, Z
     52a:	00 90 39 01 	lds	r0, 0x0139	; 0x800139 <Pwm_Com0b1>
     52e:	02 c0       	rjmp	.+4      	; 0x534 <EnableOutputSetUntilMatch+0x32>
     530:	88 0f       	add	r24, r24
     532:	99 1f       	adc	r25, r25
     534:	0a 94       	dec	r0
     536:	e2 f7       	brpl	.-8      	; 0x530 <EnableOutputSetUntilMatch+0x2e>
     538:	82 2b       	or	r24, r18
     53a:	80 83       	st	Z, r24
     53c:	08 95       	ret

0000053e <QueueInit>:
    return pq;
}
uint16_t QueueLength(volatile Queue_s * pq)
{ // Return length of Queue
    return pq->length;
}
     53e:	e8 e7       	ldi	r30, 0x78	; 120
     540:	f1 e0       	ldi	r31, 0x01	; 1
     542:	91 83       	std	Z+1, r25	; 0x01
     544:	80 83       	st	Z, r24
     546:	77 83       	std	Z+7, r23	; 0x07
     548:	66 83       	std	Z+6, r22	; 0x06
     54a:	12 82       	std	Z+2, r1	; 0x02
     54c:	13 82       	std	Z+3, r1	; 0x03
     54e:	15 82       	std	Z+5, r1	; 0x05
     550:	14 82       	std	Z+4, r1	; 0x04
     552:	cf 01       	movw	r24, r30
     554:	08 95       	ret

00000556 <QueuePush>:
void QueuePush(volatile Queue_s * pq, uint8_t data)
{ // Push data onto the Queue
     556:	fc 01       	movw	r30, r24
    pq->length--;
    return pq->buffer[pq->tail++];
}
bool QueueIsFull(volatile Queue_s * pq)
{ // Return true if Queue is full
    if (pq->length >= pq->max_length) return true;
     558:	24 81       	ldd	r18, Z+4	; 0x04
     55a:	35 81       	ldd	r19, Z+5	; 0x05
     55c:	86 81       	ldd	r24, Z+6	; 0x06
     55e:	97 81       	ldd	r25, Z+7	; 0x07
     560:	28 17       	cp	r18, r24
     562:	39 07       	cpc	r19, r25
     564:	b8 f4       	brcc	.+46     	; 0x594 <QueuePush+0x3e>
}
void QueuePush(volatile Queue_s * pq, uint8_t data)
{ // Push data onto the Queue
    if (QueueIsFull(pq)) return;
    // wrap head to beginning of buffer when it reaches the end of the buffer
    if (pq->head >= pq->max_length) pq->head = 0;
     566:	82 81       	ldd	r24, Z+2	; 0x02
     568:	26 81       	ldd	r18, Z+6	; 0x06
     56a:	37 81       	ldd	r19, Z+7	; 0x07
     56c:	90 e0       	ldi	r25, 0x00	; 0
     56e:	82 17       	cp	r24, r18
     570:	93 07       	cpc	r25, r19
     572:	08 f0       	brcs	.+2      	; 0x576 <QueuePush+0x20>
     574:	12 82       	std	Z+2, r1	; 0x02
    pq->buffer[pq->head++] = data;
     576:	a0 81       	ld	r26, Z
     578:	b1 81       	ldd	r27, Z+1	; 0x01
     57a:	82 81       	ldd	r24, Z+2	; 0x02
     57c:	91 e0       	ldi	r25, 0x01	; 1
     57e:	98 0f       	add	r25, r24
     580:	92 83       	std	Z+2, r25	; 0x02
     582:	a8 0f       	add	r26, r24
     584:	b1 1d       	adc	r27, r1
     586:	6c 93       	st	X, r22
    pq->length++;
     588:	84 81       	ldd	r24, Z+4	; 0x04
     58a:	95 81       	ldd	r25, Z+5	; 0x05
     58c:	01 96       	adiw	r24, 0x01	; 1
     58e:	95 83       	std	Z+5, r25	; 0x05
     590:	84 83       	std	Z+4, r24	; 0x04
     592:	08 95       	ret
     594:	08 95       	ret

00000596 <QueuePop>:
}
uint8_t QueuePop(volatile Queue_s *pq)
{
     596:	fc 01       	movw	r30, r24
    if (pq->length >= pq->max_length) return true;
    return false;
}
bool QueueIsEmpty(volatile Queue_s * pq)
{ // Return true if Queue is empty
    if (pq->length == 0) return true;
     598:	84 81       	ldd	r24, Z+4	; 0x04
     59a:	95 81       	ldd	r25, Z+5	; 0x05
     59c:	89 2b       	or	r24, r25
     59e:	11 f4       	brne	.+4      	; 0x5a4 <QueuePop+0xe>
    pq->buffer[pq->head++] = data;
    pq->length++;
}
uint8_t QueuePop(volatile Queue_s *pq)
{
    if (QueueIsEmpty(pq)) return 0;
     5a0:	80 e0       	ldi	r24, 0x00	; 0
     5a2:	08 95       	ret
    // wrap tail to beginning of buffer when it reaches the end of the buffer
    if (pq->tail >= pq->max_length) pq->tail = 0;
     5a4:	83 81       	ldd	r24, Z+3	; 0x03
     5a6:	26 81       	ldd	r18, Z+6	; 0x06
     5a8:	37 81       	ldd	r19, Z+7	; 0x07
     5aa:	90 e0       	ldi	r25, 0x00	; 0
     5ac:	82 17       	cp	r24, r18
     5ae:	93 07       	cpc	r25, r19
     5b0:	08 f0       	brcs	.+2      	; 0x5b4 <QueuePop+0x1e>
     5b2:	13 82       	std	Z+3, r1	; 0x03
    pq->length--;
     5b4:	84 81       	ldd	r24, Z+4	; 0x04
     5b6:	95 81       	ldd	r25, Z+5	; 0x05
     5b8:	01 97       	sbiw	r24, 0x01	; 1
     5ba:	95 83       	std	Z+5, r25	; 0x05
     5bc:	84 83       	std	Z+4, r24	; 0x04
    return pq->buffer[pq->tail++];
     5be:	80 81       	ld	r24, Z
     5c0:	91 81       	ldd	r25, Z+1	; 0x01
     5c2:	23 81       	ldd	r18, Z+3	; 0x03
     5c4:	31 e0       	ldi	r19, 0x01	; 1
     5c6:	32 0f       	add	r19, r18
     5c8:	33 83       	std	Z+3, r19	; 0x03
     5ca:	fc 01       	movw	r30, r24
     5cc:	e2 0f       	add	r30, r18
     5ce:	f1 1d       	adc	r31, r1
     5d0:	80 81       	ld	r24, Z
     5d2:	08 95       	ret

000005d4 <QueueIsFull>:
}
bool QueueIsFull(volatile Queue_s * pq)
{ // Return true if Queue is full
    if (pq->length >= pq->max_length) return true;
     5d4:	fc 01       	movw	r30, r24
     5d6:	44 81       	ldd	r20, Z+4	; 0x04
     5d8:	55 81       	ldd	r21, Z+5	; 0x05
     5da:	26 81       	ldd	r18, Z+6	; 0x06
     5dc:	37 81       	ldd	r19, Z+7	; 0x07
     5de:	81 e0       	ldi	r24, 0x01	; 1
     5e0:	42 17       	cp	r20, r18
     5e2:	53 07       	cpc	r21, r19
     5e4:	08 f4       	brcc	.+2      	; 0x5e8 <QueueIsFull+0x14>
     5e6:	80 e0       	ldi	r24, 0x00	; 0
    return false;
}
     5e8:	08 95       	ret

000005ea <QueueIsEmpty>:
bool QueueIsEmpty(volatile Queue_s * pq)
{ // Return true if Queue is empty
    if (pq->length == 0) return true;
     5ea:	fc 01       	movw	r30, r24
     5ec:	24 81       	ldd	r18, Z+4	; 0x04
     5ee:	35 81       	ldd	r19, Z+5	; 0x05
     5f0:	81 e0       	ldi	r24, 0x01	; 1
     5f2:	23 2b       	or	r18, r19
     5f4:	09 f0       	breq	.+2      	; 0x5f8 <QueueIsEmpty+0xe>
     5f6:	80 e0       	ldi	r24, 0x00	; 0
    return false;
}
     5f8:	08 95       	ret

000005fa <NullCommand>:
    if (key < sizeof(pf)/sizeof(*pf)) return pf[key];
    // Out of bounds keys return a NULL pointer.
    else return NULL; // error
    // Up to caller to check for NULL and take appropriate action.
    // Recommended action: call ReplyCommandInvalid().
}
     5fa:	08 95       	ret

000005fc <GetFrame_Implementation>:
     5fc:	0f 93       	push	r16
     5fe:	1f 93       	push	r17
     600:	cf 93       	push	r28
     602:	df 93       	push	r29
     604:	aa 9a       	sbi	0x15, 2	; 21
     606:	aa 9b       	sbis	0x15, 2	; 21
     608:	fe cf       	rjmp	.-4      	; 0x606 <GetFrame_Implementation+0xa>
     60a:	aa 9a       	sbi	0x15, 2	; 21
     60c:	5e 9a       	sbi	0x0b, 6	; 11
     60e:	80 91 82 01 	lds	r24, 0x0182	; 0x800182 <exposure_ticks>
     612:	90 91 83 01 	lds	r25, 0x0183	; 0x800183 <exposure_ticks+0x1>
     616:	89 2b       	or	r24, r25
     618:	91 f0       	breq	.+36     	; 0x63e <GetFrame_Implementation+0x42>
     61a:	81 e0       	ldi	r24, 0x01	; 1
     61c:	90 e0       	ldi	r25, 0x00	; 0
     61e:	aa 9a       	sbi	0x15, 2	; 21
     620:	aa 9b       	sbis	0x15, 2	; 21
     622:	fe cf       	rjmp	.-4      	; 0x620 <GetFrame_Implementation+0x24>
     624:	aa 9a       	sbi	0x15, 2	; 21
     626:	ac 01       	movw	r20, r24
     628:	4f 5f       	subi	r20, 0xFF	; 255
     62a:	5f 4f       	sbci	r21, 0xFF	; 255
     62c:	20 91 82 01 	lds	r18, 0x0182	; 0x800182 <exposure_ticks>
     630:	30 91 83 01 	lds	r19, 0x0183	; 0x800183 <exposure_ticks+0x1>
     634:	82 17       	cp	r24, r18
     636:	93 07       	cpc	r25, r19
     638:	10 f4       	brcc	.+4      	; 0x63e <GetFrame_Implementation+0x42>
     63a:	ca 01       	movw	r24, r20
     63c:	f0 cf       	rjmp	.-32     	; 0x61e <GetFrame_Implementation+0x22>
     63e:	5e 98       	cbi	0x0b, 6	; 11
     640:	80 91 84 01 	lds	r24, 0x0184	; 0x800184 <binning>
     644:	81 30       	cpi	r24, 0x01	; 1
     646:	e9 f1       	breq	.+122    	; 0x6c2 <GetFrame_Implementation+0xc6>
     648:	00 e1       	ldi	r16, 0x10	; 16
     64a:	13 e0       	ldi	r17, 0x03	; 3
     64c:	89 b1       	in	r24, 0x09	; 9
     64e:	90 e0       	ldi	r25, 0x00	; 0
     650:	88 0f       	add	r24, r24
     652:	89 2f       	mov	r24, r25
     654:	88 1f       	adc	r24, r24
     656:	99 0b       	sbc	r25, r25
     658:	89 2b       	or	r24, r25
     65a:	c1 f3       	breq	.-16     	; 0x64c <GetFrame_Implementation+0x50>
     65c:	4f 99       	sbic	0x09, 7	; 9
     65e:	fe cf       	rjmp	.-4      	; 0x65c <GetFrame_Implementation+0x60>
     660:	cc e8       	ldi	r28, 0x8C	; 140
     662:	d1 e0       	ldi	r29, 0x01	; 1
     664:	00 0f       	add	r16, r16
     666:	11 1f       	adc	r17, r17
     668:	04 57       	subi	r16, 0x74	; 116
     66a:	1e 4f       	sbci	r17, 0xFE	; 254
     66c:	a9 9a       	sbi	0x15, 1	; 21
     66e:	a9 9b       	sbis	0x15, 1	; 21
     670:	fe cf       	rjmp	.-4      	; 0x66e <GetFrame_Implementation+0x72>
     672:	a9 9a       	sbi	0x15, 1	; 21
     674:	5a 9a       	sbi	0x0b, 2	; 11
     676:	e0 91 1a 01 	lds	r30, 0x011A	; 0x80011a <Delay3CpuCyclesPerTick>
     67a:	f0 91 1b 01 	lds	r31, 0x011B	; 0x80011b <Delay3CpuCyclesPerTick+0x1>
     67e:	8b e0       	ldi	r24, 0x0B	; 11
     680:	09 95       	icall
     682:	5a 98       	cbi	0x0b, 2	; 11
     684:	80 91 c0 00 	lds	r24, 0x00C0	; 0x8000c0 <__TEXT_REGION_LENGTH__+0x7e00c0>
     688:	85 ff       	sbrs	r24, 5
     68a:	fc cf       	rjmp	.-8      	; 0x684 <GetFrame_Implementation+0x88>
     68c:	10 92 c6 00 	sts	0x00C6, r1	; 0x8000c6 <__TEXT_REGION_LENGTH__+0x7e00c6>
     690:	10 92 c6 00 	sts	0x00C6, r1	; 0x8000c6 <__TEXT_REGION_LENGTH__+0x7e00c6>
     694:	80 91 c0 00 	lds	r24, 0x00C0	; 0x8000c0 <__TEXT_REGION_LENGTH__+0x7e00c0>
     698:	87 ff       	sbrs	r24, 7
     69a:	fc cf       	rjmp	.-8      	; 0x694 <GetFrame_Implementation+0x98>
     69c:	80 91 c6 00 	lds	r24, 0x00C6	; 0x8000c6 <__TEXT_REGION_LENGTH__+0x7e00c6>
     6a0:	88 83       	st	Y, r24
     6a2:	80 91 c0 00 	lds	r24, 0x00C0	; 0x8000c0 <__TEXT_REGION_LENGTH__+0x7e00c0>
     6a6:	87 ff       	sbrs	r24, 7
     6a8:	fc cf       	rjmp	.-8      	; 0x6a2 <GetFrame_Implementation+0xa6>
     6aa:	80 91 c6 00 	lds	r24, 0x00C6	; 0x8000c6 <__TEXT_REGION_LENGTH__+0x7e00c6>
     6ae:	89 83       	std	Y+1, r24	; 0x01
     6b0:	22 96       	adiw	r28, 0x02	; 2
     6b2:	0c 17       	cp	r16, r28
     6b4:	1d 07       	cpc	r17, r29
     6b6:	d1 f6       	brne	.-76     	; 0x66c <GetFrame_Implementation+0x70>
     6b8:	df 91       	pop	r29
     6ba:	cf 91       	pop	r28
     6bc:	1f 91       	pop	r17
     6be:	0f 91       	pop	r16
     6c0:	08 95       	ret
     6c2:	08 e8       	ldi	r16, 0x88	; 136
     6c4:	11 e0       	ldi	r17, 0x01	; 1
     6c6:	c2 cf       	rjmp	.-124    	; 0x64c <GetFrame_Implementation+0x50>

000006c8 <GetSensorConfig>:
     6c8:	cf 93       	push	r28
     6ca:	df 93       	push	r29
     6cc:	00 d0       	rcall	.+0      	; 0x6ce <GetSensorConfig+0x6>
     6ce:	00 d0       	rcall	.+0      	; 0x6d0 <GetSensorConfig+0x8>
     6d0:	cd b7       	in	r28, 0x3d	; 61
     6d2:	de b7       	in	r29, 0x3e	; 62
     6d4:	1c 82       	std	Y+4, r1	; 0x04
     6d6:	e0 91 16 01 	lds	r30, 0x0116	; 0x800116 <WriteSpiMaster>
     6da:	f0 91 17 01 	lds	r31, 0x0117	; 0x800117 <WriteSpiMaster+0x1>
     6de:	61 e0       	ldi	r22, 0x01	; 1
     6e0:	70 e0       	ldi	r23, 0x00	; 0
     6e2:	ce 01       	movw	r24, r28
     6e4:	04 96       	adiw	r24, 0x04	; 4
     6e6:	09 95       	icall
     6e8:	80 91 84 01 	lds	r24, 0x0184	; 0x800184 <binning>
     6ec:	89 83       	std	Y+1, r24	; 0x01
     6ee:	80 91 8b 01 	lds	r24, 0x018B	; 0x80018b <gain>
     6f2:	8a 83       	std	Y+2, r24	; 0x02
     6f4:	80 91 8a 01 	lds	r24, 0x018A	; 0x80018a <active_rows>
     6f8:	8b 83       	std	Y+3, r24	; 0x03
     6fa:	e0 91 16 01 	lds	r30, 0x0116	; 0x800116 <WriteSpiMaster>
     6fe:	f0 91 17 01 	lds	r31, 0x0117	; 0x800117 <WriteSpiMaster+0x1>
     702:	63 e0       	ldi	r22, 0x03	; 3
     704:	70 e0       	ldi	r23, 0x00	; 0
     706:	ce 01       	movw	r24, r28
     708:	01 96       	adiw	r24, 0x01	; 1
     70a:	09 95       	icall
     70c:	0f 90       	pop	r0
     70e:	0f 90       	pop	r0
     710:	0f 90       	pop	r0
     712:	0f 90       	pop	r0
     714:	df 91       	pop	r29
     716:	cf 91       	pop	r28
     718:	08 95       	ret

0000071a <GetExposure>:
     71a:	cf 93       	push	r28
     71c:	df 93       	push	r29
     71e:	00 d0       	rcall	.+0      	; 0x720 <GetExposure+0x6>
     720:	1f 92       	push	r1
     722:	cd b7       	in	r28, 0x3d	; 61
     724:	de b7       	in	r29, 0x3e	; 62
     726:	1b 82       	std	Y+3, r1	; 0x03
     728:	e0 91 16 01 	lds	r30, 0x0116	; 0x800116 <WriteSpiMaster>
     72c:	f0 91 17 01 	lds	r31, 0x0117	; 0x800117 <WriteSpiMaster+0x1>
     730:	61 e0       	ldi	r22, 0x01	; 1
     732:	70 e0       	ldi	r23, 0x00	; 0
     734:	ce 01       	movw	r24, r28
     736:	03 96       	adiw	r24, 0x03	; 3
     738:	09 95       	icall
     73a:	80 91 82 01 	lds	r24, 0x0182	; 0x800182 <exposure_ticks>
     73e:	90 91 83 01 	lds	r25, 0x0183	; 0x800183 <exposure_ticks+0x1>
     742:	99 83       	std	Y+1, r25	; 0x01
     744:	8a 83       	std	Y+2, r24	; 0x02
     746:	e0 91 16 01 	lds	r30, 0x0116	; 0x800116 <WriteSpiMaster>
     74a:	f0 91 17 01 	lds	r31, 0x0117	; 0x800117 <WriteSpiMaster+0x1>
     74e:	62 e0       	ldi	r22, 0x02	; 2
     750:	70 e0       	ldi	r23, 0x00	; 0
     752:	ce 01       	movw	r24, r28
     754:	01 96       	adiw	r24, 0x01	; 1
     756:	09 95       	icall
     758:	0f 90       	pop	r0
     75a:	0f 90       	pop	r0
     75c:	0f 90       	pop	r0
     75e:	df 91       	pop	r29
     760:	cf 91       	pop	r28
     762:	08 95       	ret

00000764 <CaptureFrame>:
     764:	cf 93       	push	r28
     766:	df 93       	push	r29
     768:	00 d0       	rcall	.+0      	; 0x76a <CaptureFrame+0x6>
     76a:	1f 92       	push	r1
     76c:	cd b7       	in	r28, 0x3d	; 61
     76e:	de b7       	in	r29, 0x3e	; 62
     770:	aa 9a       	sbi	0x15, 2	; 21
     772:	1b 82       	std	Y+3, r1	; 0x03
     774:	e0 91 16 01 	lds	r30, 0x0116	; 0x800116 <WriteSpiMaster>
     778:	f0 91 17 01 	lds	r31, 0x0117	; 0x800117 <WriteSpiMaster+0x1>
     77c:	61 e0       	ldi	r22, 0x01	; 1
     77e:	70 e0       	ldi	r23, 0x00	; 0
     780:	ce 01       	movw	r24, r28
     782:	03 96       	adiw	r24, 0x03	; 3
     784:	09 95       	icall
     786:	e0 91 18 01 	lds	r30, 0x0118	; 0x800118 <GetFrame>
     78a:	f0 91 19 01 	lds	r31, 0x0119	; 0x800119 <GetFrame+0x1>
     78e:	09 95       	icall
     790:	80 91 84 01 	lds	r24, 0x0184	; 0x800184 <binning>
     794:	81 30       	cpi	r24, 0x01	; 1
     796:	49 f1       	breq	.+82     	; 0x7ea <CaptureFrame+0x86>
     798:	90 e1       	ldi	r25, 0x10	; 16
     79a:	83 e0       	ldi	r24, 0x03	; 3
     79c:	89 83       	std	Y+1, r24	; 0x01
     79e:	9a 83       	std	Y+2, r25	; 0x02
     7a0:	e0 91 16 01 	lds	r30, 0x0116	; 0x800116 <WriteSpiMaster>
     7a4:	f0 91 17 01 	lds	r31, 0x0117	; 0x800117 <WriteSpiMaster+0x1>
     7a8:	62 e0       	ldi	r22, 0x02	; 2
     7aa:	70 e0       	ldi	r23, 0x00	; 0
     7ac:	ce 01       	movw	r24, r28
     7ae:	01 96       	adiw	r24, 0x01	; 1
     7b0:	09 95       	icall
     7b2:	e0 91 16 01 	lds	r30, 0x0116	; 0x800116 <WriteSpiMaster>
     7b6:	f0 91 17 01 	lds	r31, 0x0117	; 0x800117 <WriteSpiMaster+0x1>
     7ba:	61 e0       	ldi	r22, 0x01	; 1
     7bc:	70 e0       	ldi	r23, 0x00	; 0
     7be:	ce 01       	movw	r24, r28
     7c0:	03 96       	adiw	r24, 0x03	; 3
     7c2:	09 95       	icall
     7c4:	80 91 84 01 	lds	r24, 0x0184	; 0x800184 <binning>
     7c8:	81 30       	cpi	r24, 0x01	; 1
     7ca:	89 f0       	breq	.+34     	; 0x7ee <CaptureFrame+0x8a>
     7cc:	60 e2       	ldi	r22, 0x20	; 32
     7ce:	76 e0       	ldi	r23, 0x06	; 6
     7d0:	e0 91 16 01 	lds	r30, 0x0116	; 0x800116 <WriteSpiMaster>
     7d4:	f0 91 17 01 	lds	r31, 0x0117	; 0x800117 <WriteSpiMaster+0x1>
     7d8:	8c e8       	ldi	r24, 0x8C	; 140
     7da:	91 e0       	ldi	r25, 0x01	; 1
     7dc:	09 95       	icall
     7de:	0f 90       	pop	r0
     7e0:	0f 90       	pop	r0
     7e2:	0f 90       	pop	r0
     7e4:	df 91       	pop	r29
     7e6:	cf 91       	pop	r28
     7e8:	08 95       	ret
     7ea:	98 e8       	ldi	r25, 0x88	; 136
     7ec:	d7 cf       	rjmp	.-82     	; 0x79c <CaptureFrame+0x38>
     7ee:	60 e1       	ldi	r22, 0x10	; 16
     7f0:	73 e0       	ldi	r23, 0x03	; 3
     7f2:	ee cf       	rjmp	.-36     	; 0x7d0 <CaptureFrame+0x6c>

000007f4 <WriteSpiMaster_Implementation>:
     7f4:	ef 92       	push	r14
     7f6:	ff 92       	push	r15
     7f8:	0f 93       	push	r16
     7fa:	1f 93       	push	r17
     7fc:	cf 93       	push	r28
     7fe:	df 93       	push	r29
     800:	7b 01       	movw	r14, r22
     802:	61 15       	cp	r22, r1
     804:	71 05       	cpc	r23, r1
     806:	c9 f0       	breq	.+50     	; 0x83a <WriteSpiMaster_Implementation+0x46>
     808:	ec 01       	movw	r28, r24
     80a:	8c 01       	movw	r16, r24
     80c:	06 0f       	add	r16, r22
     80e:	17 1f       	adc	r17, r23
     810:	89 91       	ld	r24, Y+
     812:	8e bd       	out	0x2e, r24	; 46
     814:	29 98       	cbi	0x05, 1	; 5
     816:	80 91 80 01 	lds	r24, 0x0180	; 0x800180 <SpiFifo>
     81a:	90 91 81 01 	lds	r25, 0x0181	; 0x800181 <SpiFifo+0x1>
     81e:	0e 94 f5 02 	call	0x5ea	; 0x5ea <QueueIsEmpty>
     822:	81 11       	cpse	r24, r1
     824:	f8 cf       	rjmp	.-16     	; 0x816 <WriteSpiMaster_Implementation+0x22>
     826:	80 91 80 01 	lds	r24, 0x0180	; 0x800180 <SpiFifo>
     82a:	90 91 81 01 	lds	r25, 0x0181	; 0x800181 <SpiFifo+0x1>
     82e:	0e 94 cb 02 	call	0x596	; 0x596 <QueuePop>
     832:	29 9a       	sbi	0x05, 1	; 5
     834:	c0 17       	cp	r28, r16
     836:	d1 07       	cpc	r29, r17
     838:	59 f7       	brne	.-42     	; 0x810 <WriteSpiMaster_Implementation+0x1c>
     83a:	c7 01       	movw	r24, r14
     83c:	df 91       	pop	r29
     83e:	cf 91       	pop	r28
     840:	1f 91       	pop	r17
     842:	0f 91       	pop	r16
     844:	ff 90       	pop	r15
     846:	ef 90       	pop	r14
     848:	08 95       	ret

0000084a <GetSensorLED>:
     84a:	cf 93       	push	r28
     84c:	df 93       	push	r29
     84e:	00 d0       	rcall	.+0      	; 0x850 <GetSensorLED+0x6>
     850:	cd b7       	in	r28, 0x3d	; 61
     852:	de b7       	in	r29, 0x3e	; 62
     854:	80 91 80 01 	lds	r24, 0x0180	; 0x800180 <SpiFifo>
     858:	90 91 81 01 	lds	r25, 0x0181	; 0x800181 <SpiFifo+0x1>
     85c:	0e 94 f5 02 	call	0x5ea	; 0x5ea <QueueIsEmpty>
     860:	81 11       	cpse	r24, r1
     862:	f8 cf       	rjmp	.-16     	; 0x854 <GetSensorLED+0xa>
     864:	80 91 80 01 	lds	r24, 0x0180	; 0x800180 <SpiFifo>
     868:	90 91 81 01 	lds	r25, 0x0181	; 0x800181 <SpiFifo+0x1>
     86c:	0e 94 cb 02 	call	0x596	; 0x596 <QueuePop>
     870:	82 30       	cpi	r24, 0x02	; 2
     872:	98 f5       	brcc	.+102    	; 0x8da <GetSensorLED+0x90>
     874:	27 b1       	in	r18, 0x07	; 7
     876:	30 e0       	ldi	r19, 0x00	; 0
     878:	08 2e       	mov	r0, r24
     87a:	02 c0       	rjmp	.+4      	; 0x880 <GetSensorLED+0x36>
     87c:	35 95       	asr	r19
     87e:	27 95       	ror	r18
     880:	0a 94       	dec	r0
     882:	e2 f7       	brpl	.-8      	; 0x87c <GetSensorLED+0x32>
     884:	20 fd       	sbrc	r18, 0
     886:	11 c0       	rjmp	.+34     	; 0x8aa <GetSensorLED+0x60>
     888:	80 e0       	ldi	r24, 0x00	; 0
     88a:	19 82       	std	Y+1, r1	; 0x01
     88c:	8a 83       	std	Y+2, r24	; 0x02
     88e:	e0 91 16 01 	lds	r30, 0x0116	; 0x800116 <WriteSpiMaster>
     892:	f0 91 17 01 	lds	r31, 0x0117	; 0x800117 <WriteSpiMaster+0x1>
     896:	62 e0       	ldi	r22, 0x02	; 2
     898:	70 e0       	ldi	r23, 0x00	; 0
     89a:	ce 01       	movw	r24, r28
     89c:	01 96       	adiw	r24, 0x01	; 1
     89e:	09 95       	icall
     8a0:	0f 90       	pop	r0
     8a2:	0f 90       	pop	r0
     8a4:	df 91       	pop	r29
     8a6:	cf 91       	pop	r28
     8a8:	08 95       	ret
     8aa:	27 b1       	in	r18, 0x07	; 7
     8ac:	30 e0       	ldi	r19, 0x00	; 0
     8ae:	08 2e       	mov	r0, r24
     8b0:	02 c0       	rjmp	.+4      	; 0x8b6 <GetSensorLED+0x6c>
     8b2:	35 95       	asr	r19
     8b4:	27 95       	ror	r18
     8b6:	0a 94       	dec	r0
     8b8:	e2 f7       	brpl	.-8      	; 0x8b2 <GetSensorLED+0x68>
     8ba:	20 ff       	sbrs	r18, 0
     8bc:	0c c0       	rjmp	.+24     	; 0x8d6 <GetSensorLED+0x8c>
     8be:	28 b1       	in	r18, 0x08	; 8
     8c0:	30 e0       	ldi	r19, 0x00	; 0
     8c2:	a9 01       	movw	r20, r18
     8c4:	02 c0       	rjmp	.+4      	; 0x8ca <GetSensorLED+0x80>
     8c6:	55 95       	asr	r21
     8c8:	47 95       	ror	r20
     8ca:	8a 95       	dec	r24
     8cc:	e2 f7       	brpl	.-8      	; 0x8c6 <GetSensorLED+0x7c>
     8ce:	40 ff       	sbrs	r20, 0
     8d0:	02 c0       	rjmp	.+4      	; 0x8d6 <GetSensorLED+0x8c>
     8d2:	82 e0       	ldi	r24, 0x02	; 2
     8d4:	da cf       	rjmp	.-76     	; 0x88a <GetSensorLED+0x40>
     8d6:	81 e0       	ldi	r24, 0x01	; 1
     8d8:	d8 cf       	rjmp	.-80     	; 0x88a <GetSensorLED+0x40>
     8da:	81 e0       	ldi	r24, 0x01	; 1
     8dc:	89 83       	std	Y+1, r24	; 0x01
     8de:	e0 91 16 01 	lds	r30, 0x0116	; 0x800116 <WriteSpiMaster>
     8e2:	f0 91 17 01 	lds	r31, 0x0117	; 0x800117 <WriteSpiMaster+0x1>
     8e6:	61 e0       	ldi	r22, 0x01	; 1
     8e8:	70 e0       	ldi	r23, 0x00	; 0
     8ea:	ce 01       	movw	r24, r28
     8ec:	01 96       	adiw	r24, 0x01	; 1
     8ee:	09 95       	icall
     8f0:	0f 90       	pop	r0
     8f2:	0f 90       	pop	r0
     8f4:	df 91       	pop	r29
     8f6:	cf 91       	pop	r28
     8f8:	08 95       	ret

000008fa <SetSensorLED>:
     8fa:	1f 93       	push	r17
     8fc:	cf 93       	push	r28
     8fe:	df 93       	push	r29
     900:	1f 92       	push	r1
     902:	cd b7       	in	r28, 0x3d	; 61
     904:	de b7       	in	r29, 0x3e	; 62
     906:	80 91 80 01 	lds	r24, 0x0180	; 0x800180 <SpiFifo>
     90a:	90 91 81 01 	lds	r25, 0x0181	; 0x800181 <SpiFifo+0x1>
     90e:	0e 94 f5 02 	call	0x5ea	; 0x5ea <QueueIsEmpty>
     912:	81 11       	cpse	r24, r1
     914:	f8 cf       	rjmp	.-16     	; 0x906 <__stack+0x7>
     916:	80 91 80 01 	lds	r24, 0x0180	; 0x800180 <SpiFifo>
     91a:	90 91 81 01 	lds	r25, 0x0181	; 0x800181 <SpiFifo+0x1>
     91e:	0e 94 cb 02 	call	0x596	; 0x596 <QueuePop>
     922:	18 2f       	mov	r17, r24
     924:	80 91 80 01 	lds	r24, 0x0180	; 0x800180 <SpiFifo>
     928:	90 91 81 01 	lds	r25, 0x0181	; 0x800181 <SpiFifo+0x1>
     92c:	0e 94 f5 02 	call	0x5ea	; 0x5ea <QueueIsEmpty>
     930:	81 11       	cpse	r24, r1
     932:	f8 cf       	rjmp	.-16     	; 0x924 <__stack+0x25>
     934:	80 91 80 01 	lds	r24, 0x0180	; 0x800180 <SpiFifo>
     938:	90 91 81 01 	lds	r25, 0x0181	; 0x800181 <SpiFifo+0x1>
     93c:	0e 94 cb 02 	call	0x596	; 0x596 <QueuePop>
     940:	12 30       	cpi	r17, 0x02	; 2
     942:	30 f4       	brcc	.+12     	; 0x950 <__stack+0x51>
     944:	88 23       	and	r24, r24
     946:	a1 f0       	breq	.+40     	; 0x970 <__stack+0x71>
     948:	81 30       	cpi	r24, 0x01	; 1
     94a:	89 f1       	breq	.+98     	; 0x9ae <__stack+0xaf>
     94c:	82 30       	cpi	r24, 0x02	; 2
     94e:	01 f1       	breq	.+64     	; 0x990 <__stack+0x91>
     950:	81 e0       	ldi	r24, 0x01	; 1
     952:	89 83       	std	Y+1, r24	; 0x01
     954:	e0 91 16 01 	lds	r30, 0x0116	; 0x800116 <WriteSpiMaster>
     958:	f0 91 17 01 	lds	r31, 0x0117	; 0x800117 <WriteSpiMaster+0x1>
     95c:	61 e0       	ldi	r22, 0x01	; 1
     95e:	70 e0       	ldi	r23, 0x00	; 0
     960:	ce 01       	movw	r24, r28
     962:	01 96       	adiw	r24, 0x01	; 1
     964:	09 95       	icall
     966:	0f 90       	pop	r0
     968:	df 91       	pop	r29
     96a:	cf 91       	pop	r28
     96c:	1f 91       	pop	r17
     96e:	08 95       	ret
     970:	27 b1       	in	r18, 0x07	; 7
     972:	81 e0       	ldi	r24, 0x01	; 1
     974:	90 e0       	ldi	r25, 0x00	; 0
     976:	01 c0       	rjmp	.+2      	; 0x97a <__stack+0x7b>
     978:	88 0f       	add	r24, r24
     97a:	1a 95       	dec	r17
     97c:	ea f7       	brpl	.-6      	; 0x978 <__stack+0x79>
     97e:	80 95       	com	r24
     980:	92 2f       	mov	r25, r18
     982:	98 23       	and	r25, r24
     984:	97 b9       	out	0x07, r25	; 7
     986:	98 b1       	in	r25, 0x08	; 8
     988:	89 23       	and	r24, r25
     98a:	88 b9       	out	0x08, r24	; 8
     98c:	19 82       	std	Y+1, r1	; 0x01
     98e:	e2 cf       	rjmp	.-60     	; 0x954 <__stack+0x55>
     990:	28 b1       	in	r18, 0x08	; 8
     992:	81 e0       	ldi	r24, 0x01	; 1
     994:	90 e0       	ldi	r25, 0x00	; 0
     996:	01 c0       	rjmp	.+2      	; 0x99a <__stack+0x9b>
     998:	88 0f       	add	r24, r24
     99a:	1a 95       	dec	r17
     99c:	ea f7       	brpl	.-6      	; 0x998 <__stack+0x99>
     99e:	92 2f       	mov	r25, r18
     9a0:	98 2b       	or	r25, r24
     9a2:	98 b9       	out	0x08, r25	; 8
     9a4:	97 b1       	in	r25, 0x07	; 7
     9a6:	89 2b       	or	r24, r25
     9a8:	87 b9       	out	0x07, r24	; 7
     9aa:	19 82       	std	Y+1, r1	; 0x01
     9ac:	d3 cf       	rjmp	.-90     	; 0x954 <__stack+0x55>
     9ae:	28 b1       	in	r18, 0x08	; 8
     9b0:	81 e0       	ldi	r24, 0x01	; 1
     9b2:	90 e0       	ldi	r25, 0x00	; 0
     9b4:	01 c0       	rjmp	.+2      	; 0x9b8 <__stack+0xb9>
     9b6:	88 0f       	add	r24, r24
     9b8:	1a 95       	dec	r17
     9ba:	ea f7       	brpl	.-6      	; 0x9b6 <__stack+0xb7>
     9bc:	98 2f       	mov	r25, r24
     9be:	90 95       	com	r25
     9c0:	92 23       	and	r25, r18
     9c2:	ef cf       	rjmp	.-34     	; 0x9a2 <__stack+0xa3>

000009c4 <SetSensorConfig>:
     9c4:	2f 92       	push	r2
     9c6:	3f 92       	push	r3
     9c8:	4f 92       	push	r4
     9ca:	5f 92       	push	r5
     9cc:	6f 92       	push	r6
     9ce:	7f 92       	push	r7
     9d0:	8f 92       	push	r8
     9d2:	9f 92       	push	r9
     9d4:	af 92       	push	r10
     9d6:	bf 92       	push	r11
     9d8:	cf 92       	push	r12
     9da:	df 92       	push	r13
     9dc:	ef 92       	push	r14
     9de:	ff 92       	push	r15
     9e0:	0f 93       	push	r16
     9e2:	1f 93       	push	r17
     9e4:	cf 93       	push	r28
     9e6:	df 93       	push	r29
     9e8:	cd b7       	in	r28, 0x3d	; 61
     9ea:	de b7       	in	r29, 0x3e	; 62
     9ec:	c6 5e       	subi	r28, 0xE6	; 230
     9ee:	d1 40       	sbci	r29, 0x01	; 1
     9f0:	0f b6       	in	r0, 0x3f	; 63
     9f2:	f8 94       	cli
     9f4:	de bf       	out	0x3e, r29	; 62
     9f6:	0f be       	out	0x3f, r0	; 63
     9f8:	cd bf       	out	0x3d, r28	; 61
     9fa:	80 91 80 01 	lds	r24, 0x0180	; 0x800180 <SpiFifo>
     9fe:	90 91 81 01 	lds	r25, 0x0181	; 0x800181 <SpiFifo+0x1>
     a02:	0e 94 f5 02 	call	0x5ea	; 0x5ea <QueueIsEmpty>
     a06:	81 11       	cpse	r24, r1
     a08:	f8 cf       	rjmp	.-16     	; 0x9fa <SetSensorConfig+0x36>
     a0a:	80 91 80 01 	lds	r24, 0x0180	; 0x800180 <SpiFifo>
     a0e:	90 91 81 01 	lds	r25, 0x0181	; 0x800181 <SpiFifo+0x1>
     a12:	0e 94 cb 02 	call	0x596	; 0x596 <QueuePop>
     a16:	80 93 84 01 	sts	0x0184, r24	; 0x800184 <binning>
     a1a:	80 91 80 01 	lds	r24, 0x0180	; 0x800180 <SpiFifo>
     a1e:	90 91 81 01 	lds	r25, 0x0181	; 0x800181 <SpiFifo+0x1>
     a22:	0e 94 f5 02 	call	0x5ea	; 0x5ea <QueueIsEmpty>
     a26:	81 11       	cpse	r24, r1
     a28:	f8 cf       	rjmp	.-16     	; 0xa1a <SetSensorConfig+0x56>
     a2a:	80 91 80 01 	lds	r24, 0x0180	; 0x800180 <SpiFifo>
     a2e:	90 91 81 01 	lds	r25, 0x0181	; 0x800181 <SpiFifo+0x1>
     a32:	0e 94 cb 02 	call	0x596	; 0x596 <QueuePop>
     a36:	80 93 8b 01 	sts	0x018B, r24	; 0x80018b <gain>
     a3a:	80 91 80 01 	lds	r24, 0x0180	; 0x800180 <SpiFifo>
     a3e:	90 91 81 01 	lds	r25, 0x0181	; 0x800181 <SpiFifo+0x1>
     a42:	0e 94 f5 02 	call	0x5ea	; 0x5ea <QueueIsEmpty>
     a46:	81 11       	cpse	r24, r1
     a48:	f8 cf       	rjmp	.-16     	; 0xa3a <SetSensorConfig+0x76>
     a4a:	80 91 80 01 	lds	r24, 0x0180	; 0x800180 <SpiFifo>
     a4e:	90 91 81 01 	lds	r25, 0x0181	; 0x800181 <SpiFifo+0x1>
     a52:	0e 94 cb 02 	call	0x596	; 0x596 <QueuePop>
     a56:	80 93 8a 01 	sts	0x018A, r24	; 0x80018a <active_rows>
     a5a:	90 91 84 01 	lds	r25, 0x0184	; 0x800184 <binning>
     a5e:	92 30       	cpi	r25, 0x02	; 2
     a60:	48 f4       	brcc	.+18     	; 0xa74 <SetSensorConfig+0xb0>
     a62:	90 91 8b 01 	lds	r25, 0x018B	; 0x80018b <gain>
     a66:	91 30       	cpi	r25, 0x01	; 1
     a68:	51 f1       	breq	.+84     	; 0xabe <SetSensorConfig+0xfa>
     a6a:	95 32       	cpi	r25, 0x25	; 37
     a6c:	41 f1       	breq	.+80     	; 0xabe <SetSensorConfig+0xfa>
     a6e:	94 50       	subi	r25, 0x04	; 4
     a70:	92 30       	cpi	r25, 0x02	; 2
     a72:	28 f1       	brcs	.+74     	; 0xabe <SetSensorConfig+0xfa>
     a74:	81 e0       	ldi	r24, 0x01	; 1
     a76:	89 83       	std	Y+1, r24	; 0x01
     a78:	e0 91 16 01 	lds	r30, 0x0116	; 0x800116 <WriteSpiMaster>
     a7c:	f0 91 17 01 	lds	r31, 0x0117	; 0x800117 <WriteSpiMaster+0x1>
     a80:	61 e0       	ldi	r22, 0x01	; 1
     a82:	70 e0       	ldi	r23, 0x00	; 0
     a84:	ce 01       	movw	r24, r28
     a86:	01 96       	adiw	r24, 0x01	; 1
     a88:	09 95       	icall
     a8a:	ca 51       	subi	r28, 0x1A	; 26
     a8c:	de 4f       	sbci	r29, 0xFE	; 254
     a8e:	0f b6       	in	r0, 0x3f	; 63
     a90:	f8 94       	cli
     a92:	de bf       	out	0x3e, r29	; 62
     a94:	0f be       	out	0x3f, r0	; 63
     a96:	cd bf       	out	0x3d, r28	; 61
     a98:	df 91       	pop	r29
     a9a:	cf 91       	pop	r28
     a9c:	1f 91       	pop	r17
     a9e:	0f 91       	pop	r16
     aa0:	ff 90       	pop	r15
     aa2:	ef 90       	pop	r14
     aa4:	df 90       	pop	r13
     aa6:	cf 90       	pop	r12
     aa8:	bf 90       	pop	r11
     aaa:	af 90       	pop	r10
     aac:	9f 90       	pop	r9
     aae:	8f 90       	pop	r8
     ab0:	7f 90       	pop	r7
     ab2:	6f 90       	pop	r6
     ab4:	5f 90       	pop	r5
     ab6:	4f 90       	pop	r4
     ab8:	3f 90       	pop	r3
     aba:	2f 90       	pop	r2
     abc:	08 95       	ret
     abe:	80 7e       	andi	r24, 0xE0	; 224
     ac0:	c9 f6       	brne	.-78     	; 0xa74 <SetSensorConfig+0xb0>
     ac2:	19 82       	std	Y+1, r1	; 0x01
     ac4:	e0 91 16 01 	lds	r30, 0x0116	; 0x800116 <WriteSpiMaster>
     ac8:	f0 91 17 01 	lds	r31, 0x0117	; 0x800117 <WriteSpiMaster+0x1>
     acc:	61 e0       	ldi	r22, 0x01	; 1
     ace:	70 e0       	ldi	r23, 0x00	; 0
     ad0:	ce 01       	movw	r24, r28
     ad2:	01 96       	adiw	r24, 0x01	; 1
     ad4:	09 95       	icall
     ad6:	80 91 84 01 	lds	r24, 0x0184	; 0x800184 <binning>
     ada:	81 30       	cpi	r24, 0x01	; 1
     adc:	11 f4       	brne	.+4      	; 0xae2 <SetSensorConfig+0x11e>
     ade:	0c 94 7a 13 	jmp	0x26f4	; 0x26f4 <SetSensorConfig+0x1d30>
     ae2:	42 e8       	ldi	r20, 0x82	; 130
     ae4:	30 e1       	ldi	r19, 0x10	; 16
     ae6:	82 e4       	ldi	r24, 0x42	; 66
     ae8:	98 e0       	ldi	r25, 0x08	; 8
     aea:	62 ec       	ldi	r22, 0xC2	; 194
     aec:	78 e1       	ldi	r23, 0x18	; 24
     aee:	03 e6       	ldi	r16, 0x63	; 99
     af0:	b0 2e       	mov	r11, r16
     af2:	2c e0       	ldi	r18, 0x0C	; 12
     af4:	c2 2e       	mov	r12, r18
     af6:	22 e4       	ldi	r18, 0x42	; 66
     af8:	2f 83       	std	Y+7, r18	; 0x07
     afa:	58 e0       	ldi	r21, 0x08	; 8
     afc:	58 87       	std	Y+8, r21	; 0x08
     afe:	f1 e2       	ldi	r31, 0x21	; 33
     b00:	f9 87       	std	Y+9, r31	; 0x09
     b02:	24 e0       	ldi	r18, 0x04	; 4
     b04:	2a 87       	std	Y+10, r18	; 0x0a
     b06:	52 ea       	ldi	r21, 0xA2	; 162
     b08:	25 2e       	mov	r2, r21
     b0a:	e4 e9       	ldi	r30, 0x94	; 148
     b0c:	3e 2e       	mov	r3, r30
     b0e:	f2 e5       	ldi	r31, 0x52	; 82
     b10:	4f 2e       	mov	r4, r31
     b12:	aa e0       	ldi	r26, 0x0A	; 10
     b14:	5a 2e       	mov	r5, r26
     b16:	b2 ee       	ldi	r27, 0xE2	; 226
     b18:	6b 2e       	mov	r6, r27
     b1a:	1c e9       	ldi	r17, 0x9C	; 156
     b1c:	71 2e       	mov	r7, r17
     b1e:	03 e7       	ldi	r16, 0x73	; 115
     b20:	80 2e       	mov	r8, r16
     b22:	2e e0       	ldi	r18, 0x0E	; 14
     b24:	92 2e       	mov	r9, r18
     b26:	e2 e6       	ldi	r30, 0x62	; 98
     b28:	5c e8       	ldi	r21, 0x8C	; 140
     b2a:	f1 e3       	ldi	r31, 0x31	; 49
     b2c:	af 2e       	mov	r10, r31
     b2e:	f6 e0       	ldi	r31, 0x06	; 6
     b30:	fe 83       	std	Y+6, r31	; 0x06
     b32:	22 e2       	ldi	r18, 0x22	; 34
     b34:	2f a3       	std	Y+39, r18	; 0x27
     b36:	f4 e8       	ldi	r31, 0x84	; 132
     b38:	f8 a7       	std	Y+40, r31	; 0x28
     b3a:	20 e1       	ldi	r18, 0x10	; 16
     b3c:	29 a7       	std	Y+41, r18	; 0x29
     b3e:	f2 e0       	ldi	r31, 0x02	; 2
     b40:	fa a7       	std	Y+42, r31	; 0x2a
     b42:	02 e9       	ldi	r16, 0x92	; 146
     b44:	a2 e5       	ldi	r26, 0x52	; 82
     b46:	fa 2e       	mov	r15, r26
     b48:	ba e4       	ldi	r27, 0x4A	; 74
     b4a:	eb 2e       	mov	r14, r27
     b4c:	19 e0       	ldi	r17, 0x09	; 9
     b4e:	d1 2e       	mov	r13, r17
     b50:	22 ed       	ldi	r18, 0xD2	; 210
     b52:	2b a3       	std	Y+35, r18	; 0x23
     b54:	fa e5       	ldi	r31, 0x5A	; 90
     b56:	fc a3       	std	Y+36, r31	; 0x24
     b58:	2b e6       	ldi	r18, 0x6B	; 107
     b5a:	2d a3       	std	Y+37, r18	; 0x25
     b5c:	fd e0       	ldi	r31, 0x0D	; 13
     b5e:	fe a3       	std	Y+38, r31	; 0x26
     b60:	22 e5       	ldi	r18, 0x52	; 82
     b62:	2f 8f       	std	Y+31, r18	; 0x1f
     b64:	fa e4       	ldi	r31, 0x4A	; 74
     b66:	f8 a3       	std	Y+32, r31	; 0x20
     b68:	29 e2       	ldi	r18, 0x29	; 41
     b6a:	29 a3       	std	Y+33, r18	; 0x21
     b6c:	f5 e0       	ldi	r31, 0x05	; 5
     b6e:	fa a3       	std	Y+34, r31	; 0x22
     b70:	22 eb       	ldi	r18, 0xB2	; 178
     b72:	2b 8f       	std	Y+27, r18	; 0x1b
     b74:	f6 ed       	ldi	r31, 0xD6	; 214
     b76:	fc 8f       	std	Y+28, r31	; 0x1c
     b78:	2a e5       	ldi	r18, 0x5A	; 90
     b7a:	2d 8f       	std	Y+29, r18	; 0x1d
     b7c:	fb e0       	ldi	r31, 0x0B	; 11
     b7e:	fe 8f       	std	Y+30, r31	; 0x1e
     b80:	22 ef       	ldi	r18, 0xF2	; 242
     b82:	2f 8b       	std	Y+23, r18	; 0x17
     b84:	fe ed       	ldi	r31, 0xDE	; 222
     b86:	f8 8f       	std	Y+24, r31	; 0x18
     b88:	2b e7       	ldi	r18, 0x7B	; 123
     b8a:	29 8f       	std	Y+25, r18	; 0x19
     b8c:	ff e0       	ldi	r31, 0x0F	; 15
     b8e:	fa 8f       	std	Y+26, r31	; 0x1a
     b90:	22 e7       	ldi	r18, 0x72	; 114
     b92:	2b 8b       	std	Y+19, r18	; 0x13
     b94:	fe ec       	ldi	r31, 0xCE	; 206
     b96:	fc 8b       	std	Y+20, r31	; 0x14
     b98:	29 e3       	ldi	r18, 0x39	; 57
     b9a:	2d 8b       	std	Y+21, r18	; 0x15
     b9c:	f7 e0       	ldi	r31, 0x07	; 7
     b9e:	fe 8b       	std	Y+22, r31	; 0x16
     ba0:	22 e3       	ldi	r18, 0x32	; 50
     ba2:	2f 87       	std	Y+15, r18	; 0x0f
     ba4:	f6 ec       	ldi	r31, 0xC6	; 198
     ba6:	f8 8b       	std	Y+16, r31	; 0x10
     ba8:	28 e1       	ldi	r18, 0x18	; 24
     baa:	29 8b       	std	Y+17, r18	; 0x11
     bac:	f3 e0       	ldi	r31, 0x03	; 3
     bae:	fa 8b       	std	Y+18, r31	; 0x12
     bb0:	22 e1       	ldi	r18, 0x12	; 18
     bb2:	2a 83       	std	Y+2, r18	; 0x02
     bb4:	f2 e4       	ldi	r31, 0x42	; 66
     bb6:	fb 83       	std	Y+3, r31	; 0x03
     bb8:	28 e0       	ldi	r18, 0x08	; 8
     bba:	2c 83       	std	Y+4, r18	; 0x04
     bbc:	f1 e0       	ldi	r31, 0x01	; 1
     bbe:	fd 83       	std	Y+5, r31	; 0x05
     bc0:	2a e8       	ldi	r18, 0x8A	; 138
     bc2:	a4 96       	adiw	r28, 0x24	; 36
     bc4:	2f af       	std	Y+63, r18	; 0x3f
     bc6:	a4 97       	sbiw	r28, 0x24	; 36
     bc8:	f1 e3       	ldi	r31, 0x31	; 49
     bca:	a5 96       	adiw	r28, 0x25	; 37
     bcc:	ff af       	std	Y+63, r31	; 0x3f
     bce:	a5 97       	sbiw	r28, 0x25	; 37
     bd0:	26 ec       	ldi	r18, 0xC6	; 198
     bd2:	a6 96       	adiw	r28, 0x26	; 38
     bd4:	2f af       	std	Y+63, r18	; 0x3f
     bd6:	a6 97       	sbiw	r28, 0x26	; 38
     bd8:	f8 e0       	ldi	r31, 0x08	; 8
     bda:	a7 96       	adiw	r28, 0x27	; 39
     bdc:	ff af       	std	Y+63, r31	; 0x3f
     bde:	a7 97       	sbiw	r28, 0x27	; 39
     be0:	2a ec       	ldi	r18, 0xCA	; 202
     be2:	a0 96       	adiw	r28, 0x20	; 32
     be4:	2f af       	std	Y+63, r18	; 0x3f
     be6:	a0 97       	sbiw	r28, 0x20	; 32
     be8:	f9 e3       	ldi	r31, 0x39	; 57
     bea:	a1 96       	adiw	r28, 0x21	; 33
     bec:	ff af       	std	Y+63, r31	; 0x3f
     bee:	a1 97       	sbiw	r28, 0x21	; 33
     bf0:	27 ee       	ldi	r18, 0xE7	; 231
     bf2:	a2 96       	adiw	r28, 0x22	; 34
     bf4:	2f af       	std	Y+63, r18	; 0x3f
     bf6:	a2 97       	sbiw	r28, 0x22	; 34
     bf8:	fc e0       	ldi	r31, 0x0C	; 12
     bfa:	a3 96       	adiw	r28, 0x23	; 35
     bfc:	ff af       	std	Y+63, r31	; 0x3f
     bfe:	a3 97       	sbiw	r28, 0x23	; 35
     c00:	2a e4       	ldi	r18, 0x4A	; 74
     c02:	6c 96       	adiw	r28, 0x1c	; 28
     c04:	2f af       	std	Y+63, r18	; 0x3f
     c06:	6c 97       	sbiw	r28, 0x1c	; 28
     c08:	f9 e2       	ldi	r31, 0x29	; 41
     c0a:	6d 96       	adiw	r28, 0x1d	; 29
     c0c:	ff af       	std	Y+63, r31	; 0x3f
     c0e:	6d 97       	sbiw	r28, 0x1d	; 29
     c10:	25 ea       	ldi	r18, 0xA5	; 165
     c12:	6e 96       	adiw	r28, 0x1e	; 30
     c14:	2f af       	std	Y+63, r18	; 0x3f
     c16:	6e 97       	sbiw	r28, 0x1e	; 30
     c18:	f4 e0       	ldi	r31, 0x04	; 4
     c1a:	6f 96       	adiw	r28, 0x1f	; 31
     c1c:	ff af       	std	Y+63, r31	; 0x3f
     c1e:	6f 97       	sbiw	r28, 0x1f	; 31
     c20:	2a ea       	ldi	r18, 0xAA	; 170
     c22:	68 96       	adiw	r28, 0x18	; 24
     c24:	2f af       	std	Y+63, r18	; 0x3f
     c26:	68 97       	sbiw	r28, 0x18	; 24
     c28:	f5 eb       	ldi	r31, 0xB5	; 181
     c2a:	69 96       	adiw	r28, 0x19	; 25
     c2c:	ff af       	std	Y+63, r31	; 0x3f
     c2e:	69 97       	sbiw	r28, 0x19	; 25
     c30:	26 ed       	ldi	r18, 0xD6	; 214
     c32:	6a 96       	adiw	r28, 0x1a	; 26
     c34:	2f af       	std	Y+63, r18	; 0x3f
     c36:	6a 97       	sbiw	r28, 0x1a	; 26
     c38:	fa e0       	ldi	r31, 0x0A	; 10
     c3a:	6b 96       	adiw	r28, 0x1b	; 27
     c3c:	ff af       	std	Y+63, r31	; 0x3f
     c3e:	6b 97       	sbiw	r28, 0x1b	; 27
     c40:	2a ee       	ldi	r18, 0xEA	; 234
     c42:	64 96       	adiw	r28, 0x14	; 20
     c44:	2f af       	std	Y+63, r18	; 0x3f
     c46:	64 97       	sbiw	r28, 0x14	; 20
     c48:	fd eb       	ldi	r31, 0xBD	; 189
     c4a:	65 96       	adiw	r28, 0x15	; 21
     c4c:	ff af       	std	Y+63, r31	; 0x3f
     c4e:	65 97       	sbiw	r28, 0x15	; 21
     c50:	27 ef       	ldi	r18, 0xF7	; 247
     c52:	66 96       	adiw	r28, 0x16	; 22
     c54:	2f af       	std	Y+63, r18	; 0x3f
     c56:	66 97       	sbiw	r28, 0x16	; 22
     c58:	fe e0       	ldi	r31, 0x0E	; 14
     c5a:	67 96       	adiw	r28, 0x17	; 23
     c5c:	ff af       	std	Y+63, r31	; 0x3f
     c5e:	67 97       	sbiw	r28, 0x17	; 23
     c60:	2a e6       	ldi	r18, 0x6A	; 106
     c62:	60 96       	adiw	r28, 0x10	; 16
     c64:	2f af       	std	Y+63, r18	; 0x3f
     c66:	60 97       	sbiw	r28, 0x10	; 16
     c68:	fd ea       	ldi	r31, 0xAD	; 173
     c6a:	61 96       	adiw	r28, 0x11	; 17
     c6c:	ff af       	std	Y+63, r31	; 0x3f
     c6e:	61 97       	sbiw	r28, 0x11	; 17
     c70:	25 eb       	ldi	r18, 0xB5	; 181
     c72:	62 96       	adiw	r28, 0x12	; 18
     c74:	2f af       	std	Y+63, r18	; 0x3f
     c76:	62 97       	sbiw	r28, 0x12	; 18
     c78:	f6 e0       	ldi	r31, 0x06	; 6
     c7a:	63 96       	adiw	r28, 0x13	; 19
     c7c:	ff af       	std	Y+63, r31	; 0x3f
     c7e:	63 97       	sbiw	r28, 0x13	; 19
     c80:	2a e2       	ldi	r18, 0x2A	; 42
     c82:	2c 96       	adiw	r28, 0x0c	; 12
     c84:	2f af       	std	Y+63, r18	; 0x3f
     c86:	2c 97       	sbiw	r28, 0x0c	; 12
     c88:	f5 ea       	ldi	r31, 0xA5	; 165
     c8a:	2d 96       	adiw	r28, 0x0d	; 13
     c8c:	ff af       	std	Y+63, r31	; 0x3f
     c8e:	2d 97       	sbiw	r28, 0x0d	; 13
     c90:	24 e9       	ldi	r18, 0x94	; 148
     c92:	2e 96       	adiw	r28, 0x0e	; 14
     c94:	2f af       	std	Y+63, r18	; 0x3f
     c96:	2e 97       	sbiw	r28, 0x0e	; 14
     c98:	f2 e0       	ldi	r31, 0x02	; 2
     c9a:	2f 96       	adiw	r28, 0x0f	; 15
     c9c:	ff af       	std	Y+63, r31	; 0x3f
     c9e:	2f 97       	sbiw	r28, 0x0f	; 15
     ca0:	2a e9       	ldi	r18, 0x9A	; 154
     ca2:	28 96       	adiw	r28, 0x08	; 8
     ca4:	2f af       	std	Y+63, r18	; 0x3f
     ca6:	28 97       	sbiw	r28, 0x08	; 8
     ca8:	f3 e7       	ldi	r31, 0x73	; 115
     caa:	29 96       	adiw	r28, 0x09	; 9
     cac:	ff af       	std	Y+63, r31	; 0x3f
     cae:	29 97       	sbiw	r28, 0x09	; 9
     cb0:	2e ec       	ldi	r18, 0xCE	; 206
     cb2:	2a 96       	adiw	r28, 0x0a	; 10
     cb4:	2f af       	std	Y+63, r18	; 0x3f
     cb6:	2a 97       	sbiw	r28, 0x0a	; 10
     cb8:	f9 e0       	ldi	r31, 0x09	; 9
     cba:	2b 96       	adiw	r28, 0x0b	; 11
     cbc:	ff af       	std	Y+63, r31	; 0x3f
     cbe:	2b 97       	sbiw	r28, 0x0b	; 11
     cc0:	2a ed       	ldi	r18, 0xDA	; 218
     cc2:	24 96       	adiw	r28, 0x04	; 4
     cc4:	2f af       	std	Y+63, r18	; 0x3f
     cc6:	24 97       	sbiw	r28, 0x04	; 4
     cc8:	fb e7       	ldi	r31, 0x7B	; 123
     cca:	25 96       	adiw	r28, 0x05	; 5
     ccc:	ff af       	std	Y+63, r31	; 0x3f
     cce:	25 97       	sbiw	r28, 0x05	; 5
     cd0:	2f ee       	ldi	r18, 0xEF	; 239
     cd2:	26 96       	adiw	r28, 0x06	; 6
     cd4:	2f af       	std	Y+63, r18	; 0x3f
     cd6:	26 97       	sbiw	r28, 0x06	; 6
     cd8:	fd e0       	ldi	r31, 0x0D	; 13
     cda:	27 96       	adiw	r28, 0x07	; 7
     cdc:	ff af       	std	Y+63, r31	; 0x3f
     cde:	27 97       	sbiw	r28, 0x07	; 7
     ce0:	2a e5       	ldi	r18, 0x5A	; 90
     ce2:	2f af       	std	Y+63, r18	; 0x3f
     ce4:	fb e6       	ldi	r31, 0x6B	; 107
     ce6:	21 96       	adiw	r28, 0x01	; 1
     ce8:	ff af       	std	Y+63, r31	; 0x3f
     cea:	21 97       	sbiw	r28, 0x01	; 1
     cec:	2d ea       	ldi	r18, 0xAD	; 173
     cee:	22 96       	adiw	r28, 0x02	; 2
     cf0:	2f af       	std	Y+63, r18	; 0x3f
     cf2:	22 97       	sbiw	r28, 0x02	; 2
     cf4:	f5 e0       	ldi	r31, 0x05	; 5
     cf6:	23 96       	adiw	r28, 0x03	; 3
     cf8:	ff af       	std	Y+63, r31	; 0x3f
     cfa:	23 97       	sbiw	r28, 0x03	; 3
     cfc:	2a eb       	ldi	r18, 0xBA	; 186
     cfe:	2b af       	std	Y+59, r18	; 0x3b
     d00:	f7 ef       	ldi	r31, 0xF7	; 247
     d02:	fc af       	std	Y+60, r31	; 0x3c
     d04:	2e ed       	ldi	r18, 0xDE	; 222
     d06:	2d af       	std	Y+61, r18	; 0x3d
     d08:	fb e0       	ldi	r31, 0x0B	; 11
     d0a:	fe af       	std	Y+62, r31	; 0x3e
     d0c:	2a ef       	ldi	r18, 0xFA	; 250
     d0e:	2f ab       	std	Y+55, r18	; 0x37
     d10:	ff ef       	ldi	r31, 0xFF	; 255
     d12:	f8 af       	std	Y+56, r31	; 0x38
     d14:	2f ef       	ldi	r18, 0xFF	; 255
     d16:	29 af       	std	Y+57, r18	; 0x39
     d18:	ff e0       	ldi	r31, 0x0F	; 15
     d1a:	fa af       	std	Y+58, r31	; 0x3a
     d1c:	2a e7       	ldi	r18, 0x7A	; 122
     d1e:	2b ab       	std	Y+51, r18	; 0x33
     d20:	ff ee       	ldi	r31, 0xEF	; 239
     d22:	fc ab       	std	Y+52, r31	; 0x34
     d24:	2d eb       	ldi	r18, 0xBD	; 189
     d26:	2d ab       	std	Y+53, r18	; 0x35
     d28:	f7 e0       	ldi	r31, 0x07	; 7
     d2a:	fe ab       	std	Y+54, r31	; 0x36
     d2c:	2a e3       	ldi	r18, 0x3A	; 58
     d2e:	2f a7       	std	Y+47, r18	; 0x2f
     d30:	f7 ee       	ldi	r31, 0xE7	; 231
     d32:	f8 ab       	std	Y+48, r31	; 0x30
     d34:	2c e9       	ldi	r18, 0x9C	; 156
     d36:	29 ab       	std	Y+49, r18	; 0x31
     d38:	f3 e0       	ldi	r31, 0x03	; 3
     d3a:	fa ab       	std	Y+50, r31	; 0x32
     d3c:	2a e1       	ldi	r18, 0x1A	; 26
     d3e:	2b a7       	std	Y+43, r18	; 0x2b
     d40:	f3 e6       	ldi	r31, 0x63	; 99
     d42:	fc a7       	std	Y+44, r31	; 0x2c
     d44:	2c e8       	ldi	r18, 0x8C	; 140
     d46:	2d a7       	std	Y+45, r18	; 0x2d
     d48:	f1 e0       	ldi	r31, 0x01	; 1
     d4a:	fe a7       	std	Y+46, r31	; 0x2e
     d4c:	2a e0       	ldi	r18, 0x0A	; 10
     d4e:	cd 51       	subi	r28, 0x1D	; 29
     d50:	df 4f       	sbci	r29, 0xFF	; 255
     d52:	28 83       	st	Y, r18
     d54:	c3 5e       	subi	r28, 0xE3	; 227
     d56:	d0 40       	sbci	r29, 0x00	; 0
     d58:	f1 e2       	ldi	r31, 0x21	; 33
     d5a:	cc 51       	subi	r28, 0x1C	; 28
     d5c:	df 4f       	sbci	r29, 0xFF	; 255
     d5e:	f8 83       	st	Y, r31
     d60:	c4 5e       	subi	r28, 0xE4	; 228
     d62:	d0 40       	sbci	r29, 0x00	; 0
     d64:	24 e8       	ldi	r18, 0x84	; 132
     d66:	cb 51       	subi	r28, 0x1B	; 27
     d68:	df 4f       	sbci	r29, 0xFF	; 255
     d6a:	28 83       	st	Y, r18
     d6c:	c5 5e       	subi	r28, 0xE5	; 229
     d6e:	d0 40       	sbci	r29, 0x00	; 0
     d70:	ca 51       	subi	r28, 0x1A	; 26
     d72:	df 4f       	sbci	r29, 0xFF	; 255
     d74:	18 82       	st	Y, r1
     d76:	c6 5e       	subi	r28, 0xE6	; 230
     d78:	d0 40       	sbci	r29, 0x00	; 0
     d7a:	f1 e8       	ldi	r31, 0x81	; 129
     d7c:	cd 59       	subi	r28, 0x9D	; 157
     d7e:	de 4f       	sbci	r29, 0xFE	; 254
     d80:	f8 83       	st	Y, r31
     d82:	c3 56       	subi	r28, 0x63	; 99
     d84:	d1 40       	sbci	r29, 0x01	; 1
     d86:	20 e1       	ldi	r18, 0x10	; 16
     d88:	cc 59       	subi	r28, 0x9C	; 156
     d8a:	de 4f       	sbci	r29, 0xFE	; 254
     d8c:	28 83       	st	Y, r18
     d8e:	c4 56       	subi	r28, 0x64	; 100
     d90:	d1 40       	sbci	r29, 0x01	; 1
     d92:	f2 e4       	ldi	r31, 0x42	; 66
     d94:	cb 59       	subi	r28, 0x9B	; 155
     d96:	de 4f       	sbci	r29, 0xFE	; 254
     d98:	f8 83       	st	Y, r31
     d9a:	c5 56       	subi	r28, 0x65	; 101
     d9c:	d1 40       	sbci	r29, 0x01	; 1
     d9e:	28 e0       	ldi	r18, 0x08	; 8
     da0:	ca 59       	subi	r28, 0x9A	; 154
     da2:	de 4f       	sbci	r29, 0xFE	; 254
     da4:	28 83       	st	Y, r18
     da6:	c6 56       	subi	r28, 0x66	; 102
     da8:	d1 40       	sbci	r29, 0x01	; 1
     daa:	f1 ec       	ldi	r31, 0xC1	; 193
     dac:	c1 5a       	subi	r28, 0xA1	; 161
     dae:	de 4f       	sbci	r29, 0xFE	; 254
     db0:	f8 83       	st	Y, r31
     db2:	cf 55       	subi	r28, 0x5F	; 95
     db4:	d1 40       	sbci	r29, 0x01	; 1
     db6:	28 e1       	ldi	r18, 0x18	; 24
     db8:	c0 5a       	subi	r28, 0xA0	; 160
     dba:	de 4f       	sbci	r29, 0xFE	; 254
     dbc:	28 83       	st	Y, r18
     dbe:	c0 56       	subi	r28, 0x60	; 96
     dc0:	d1 40       	sbci	r29, 0x01	; 1
     dc2:	f3 e6       	ldi	r31, 0x63	; 99
     dc4:	cf 59       	subi	r28, 0x9F	; 159
     dc6:	de 4f       	sbci	r29, 0xFE	; 254
     dc8:	f8 83       	st	Y, r31
     dca:	c1 56       	subi	r28, 0x61	; 97
     dcc:	d1 40       	sbci	r29, 0x01	; 1
     dce:	2c e0       	ldi	r18, 0x0C	; 12
     dd0:	ce 59       	subi	r28, 0x9E	; 158
     dd2:	de 4f       	sbci	r29, 0xFE	; 254
     dd4:	28 83       	st	Y, r18
     dd6:	c2 56       	subi	r28, 0x62	; 98
     dd8:	d1 40       	sbci	r29, 0x01	; 1
     dda:	f1 e4       	ldi	r31, 0x41	; 65
     ddc:	c5 5a       	subi	r28, 0xA5	; 165
     dde:	de 4f       	sbci	r29, 0xFE	; 254
     de0:	f8 83       	st	Y, r31
     de2:	cb 55       	subi	r28, 0x5B	; 91
     de4:	d1 40       	sbci	r29, 0x01	; 1
     de6:	28 e0       	ldi	r18, 0x08	; 8
     de8:	c4 5a       	subi	r28, 0xA4	; 164
     dea:	de 4f       	sbci	r29, 0xFE	; 254
     dec:	28 83       	st	Y, r18
     dee:	cc 55       	subi	r28, 0x5C	; 92
     df0:	d1 40       	sbci	r29, 0x01	; 1
     df2:	f1 e2       	ldi	r31, 0x21	; 33
     df4:	c3 5a       	subi	r28, 0xA3	; 163
     df6:	de 4f       	sbci	r29, 0xFE	; 254
     df8:	f8 83       	st	Y, r31
     dfa:	cd 55       	subi	r28, 0x5D	; 93
     dfc:	d1 40       	sbci	r29, 0x01	; 1
     dfe:	24 e0       	ldi	r18, 0x04	; 4
     e00:	c2 5a       	subi	r28, 0xA2	; 162
     e02:	de 4f       	sbci	r29, 0xFE	; 254
     e04:	28 83       	st	Y, r18
     e06:	ce 55       	subi	r28, 0x5E	; 94
     e08:	d1 40       	sbci	r29, 0x01	; 1
     e0a:	f1 ea       	ldi	r31, 0xA1	; 161
     e0c:	c9 5a       	subi	r28, 0xA9	; 169
     e0e:	de 4f       	sbci	r29, 0xFE	; 254
     e10:	f8 83       	st	Y, r31
     e12:	c7 55       	subi	r28, 0x57	; 87
     e14:	d1 40       	sbci	r29, 0x01	; 1
     e16:	24 e9       	ldi	r18, 0x94	; 148
     e18:	c8 5a       	subi	r28, 0xA8	; 168
     e1a:	de 4f       	sbci	r29, 0xFE	; 254
     e1c:	28 83       	st	Y, r18
     e1e:	c8 55       	subi	r28, 0x58	; 88
     e20:	d1 40       	sbci	r29, 0x01	; 1
     e22:	f2 e5       	ldi	r31, 0x52	; 82
     e24:	c7 5a       	subi	r28, 0xA7	; 167
     e26:	de 4f       	sbci	r29, 0xFE	; 254
     e28:	f8 83       	st	Y, r31
     e2a:	c9 55       	subi	r28, 0x59	; 89
     e2c:	d1 40       	sbci	r29, 0x01	; 1
     e2e:	2a e0       	ldi	r18, 0x0A	; 10
     e30:	c6 5a       	subi	r28, 0xA6	; 166
     e32:	de 4f       	sbci	r29, 0xFE	; 254
     e34:	28 83       	st	Y, r18
     e36:	ca 55       	subi	r28, 0x5A	; 90
     e38:	d1 40       	sbci	r29, 0x01	; 1
     e3a:	f1 ee       	ldi	r31, 0xE1	; 225
     e3c:	cd 5a       	subi	r28, 0xAD	; 173
     e3e:	de 4f       	sbci	r29, 0xFE	; 254
     e40:	f8 83       	st	Y, r31
     e42:	c3 55       	subi	r28, 0x53	; 83
     e44:	d1 40       	sbci	r29, 0x01	; 1
     e46:	2c e9       	ldi	r18, 0x9C	; 156
     e48:	cc 5a       	subi	r28, 0xAC	; 172
     e4a:	de 4f       	sbci	r29, 0xFE	; 254
     e4c:	28 83       	st	Y, r18
     e4e:	c4 55       	subi	r28, 0x54	; 84
     e50:	d1 40       	sbci	r29, 0x01	; 1
     e52:	f3 e7       	ldi	r31, 0x73	; 115
     e54:	cb 5a       	subi	r28, 0xAB	; 171
     e56:	de 4f       	sbci	r29, 0xFE	; 254
     e58:	f8 83       	st	Y, r31
     e5a:	c5 55       	subi	r28, 0x55	; 85
     e5c:	d1 40       	sbci	r29, 0x01	; 1
     e5e:	2e e0       	ldi	r18, 0x0E	; 14
     e60:	ca 5a       	subi	r28, 0xAA	; 170
     e62:	de 4f       	sbci	r29, 0xFE	; 254
     e64:	28 83       	st	Y, r18
     e66:	c6 55       	subi	r28, 0x56	; 86
     e68:	d1 40       	sbci	r29, 0x01	; 1
     e6a:	f1 e6       	ldi	r31, 0x61	; 97
     e6c:	c1 5b       	subi	r28, 0xB1	; 177
     e6e:	de 4f       	sbci	r29, 0xFE	; 254
     e70:	f8 83       	st	Y, r31
     e72:	cf 54       	subi	r28, 0x4F	; 79
     e74:	d1 40       	sbci	r29, 0x01	; 1
     e76:	2c e8       	ldi	r18, 0x8C	; 140
     e78:	c0 5b       	subi	r28, 0xB0	; 176
     e7a:	de 4f       	sbci	r29, 0xFE	; 254
     e7c:	28 83       	st	Y, r18
     e7e:	c0 55       	subi	r28, 0x50	; 80
     e80:	d1 40       	sbci	r29, 0x01	; 1
     e82:	f1 e3       	ldi	r31, 0x31	; 49
     e84:	cf 5a       	subi	r28, 0xAF	; 175
     e86:	de 4f       	sbci	r29, 0xFE	; 254
     e88:	f8 83       	st	Y, r31
     e8a:	c1 55       	subi	r28, 0x51	; 81
     e8c:	d1 40       	sbci	r29, 0x01	; 1
     e8e:	26 e0       	ldi	r18, 0x06	; 6
     e90:	ce 5a       	subi	r28, 0xAE	; 174
     e92:	de 4f       	sbci	r29, 0xFE	; 254
     e94:	28 83       	st	Y, r18
     e96:	c2 55       	subi	r28, 0x52	; 82
     e98:	d1 40       	sbci	r29, 0x01	; 1
     e9a:	f1 e2       	ldi	r31, 0x21	; 33
     e9c:	c5 5b       	subi	r28, 0xB5	; 181
     e9e:	de 4f       	sbci	r29, 0xFE	; 254
     ea0:	f8 83       	st	Y, r31
     ea2:	cb 54       	subi	r28, 0x4B	; 75
     ea4:	d1 40       	sbci	r29, 0x01	; 1
     ea6:	24 e8       	ldi	r18, 0x84	; 132
     ea8:	c4 5b       	subi	r28, 0xB4	; 180
     eaa:	de 4f       	sbci	r29, 0xFE	; 254
     eac:	28 83       	st	Y, r18
     eae:	cc 54       	subi	r28, 0x4C	; 76
     eb0:	d1 40       	sbci	r29, 0x01	; 1
     eb2:	f0 e1       	ldi	r31, 0x10	; 16
     eb4:	c3 5b       	subi	r28, 0xB3	; 179
     eb6:	de 4f       	sbci	r29, 0xFE	; 254
     eb8:	f8 83       	st	Y, r31
     eba:	cd 54       	subi	r28, 0x4D	; 77
     ebc:	d1 40       	sbci	r29, 0x01	; 1
     ebe:	22 e0       	ldi	r18, 0x02	; 2
     ec0:	c2 5b       	subi	r28, 0xB2	; 178
     ec2:	de 4f       	sbci	r29, 0xFE	; 254
     ec4:	28 83       	st	Y, r18
     ec6:	ce 54       	subi	r28, 0x4E	; 78
     ec8:	d1 40       	sbci	r29, 0x01	; 1
     eca:	f1 e9       	ldi	r31, 0x91	; 145
     ecc:	c9 5b       	subi	r28, 0xB9	; 185
     ece:	de 4f       	sbci	r29, 0xFE	; 254
     ed0:	f8 83       	st	Y, r31
     ed2:	c7 54       	subi	r28, 0x47	; 71
     ed4:	d1 40       	sbci	r29, 0x01	; 1
     ed6:	22 e5       	ldi	r18, 0x52	; 82
     ed8:	c8 5b       	subi	r28, 0xB8	; 184
     eda:	de 4f       	sbci	r29, 0xFE	; 254
     edc:	28 83       	st	Y, r18
     ede:	c8 54       	subi	r28, 0x48	; 72
     ee0:	d1 40       	sbci	r29, 0x01	; 1
     ee2:	fa e4       	ldi	r31, 0x4A	; 74
     ee4:	c7 5b       	subi	r28, 0xB7	; 183
     ee6:	de 4f       	sbci	r29, 0xFE	; 254
     ee8:	f8 83       	st	Y, r31
     eea:	c9 54       	subi	r28, 0x49	; 73
     eec:	d1 40       	sbci	r29, 0x01	; 1
     eee:	29 e0       	ldi	r18, 0x09	; 9
     ef0:	c6 5b       	subi	r28, 0xB6	; 182
     ef2:	de 4f       	sbci	r29, 0xFE	; 254
     ef4:	28 83       	st	Y, r18
     ef6:	ca 54       	subi	r28, 0x4A	; 74
     ef8:	d1 40       	sbci	r29, 0x01	; 1
     efa:	f1 ed       	ldi	r31, 0xD1	; 209
     efc:	cd 5b       	subi	r28, 0xBD	; 189
     efe:	de 4f       	sbci	r29, 0xFE	; 254
     f00:	f8 83       	st	Y, r31
     f02:	c3 54       	subi	r28, 0x43	; 67
     f04:	d1 40       	sbci	r29, 0x01	; 1
     f06:	2a e5       	ldi	r18, 0x5A	; 90
     f08:	cc 5b       	subi	r28, 0xBC	; 188
     f0a:	de 4f       	sbci	r29, 0xFE	; 254
     f0c:	28 83       	st	Y, r18
     f0e:	c4 54       	subi	r28, 0x44	; 68
     f10:	d1 40       	sbci	r29, 0x01	; 1
     f12:	fb e6       	ldi	r31, 0x6B	; 107
     f14:	cb 5b       	subi	r28, 0xBB	; 187
     f16:	de 4f       	sbci	r29, 0xFE	; 254
     f18:	f8 83       	st	Y, r31
     f1a:	c5 54       	subi	r28, 0x45	; 69
     f1c:	d1 40       	sbci	r29, 0x01	; 1
     f1e:	2d e0       	ldi	r18, 0x0D	; 13
     f20:	ca 5b       	subi	r28, 0xBA	; 186
     f22:	de 4f       	sbci	r29, 0xFE	; 254
     f24:	28 83       	st	Y, r18
     f26:	c6 54       	subi	r28, 0x46	; 70
     f28:	d1 40       	sbci	r29, 0x01	; 1
     f2a:	f1 e5       	ldi	r31, 0x51	; 81
     f2c:	c1 5c       	subi	r28, 0xC1	; 193
     f2e:	de 4f       	sbci	r29, 0xFE	; 254
     f30:	f8 83       	st	Y, r31
     f32:	cf 53       	subi	r28, 0x3F	; 63
     f34:	d1 40       	sbci	r29, 0x01	; 1
     f36:	2a e4       	ldi	r18, 0x4A	; 74
     f38:	c0 5c       	subi	r28, 0xC0	; 192
     f3a:	de 4f       	sbci	r29, 0xFE	; 254
     f3c:	28 83       	st	Y, r18
     f3e:	c0 54       	subi	r28, 0x40	; 64
     f40:	d1 40       	sbci	r29, 0x01	; 1
     f42:	f9 e2       	ldi	r31, 0x29	; 41
     f44:	cf 5b       	subi	r28, 0xBF	; 191
     f46:	de 4f       	sbci	r29, 0xFE	; 254
     f48:	f8 83       	st	Y, r31
     f4a:	c1 54       	subi	r28, 0x41	; 65
     f4c:	d1 40       	sbci	r29, 0x01	; 1
     f4e:	25 e0       	ldi	r18, 0x05	; 5
     f50:	ce 5b       	subi	r28, 0xBE	; 190
     f52:	de 4f       	sbci	r29, 0xFE	; 254
     f54:	28 83       	st	Y, r18
     f56:	c2 54       	subi	r28, 0x42	; 66
     f58:	d1 40       	sbci	r29, 0x01	; 1
     f5a:	f1 eb       	ldi	r31, 0xB1	; 177
     f5c:	c5 5c       	subi	r28, 0xC5	; 197
     f5e:	de 4f       	sbci	r29, 0xFE	; 254
     f60:	f8 83       	st	Y, r31
     f62:	cb 53       	subi	r28, 0x3B	; 59
     f64:	d1 40       	sbci	r29, 0x01	; 1
     f66:	26 ed       	ldi	r18, 0xD6	; 214
     f68:	c4 5c       	subi	r28, 0xC4	; 196
     f6a:	de 4f       	sbci	r29, 0xFE	; 254
     f6c:	28 83       	st	Y, r18
     f6e:	cc 53       	subi	r28, 0x3C	; 60
     f70:	d1 40       	sbci	r29, 0x01	; 1
     f72:	fa e5       	ldi	r31, 0x5A	; 90
     f74:	c3 5c       	subi	r28, 0xC3	; 195
     f76:	de 4f       	sbci	r29, 0xFE	; 254
     f78:	f8 83       	st	Y, r31
     f7a:	cd 53       	subi	r28, 0x3D	; 61
     f7c:	d1 40       	sbci	r29, 0x01	; 1
     f7e:	2b e0       	ldi	r18, 0x0B	; 11
     f80:	c2 5c       	subi	r28, 0xC2	; 194
     f82:	de 4f       	sbci	r29, 0xFE	; 254
     f84:	28 83       	st	Y, r18
     f86:	ce 53       	subi	r28, 0x3E	; 62
     f88:	d1 40       	sbci	r29, 0x01	; 1
     f8a:	f1 ef       	ldi	r31, 0xF1	; 241
     f8c:	c9 5c       	subi	r28, 0xC9	; 201
     f8e:	de 4f       	sbci	r29, 0xFE	; 254
     f90:	f8 83       	st	Y, r31
     f92:	c7 53       	subi	r28, 0x37	; 55
     f94:	d1 40       	sbci	r29, 0x01	; 1
     f96:	2e ed       	ldi	r18, 0xDE	; 222
     f98:	c8 5c       	subi	r28, 0xC8	; 200
     f9a:	de 4f       	sbci	r29, 0xFE	; 254
     f9c:	28 83       	st	Y, r18
     f9e:	c8 53       	subi	r28, 0x38	; 56
     fa0:	d1 40       	sbci	r29, 0x01	; 1
     fa2:	fb e7       	ldi	r31, 0x7B	; 123
     fa4:	c7 5c       	subi	r28, 0xC7	; 199
     fa6:	de 4f       	sbci	r29, 0xFE	; 254
     fa8:	f8 83       	st	Y, r31
     faa:	c9 53       	subi	r28, 0x39	; 57
     fac:	d1 40       	sbci	r29, 0x01	; 1
     fae:	2f e0       	ldi	r18, 0x0F	; 15
     fb0:	c6 5c       	subi	r28, 0xC6	; 198
     fb2:	de 4f       	sbci	r29, 0xFE	; 254
     fb4:	28 83       	st	Y, r18
     fb6:	ca 53       	subi	r28, 0x3A	; 58
     fb8:	d1 40       	sbci	r29, 0x01	; 1
     fba:	f1 e7       	ldi	r31, 0x71	; 113
     fbc:	cd 5c       	subi	r28, 0xCD	; 205
     fbe:	de 4f       	sbci	r29, 0xFE	; 254
     fc0:	f8 83       	st	Y, r31
     fc2:	c3 53       	subi	r28, 0x33	; 51
     fc4:	d1 40       	sbci	r29, 0x01	; 1
     fc6:	2e ec       	ldi	r18, 0xCE	; 206
     fc8:	cc 5c       	subi	r28, 0xCC	; 204
     fca:	de 4f       	sbci	r29, 0xFE	; 254
     fcc:	28 83       	st	Y, r18
     fce:	c4 53       	subi	r28, 0x34	; 52
     fd0:	d1 40       	sbci	r29, 0x01	; 1
     fd2:	f9 e3       	ldi	r31, 0x39	; 57
     fd4:	cb 5c       	subi	r28, 0xCB	; 203
     fd6:	de 4f       	sbci	r29, 0xFE	; 254
     fd8:	f8 83       	st	Y, r31
     fda:	c5 53       	subi	r28, 0x35	; 53
     fdc:	d1 40       	sbci	r29, 0x01	; 1
     fde:	27 e0       	ldi	r18, 0x07	; 7
     fe0:	ca 5c       	subi	r28, 0xCA	; 202
     fe2:	de 4f       	sbci	r29, 0xFE	; 254
     fe4:	28 83       	st	Y, r18
     fe6:	c6 53       	subi	r28, 0x36	; 54
     fe8:	d1 40       	sbci	r29, 0x01	; 1
     fea:	f1 e3       	ldi	r31, 0x31	; 49
     fec:	c1 5d       	subi	r28, 0xD1	; 209
     fee:	de 4f       	sbci	r29, 0xFE	; 254
     ff0:	f8 83       	st	Y, r31
     ff2:	cf 52       	subi	r28, 0x2F	; 47
     ff4:	d1 40       	sbci	r29, 0x01	; 1
     ff6:	26 ec       	ldi	r18, 0xC6	; 198
     ff8:	c0 5d       	subi	r28, 0xD0	; 208
     ffa:	de 4f       	sbci	r29, 0xFE	; 254
     ffc:	28 83       	st	Y, r18
     ffe:	c0 53       	subi	r28, 0x30	; 48
    1000:	d1 40       	sbci	r29, 0x01	; 1
    1002:	f8 e1       	ldi	r31, 0x18	; 24
    1004:	cf 5c       	subi	r28, 0xCF	; 207
    1006:	de 4f       	sbci	r29, 0xFE	; 254
    1008:	f8 83       	st	Y, r31
    100a:	c1 53       	subi	r28, 0x31	; 49
    100c:	d1 40       	sbci	r29, 0x01	; 1
    100e:	23 e0       	ldi	r18, 0x03	; 3
    1010:	ce 5c       	subi	r28, 0xCE	; 206
    1012:	de 4f       	sbci	r29, 0xFE	; 254
    1014:	28 83       	st	Y, r18
    1016:	c2 53       	subi	r28, 0x32	; 50
    1018:	d1 40       	sbci	r29, 0x01	; 1
    101a:	f1 e1       	ldi	r31, 0x11	; 17
    101c:	c5 5d       	subi	r28, 0xD5	; 213
    101e:	de 4f       	sbci	r29, 0xFE	; 254
    1020:	f8 83       	st	Y, r31
    1022:	cb 52       	subi	r28, 0x2B	; 43
    1024:	d1 40       	sbci	r29, 0x01	; 1
    1026:	22 e4       	ldi	r18, 0x42	; 66
    1028:	c4 5d       	subi	r28, 0xD4	; 212
    102a:	de 4f       	sbci	r29, 0xFE	; 254
    102c:	28 83       	st	Y, r18
    102e:	cc 52       	subi	r28, 0x2C	; 44
    1030:	d1 40       	sbci	r29, 0x01	; 1
    1032:	f8 e0       	ldi	r31, 0x08	; 8
    1034:	c3 5d       	subi	r28, 0xD3	; 211
    1036:	de 4f       	sbci	r29, 0xFE	; 254
    1038:	f8 83       	st	Y, r31
    103a:	cd 52       	subi	r28, 0x2D	; 45
    103c:	d1 40       	sbci	r29, 0x01	; 1
    103e:	21 e0       	ldi	r18, 0x01	; 1
    1040:	c2 5d       	subi	r28, 0xD2	; 210
    1042:	de 4f       	sbci	r29, 0xFE	; 254
    1044:	28 83       	st	Y, r18
    1046:	ce 52       	subi	r28, 0x2E	; 46
    1048:	d1 40       	sbci	r29, 0x01	; 1
    104a:	f9 e8       	ldi	r31, 0x89	; 137
    104c:	c9 5d       	subi	r28, 0xD9	; 217
    104e:	de 4f       	sbci	r29, 0xFE	; 254
    1050:	f8 83       	st	Y, r31
    1052:	c7 52       	subi	r28, 0x27	; 39
    1054:	d1 40       	sbci	r29, 0x01	; 1
    1056:	21 e3       	ldi	r18, 0x31	; 49
    1058:	c8 5d       	subi	r28, 0xD8	; 216
    105a:	de 4f       	sbci	r29, 0xFE	; 254
    105c:	28 83       	st	Y, r18
    105e:	c8 52       	subi	r28, 0x28	; 40
    1060:	d1 40       	sbci	r29, 0x01	; 1
    1062:	f6 ec       	ldi	r31, 0xC6	; 198
    1064:	c7 5d       	subi	r28, 0xD7	; 215
    1066:	de 4f       	sbci	r29, 0xFE	; 254
    1068:	f8 83       	st	Y, r31
    106a:	c9 52       	subi	r28, 0x29	; 41
    106c:	d1 40       	sbci	r29, 0x01	; 1
    106e:	28 e0       	ldi	r18, 0x08	; 8
    1070:	c6 5d       	subi	r28, 0xD6	; 214
    1072:	de 4f       	sbci	r29, 0xFE	; 254
    1074:	28 83       	st	Y, r18
    1076:	ca 52       	subi	r28, 0x2A	; 42
    1078:	d1 40       	sbci	r29, 0x01	; 1
    107a:	f9 ec       	ldi	r31, 0xC9	; 201
    107c:	cd 5d       	subi	r28, 0xDD	; 221
    107e:	de 4f       	sbci	r29, 0xFE	; 254
    1080:	f8 83       	st	Y, r31
    1082:	c3 52       	subi	r28, 0x23	; 35
    1084:	d1 40       	sbci	r29, 0x01	; 1
    1086:	29 e3       	ldi	r18, 0x39	; 57
    1088:	cc 5d       	subi	r28, 0xDC	; 220
    108a:	de 4f       	sbci	r29, 0xFE	; 254
    108c:	28 83       	st	Y, r18
    108e:	c4 52       	subi	r28, 0x24	; 36
    1090:	d1 40       	sbci	r29, 0x01	; 1
    1092:	f7 ee       	ldi	r31, 0xE7	; 231
    1094:	cb 5d       	subi	r28, 0xDB	; 219
    1096:	de 4f       	sbci	r29, 0xFE	; 254
    1098:	f8 83       	st	Y, r31
    109a:	c5 52       	subi	r28, 0x25	; 37
    109c:	d1 40       	sbci	r29, 0x01	; 1
    109e:	2c e0       	ldi	r18, 0x0C	; 12
    10a0:	ca 5d       	subi	r28, 0xDA	; 218
    10a2:	de 4f       	sbci	r29, 0xFE	; 254
    10a4:	28 83       	st	Y, r18
    10a6:	c6 52       	subi	r28, 0x26	; 38
    10a8:	d1 40       	sbci	r29, 0x01	; 1
    10aa:	f9 e4       	ldi	r31, 0x49	; 73
    10ac:	c1 5e       	subi	r28, 0xE1	; 225
    10ae:	de 4f       	sbci	r29, 0xFE	; 254
    10b0:	f8 83       	st	Y, r31
    10b2:	cf 51       	subi	r28, 0x1F	; 31
    10b4:	d1 40       	sbci	r29, 0x01	; 1
    10b6:	29 e2       	ldi	r18, 0x29	; 41
    10b8:	c0 5e       	subi	r28, 0xE0	; 224
    10ba:	de 4f       	sbci	r29, 0xFE	; 254
    10bc:	28 83       	st	Y, r18
    10be:	c0 52       	subi	r28, 0x20	; 32
    10c0:	d1 40       	sbci	r29, 0x01	; 1
    10c2:	f5 ea       	ldi	r31, 0xA5	; 165
    10c4:	cf 5d       	subi	r28, 0xDF	; 223
    10c6:	de 4f       	sbci	r29, 0xFE	; 254
    10c8:	f8 83       	st	Y, r31
    10ca:	c1 52       	subi	r28, 0x21	; 33
    10cc:	d1 40       	sbci	r29, 0x01	; 1
    10ce:	24 e0       	ldi	r18, 0x04	; 4
    10d0:	ce 5d       	subi	r28, 0xDE	; 222
    10d2:	de 4f       	sbci	r29, 0xFE	; 254
    10d4:	28 83       	st	Y, r18
    10d6:	c2 52       	subi	r28, 0x22	; 34
    10d8:	d1 40       	sbci	r29, 0x01	; 1
    10da:	f9 ea       	ldi	r31, 0xA9	; 169
    10dc:	c5 5e       	subi	r28, 0xE5	; 229
    10de:	de 4f       	sbci	r29, 0xFE	; 254
    10e0:	f8 83       	st	Y, r31
    10e2:	cb 51       	subi	r28, 0x1B	; 27
    10e4:	d1 40       	sbci	r29, 0x01	; 1
    10e6:	25 eb       	ldi	r18, 0xB5	; 181
    10e8:	c4 5e       	subi	r28, 0xE4	; 228
    10ea:	de 4f       	sbci	r29, 0xFE	; 254
    10ec:	28 83       	st	Y, r18
    10ee:	cc 51       	subi	r28, 0x1C	; 28
    10f0:	d1 40       	sbci	r29, 0x01	; 1
    10f2:	f6 ed       	ldi	r31, 0xD6	; 214
    10f4:	c3 5e       	subi	r28, 0xE3	; 227
    10f6:	de 4f       	sbci	r29, 0xFE	; 254
    10f8:	f8 83       	st	Y, r31
    10fa:	cd 51       	subi	r28, 0x1D	; 29
    10fc:	d1 40       	sbci	r29, 0x01	; 1
    10fe:	2a e0       	ldi	r18, 0x0A	; 10
    1100:	c2 5e       	subi	r28, 0xE2	; 226
    1102:	de 4f       	sbci	r29, 0xFE	; 254
    1104:	28 83       	st	Y, r18
    1106:	ce 51       	subi	r28, 0x1E	; 30
    1108:	d1 40       	sbci	r29, 0x01	; 1
    110a:	f9 ee       	ldi	r31, 0xE9	; 233
    110c:	c9 5e       	subi	r28, 0xE9	; 233
    110e:	de 4f       	sbci	r29, 0xFE	; 254
    1110:	f8 83       	st	Y, r31
    1112:	c7 51       	subi	r28, 0x17	; 23
    1114:	d1 40       	sbci	r29, 0x01	; 1
    1116:	2d eb       	ldi	r18, 0xBD	; 189
    1118:	c8 5e       	subi	r28, 0xE8	; 232
    111a:	de 4f       	sbci	r29, 0xFE	; 254
    111c:	28 83       	st	Y, r18
    111e:	c8 51       	subi	r28, 0x18	; 24
    1120:	d1 40       	sbci	r29, 0x01	; 1
    1122:	f7 ef       	ldi	r31, 0xF7	; 247
    1124:	c7 5e       	subi	r28, 0xE7	; 231
    1126:	de 4f       	sbci	r29, 0xFE	; 254
    1128:	f8 83       	st	Y, r31
    112a:	c9 51       	subi	r28, 0x19	; 25
    112c:	d1 40       	sbci	r29, 0x01	; 1
    112e:	2e e0       	ldi	r18, 0x0E	; 14
    1130:	c6 5e       	subi	r28, 0xE6	; 230
    1132:	de 4f       	sbci	r29, 0xFE	; 254
    1134:	28 83       	st	Y, r18
    1136:	ca 51       	subi	r28, 0x1A	; 26
    1138:	d1 40       	sbci	r29, 0x01	; 1
    113a:	f9 e6       	ldi	r31, 0x69	; 105
    113c:	cd 5e       	subi	r28, 0xED	; 237
    113e:	de 4f       	sbci	r29, 0xFE	; 254
    1140:	f8 83       	st	Y, r31
    1142:	c3 51       	subi	r28, 0x13	; 19
    1144:	d1 40       	sbci	r29, 0x01	; 1
    1146:	2d ea       	ldi	r18, 0xAD	; 173
    1148:	cc 5e       	subi	r28, 0xEC	; 236
    114a:	de 4f       	sbci	r29, 0xFE	; 254
    114c:	28 83       	st	Y, r18
    114e:	c4 51       	subi	r28, 0x14	; 20
    1150:	d1 40       	sbci	r29, 0x01	; 1
    1152:	f5 eb       	ldi	r31, 0xB5	; 181
    1154:	cb 5e       	subi	r28, 0xEB	; 235
    1156:	de 4f       	sbci	r29, 0xFE	; 254
    1158:	f8 83       	st	Y, r31
    115a:	c5 51       	subi	r28, 0x15	; 21
    115c:	d1 40       	sbci	r29, 0x01	; 1
    115e:	26 e0       	ldi	r18, 0x06	; 6
    1160:	ca 5e       	subi	r28, 0xEA	; 234
    1162:	de 4f       	sbci	r29, 0xFE	; 254
    1164:	28 83       	st	Y, r18
    1166:	c6 51       	subi	r28, 0x16	; 22
    1168:	d1 40       	sbci	r29, 0x01	; 1
    116a:	f9 e2       	ldi	r31, 0x29	; 41
    116c:	c1 5f       	subi	r28, 0xF1	; 241
    116e:	de 4f       	sbci	r29, 0xFE	; 254
    1170:	f8 83       	st	Y, r31
    1172:	cf 50       	subi	r28, 0x0F	; 15
    1174:	d1 40       	sbci	r29, 0x01	; 1
    1176:	25 ea       	ldi	r18, 0xA5	; 165
    1178:	c0 5f       	subi	r28, 0xF0	; 240
    117a:	de 4f       	sbci	r29, 0xFE	; 254
    117c:	28 83       	st	Y, r18
    117e:	c0 51       	subi	r28, 0x10	; 16
    1180:	d1 40       	sbci	r29, 0x01	; 1
    1182:	f4 e9       	ldi	r31, 0x94	; 148
    1184:	cf 5e       	subi	r28, 0xEF	; 239
    1186:	de 4f       	sbci	r29, 0xFE	; 254
    1188:	f8 83       	st	Y, r31
    118a:	c1 51       	subi	r28, 0x11	; 17
    118c:	d1 40       	sbci	r29, 0x01	; 1
    118e:	22 e0       	ldi	r18, 0x02	; 2
    1190:	ce 5e       	subi	r28, 0xEE	; 238
    1192:	de 4f       	sbci	r29, 0xFE	; 254
    1194:	28 83       	st	Y, r18
    1196:	c2 51       	subi	r28, 0x12	; 18
    1198:	d1 40       	sbci	r29, 0x01	; 1
    119a:	f9 e9       	ldi	r31, 0x99	; 153
    119c:	c5 5f       	subi	r28, 0xF5	; 245
    119e:	de 4f       	sbci	r29, 0xFE	; 254
    11a0:	f8 83       	st	Y, r31
    11a2:	cb 50       	subi	r28, 0x0B	; 11
    11a4:	d1 40       	sbci	r29, 0x01	; 1
    11a6:	23 e7       	ldi	r18, 0x73	; 115
    11a8:	c4 5f       	subi	r28, 0xF4	; 244
    11aa:	de 4f       	sbci	r29, 0xFE	; 254
    11ac:	28 83       	st	Y, r18
    11ae:	cc 50       	subi	r28, 0x0C	; 12
    11b0:	d1 40       	sbci	r29, 0x01	; 1
    11b2:	fe ec       	ldi	r31, 0xCE	; 206
    11b4:	c3 5f       	subi	r28, 0xF3	; 243
    11b6:	de 4f       	sbci	r29, 0xFE	; 254
    11b8:	f8 83       	st	Y, r31
    11ba:	cd 50       	subi	r28, 0x0D	; 13
    11bc:	d1 40       	sbci	r29, 0x01	; 1
    11be:	29 e0       	ldi	r18, 0x09	; 9
    11c0:	c2 5f       	subi	r28, 0xF2	; 242
    11c2:	de 4f       	sbci	r29, 0xFE	; 254
    11c4:	28 83       	st	Y, r18
    11c6:	ce 50       	subi	r28, 0x0E	; 14
    11c8:	d1 40       	sbci	r29, 0x01	; 1
    11ca:	f9 ed       	ldi	r31, 0xD9	; 217
    11cc:	c9 5f       	subi	r28, 0xF9	; 249
    11ce:	de 4f       	sbci	r29, 0xFE	; 254
    11d0:	f8 83       	st	Y, r31
    11d2:	c7 50       	subi	r28, 0x07	; 7
    11d4:	d1 40       	sbci	r29, 0x01	; 1
    11d6:	2b e7       	ldi	r18, 0x7B	; 123
    11d8:	c8 5f       	subi	r28, 0xF8	; 248
    11da:	de 4f       	sbci	r29, 0xFE	; 254
    11dc:	28 83       	st	Y, r18
    11de:	c8 50       	subi	r28, 0x08	; 8
    11e0:	d1 40       	sbci	r29, 0x01	; 1
    11e2:	ff ee       	ldi	r31, 0xEF	; 239
    11e4:	c7 5f       	subi	r28, 0xF7	; 247
    11e6:	de 4f       	sbci	r29, 0xFE	; 254
    11e8:	f8 83       	st	Y, r31
    11ea:	c9 50       	subi	r28, 0x09	; 9
    11ec:	d1 40       	sbci	r29, 0x01	; 1
    11ee:	2d e0       	ldi	r18, 0x0D	; 13
    11f0:	c6 5f       	subi	r28, 0xF6	; 246
    11f2:	de 4f       	sbci	r29, 0xFE	; 254
    11f4:	28 83       	st	Y, r18
    11f6:	ca 50       	subi	r28, 0x0A	; 10
    11f8:	d1 40       	sbci	r29, 0x01	; 1
    11fa:	f9 e5       	ldi	r31, 0x59	; 89
    11fc:	cd 5f       	subi	r28, 0xFD	; 253
    11fe:	de 4f       	sbci	r29, 0xFE	; 254
    1200:	f8 83       	st	Y, r31
    1202:	c3 50       	subi	r28, 0x03	; 3
    1204:	d1 40       	sbci	r29, 0x01	; 1
    1206:	2b e6       	ldi	r18, 0x6B	; 107
    1208:	cc 5f       	subi	r28, 0xFC	; 252
    120a:	de 4f       	sbci	r29, 0xFE	; 254
    120c:	28 83       	st	Y, r18
    120e:	c4 50       	subi	r28, 0x04	; 4
    1210:	d1 40       	sbci	r29, 0x01	; 1
    1212:	fd ea       	ldi	r31, 0xAD	; 173
    1214:	cb 5f       	subi	r28, 0xFB	; 251
    1216:	de 4f       	sbci	r29, 0xFE	; 254
    1218:	f8 83       	st	Y, r31
    121a:	c5 50       	subi	r28, 0x05	; 5
    121c:	d1 40       	sbci	r29, 0x01	; 1
    121e:	25 e0       	ldi	r18, 0x05	; 5
    1220:	ca 5f       	subi	r28, 0xFA	; 250
    1222:	de 4f       	sbci	r29, 0xFE	; 254
    1224:	28 83       	st	Y, r18
    1226:	c6 50       	subi	r28, 0x06	; 6
    1228:	d1 40       	sbci	r29, 0x01	; 1
    122a:	f9 eb       	ldi	r31, 0xB9	; 185
    122c:	c1 50       	subi	r28, 0x01	; 1
    122e:	df 4f       	sbci	r29, 0xFF	; 255
    1230:	f8 83       	st	Y, r31
    1232:	cf 5f       	subi	r28, 0xFF	; 255
    1234:	d0 40       	sbci	r29, 0x00	; 0
    1236:	27 ef       	ldi	r18, 0xF7	; 247
    1238:	c0 50       	subi	r28, 0x00	; 0
    123a:	df 4f       	sbci	r29, 0xFF	; 255
    123c:	28 83       	st	Y, r18
    123e:	c0 50       	subi	r28, 0x00	; 0
    1240:	d1 40       	sbci	r29, 0x01	; 1
    1242:	fe ed       	ldi	r31, 0xDE	; 222
    1244:	cf 5f       	subi	r28, 0xFF	; 255
    1246:	de 4f       	sbci	r29, 0xFE	; 254
    1248:	f8 83       	st	Y, r31
    124a:	c1 50       	subi	r28, 0x01	; 1
    124c:	d1 40       	sbci	r29, 0x01	; 1
    124e:	2b e0       	ldi	r18, 0x0B	; 11
    1250:	ce 5f       	subi	r28, 0xFE	; 254
    1252:	de 4f       	sbci	r29, 0xFE	; 254
    1254:	28 83       	st	Y, r18
    1256:	c2 50       	subi	r28, 0x02	; 2
    1258:	d1 40       	sbci	r29, 0x01	; 1
    125a:	f9 ef       	ldi	r31, 0xF9	; 249
    125c:	c5 50       	subi	r28, 0x05	; 5
    125e:	df 4f       	sbci	r29, 0xFF	; 255
    1260:	f8 83       	st	Y, r31
    1262:	cb 5f       	subi	r28, 0xFB	; 251
    1264:	d0 40       	sbci	r29, 0x00	; 0
    1266:	2f ef       	ldi	r18, 0xFF	; 255
    1268:	c4 50       	subi	r28, 0x04	; 4
    126a:	df 4f       	sbci	r29, 0xFF	; 255
    126c:	28 83       	st	Y, r18
    126e:	cc 5f       	subi	r28, 0xFC	; 252
    1270:	d0 40       	sbci	r29, 0x00	; 0
    1272:	ff ef       	ldi	r31, 0xFF	; 255
    1274:	c3 50       	subi	r28, 0x03	; 3
    1276:	df 4f       	sbci	r29, 0xFF	; 255
    1278:	f8 83       	st	Y, r31
    127a:	cd 5f       	subi	r28, 0xFD	; 253
    127c:	d0 40       	sbci	r29, 0x00	; 0
    127e:	2f e0       	ldi	r18, 0x0F	; 15
    1280:	c2 50       	subi	r28, 0x02	; 2
    1282:	df 4f       	sbci	r29, 0xFF	; 255
    1284:	28 83       	st	Y, r18
    1286:	ce 5f       	subi	r28, 0xFE	; 254
    1288:	d0 40       	sbci	r29, 0x00	; 0
    128a:	f9 e7       	ldi	r31, 0x79	; 121
    128c:	c9 50       	subi	r28, 0x09	; 9
    128e:	df 4f       	sbci	r29, 0xFF	; 255
    1290:	f8 83       	st	Y, r31
    1292:	c7 5f       	subi	r28, 0xF7	; 247
    1294:	d0 40       	sbci	r29, 0x00	; 0
    1296:	2f ee       	ldi	r18, 0xEF	; 239
    1298:	c8 50       	subi	r28, 0x08	; 8
    129a:	df 4f       	sbci	r29, 0xFF	; 255
    129c:	28 83       	st	Y, r18
    129e:	c8 5f       	subi	r28, 0xF8	; 248
    12a0:	d0 40       	sbci	r29, 0x00	; 0
    12a2:	fd eb       	ldi	r31, 0xBD	; 189
    12a4:	c7 50       	subi	r28, 0x07	; 7
    12a6:	df 4f       	sbci	r29, 0xFF	; 255
    12a8:	f8 83       	st	Y, r31
    12aa:	c9 5f       	subi	r28, 0xF9	; 249
    12ac:	d0 40       	sbci	r29, 0x00	; 0
    12ae:	27 e0       	ldi	r18, 0x07	; 7
    12b0:	c6 50       	subi	r28, 0x06	; 6
    12b2:	df 4f       	sbci	r29, 0xFF	; 255
    12b4:	28 83       	st	Y, r18
    12b6:	ca 5f       	subi	r28, 0xFA	; 250
    12b8:	d0 40       	sbci	r29, 0x00	; 0
    12ba:	f9 e3       	ldi	r31, 0x39	; 57
    12bc:	cd 50       	subi	r28, 0x0D	; 13
    12be:	df 4f       	sbci	r29, 0xFF	; 255
    12c0:	f8 83       	st	Y, r31
    12c2:	c3 5f       	subi	r28, 0xF3	; 243
    12c4:	d0 40       	sbci	r29, 0x00	; 0
    12c6:	27 ee       	ldi	r18, 0xE7	; 231
    12c8:	cc 50       	subi	r28, 0x0C	; 12
    12ca:	df 4f       	sbci	r29, 0xFF	; 255
    12cc:	28 83       	st	Y, r18
    12ce:	c4 5f       	subi	r28, 0xF4	; 244
    12d0:	d0 40       	sbci	r29, 0x00	; 0
    12d2:	fc e9       	ldi	r31, 0x9C	; 156
    12d4:	cb 50       	subi	r28, 0x0B	; 11
    12d6:	df 4f       	sbci	r29, 0xFF	; 255
    12d8:	f8 83       	st	Y, r31
    12da:	c5 5f       	subi	r28, 0xF5	; 245
    12dc:	d0 40       	sbci	r29, 0x00	; 0
    12de:	23 e0       	ldi	r18, 0x03	; 3
    12e0:	ca 50       	subi	r28, 0x0A	; 10
    12e2:	df 4f       	sbci	r29, 0xFF	; 255
    12e4:	28 83       	st	Y, r18
    12e6:	c6 5f       	subi	r28, 0xF6	; 246
    12e8:	d0 40       	sbci	r29, 0x00	; 0
    12ea:	f9 e1       	ldi	r31, 0x19	; 25
    12ec:	c1 51       	subi	r28, 0x11	; 17
    12ee:	df 4f       	sbci	r29, 0xFF	; 255
    12f0:	f8 83       	st	Y, r31
    12f2:	cf 5e       	subi	r28, 0xEF	; 239
    12f4:	d0 40       	sbci	r29, 0x00	; 0
    12f6:	23 e6       	ldi	r18, 0x63	; 99
    12f8:	c0 51       	subi	r28, 0x10	; 16
    12fa:	df 4f       	sbci	r29, 0xFF	; 255
    12fc:	28 83       	st	Y, r18
    12fe:	c0 5f       	subi	r28, 0xF0	; 240
    1300:	d0 40       	sbci	r29, 0x00	; 0
    1302:	fc e8       	ldi	r31, 0x8C	; 140
    1304:	cf 50       	subi	r28, 0x0F	; 15
    1306:	df 4f       	sbci	r29, 0xFF	; 255
    1308:	f8 83       	st	Y, r31
    130a:	c1 5f       	subi	r28, 0xF1	; 241
    130c:	d0 40       	sbci	r29, 0x00	; 0
    130e:	21 e0       	ldi	r18, 0x01	; 1
    1310:	ce 50       	subi	r28, 0x0E	; 14
    1312:	df 4f       	sbci	r29, 0xFF	; 255
    1314:	28 83       	st	Y, r18
    1316:	c2 5f       	subi	r28, 0xF2	; 242
    1318:	d0 40       	sbci	r29, 0x00	; 0
    131a:	f9 e0       	ldi	r31, 0x09	; 9
    131c:	c5 51       	subi	r28, 0x15	; 21
    131e:	df 4f       	sbci	r29, 0xFF	; 255
    1320:	f8 83       	st	Y, r31
    1322:	cb 5e       	subi	r28, 0xEB	; 235
    1324:	d0 40       	sbci	r29, 0x00	; 0
    1326:	21 e2       	ldi	r18, 0x21	; 33
    1328:	c4 51       	subi	r28, 0x14	; 20
    132a:	df 4f       	sbci	r29, 0xFF	; 255
    132c:	28 83       	st	Y, r18
    132e:	cc 5e       	subi	r28, 0xEC	; 236
    1330:	d0 40       	sbci	r29, 0x00	; 0
    1332:	f4 e8       	ldi	r31, 0x84	; 132
    1334:	c3 51       	subi	r28, 0x13	; 19
    1336:	df 4f       	sbci	r29, 0xFF	; 255
    1338:	f8 83       	st	Y, r31
    133a:	cd 5e       	subi	r28, 0xED	; 237
    133c:	d0 40       	sbci	r29, 0x00	; 0
    133e:	c2 51       	subi	r28, 0x12	; 18
    1340:	df 4f       	sbci	r29, 0xFF	; 255
    1342:	18 82       	st	Y, r1
    1344:	ce 5e       	subi	r28, 0xEE	; 238
    1346:	d0 40       	sbci	r29, 0x00	; 0
    1348:	23 e8       	ldi	r18, 0x83	; 131
    134a:	cd 51       	subi	r28, 0x1D	; 29
    134c:	de 4f       	sbci	r29, 0xFE	; 254
    134e:	28 83       	st	Y, r18
    1350:	c3 5e       	subi	r28, 0xE3	; 227
    1352:	d1 40       	sbci	r29, 0x01	; 1
    1354:	f0 e1       	ldi	r31, 0x10	; 16
    1356:	cc 51       	subi	r28, 0x1C	; 28
    1358:	de 4f       	sbci	r29, 0xFE	; 254
    135a:	f8 83       	st	Y, r31
    135c:	c4 5e       	subi	r28, 0xE4	; 228
    135e:	d1 40       	sbci	r29, 0x01	; 1
    1360:	22 e4       	ldi	r18, 0x42	; 66
    1362:	cb 51       	subi	r28, 0x1B	; 27
    1364:	de 4f       	sbci	r29, 0xFE	; 254
    1366:	28 83       	st	Y, r18
    1368:	c5 5e       	subi	r28, 0xE5	; 229
    136a:	d1 40       	sbci	r29, 0x01	; 1
    136c:	f8 e0       	ldi	r31, 0x08	; 8
    136e:	ca 51       	subi	r28, 0x1A	; 26
    1370:	de 4f       	sbci	r29, 0xFE	; 254
    1372:	f8 83       	st	Y, r31
    1374:	c6 5e       	subi	r28, 0xE6	; 230
    1376:	d1 40       	sbci	r29, 0x01	; 1
    1378:	23 ec       	ldi	r18, 0xC3	; 195
    137a:	c1 52       	subi	r28, 0x21	; 33
    137c:	de 4f       	sbci	r29, 0xFE	; 254
    137e:	28 83       	st	Y, r18
    1380:	cf 5d       	subi	r28, 0xDF	; 223
    1382:	d1 40       	sbci	r29, 0x01	; 1
    1384:	f8 e1       	ldi	r31, 0x18	; 24
    1386:	c0 52       	subi	r28, 0x20	; 32
    1388:	de 4f       	sbci	r29, 0xFE	; 254
    138a:	f8 83       	st	Y, r31
    138c:	c0 5e       	subi	r28, 0xE0	; 224
    138e:	d1 40       	sbci	r29, 0x01	; 1
    1390:	23 e6       	ldi	r18, 0x63	; 99
    1392:	cf 51       	subi	r28, 0x1F	; 31
    1394:	de 4f       	sbci	r29, 0xFE	; 254
    1396:	28 83       	st	Y, r18
    1398:	c1 5e       	subi	r28, 0xE1	; 225
    139a:	d1 40       	sbci	r29, 0x01	; 1
    139c:	fc e0       	ldi	r31, 0x0C	; 12
    139e:	ce 51       	subi	r28, 0x1E	; 30
    13a0:	de 4f       	sbci	r29, 0xFE	; 254
    13a2:	f8 83       	st	Y, r31
    13a4:	c2 5e       	subi	r28, 0xE2	; 226
    13a6:	d1 40       	sbci	r29, 0x01	; 1
    13a8:	23 e4       	ldi	r18, 0x43	; 67
    13aa:	c5 52       	subi	r28, 0x25	; 37
    13ac:	de 4f       	sbci	r29, 0xFE	; 254
    13ae:	28 83       	st	Y, r18
    13b0:	cb 5d       	subi	r28, 0xDB	; 219
    13b2:	d1 40       	sbci	r29, 0x01	; 1
    13b4:	f8 e0       	ldi	r31, 0x08	; 8
    13b6:	c4 52       	subi	r28, 0x24	; 36
    13b8:	de 4f       	sbci	r29, 0xFE	; 254
    13ba:	f8 83       	st	Y, r31
    13bc:	cc 5d       	subi	r28, 0xDC	; 220
    13be:	d1 40       	sbci	r29, 0x01	; 1
    13c0:	21 e2       	ldi	r18, 0x21	; 33
    13c2:	c3 52       	subi	r28, 0x23	; 35
    13c4:	de 4f       	sbci	r29, 0xFE	; 254
    13c6:	28 83       	st	Y, r18
    13c8:	cd 5d       	subi	r28, 0xDD	; 221
    13ca:	d1 40       	sbci	r29, 0x01	; 1
    13cc:	f4 e0       	ldi	r31, 0x04	; 4
    13ce:	c2 52       	subi	r28, 0x22	; 34
    13d0:	de 4f       	sbci	r29, 0xFE	; 254
    13d2:	f8 83       	st	Y, r31
    13d4:	ce 5d       	subi	r28, 0xDE	; 222
    13d6:	d1 40       	sbci	r29, 0x01	; 1
    13d8:	23 ea       	ldi	r18, 0xA3	; 163
    13da:	c9 52       	subi	r28, 0x29	; 41
    13dc:	de 4f       	sbci	r29, 0xFE	; 254
    13de:	28 83       	st	Y, r18
    13e0:	c7 5d       	subi	r28, 0xD7	; 215
    13e2:	d1 40       	sbci	r29, 0x01	; 1
    13e4:	f4 e9       	ldi	r31, 0x94	; 148
    13e6:	c8 52       	subi	r28, 0x28	; 40
    13e8:	de 4f       	sbci	r29, 0xFE	; 254
    13ea:	f8 83       	st	Y, r31
    13ec:	c8 5d       	subi	r28, 0xD8	; 216
    13ee:	d1 40       	sbci	r29, 0x01	; 1
    13f0:	22 e5       	ldi	r18, 0x52	; 82
    13f2:	c7 52       	subi	r28, 0x27	; 39
    13f4:	de 4f       	sbci	r29, 0xFE	; 254
    13f6:	28 83       	st	Y, r18
    13f8:	c9 5d       	subi	r28, 0xD9	; 217
    13fa:	d1 40       	sbci	r29, 0x01	; 1
    13fc:	fa e0       	ldi	r31, 0x0A	; 10
    13fe:	c6 52       	subi	r28, 0x26	; 38
    1400:	de 4f       	sbci	r29, 0xFE	; 254
    1402:	f8 83       	st	Y, r31
    1404:	ca 5d       	subi	r28, 0xDA	; 218
    1406:	d1 40       	sbci	r29, 0x01	; 1
    1408:	23 ee       	ldi	r18, 0xE3	; 227
    140a:	cd 52       	subi	r28, 0x2D	; 45
    140c:	de 4f       	sbci	r29, 0xFE	; 254
    140e:	28 83       	st	Y, r18
    1410:	c3 5d       	subi	r28, 0xD3	; 211
    1412:	d1 40       	sbci	r29, 0x01	; 1
    1414:	fc e9       	ldi	r31, 0x9C	; 156
    1416:	cc 52       	subi	r28, 0x2C	; 44
    1418:	de 4f       	sbci	r29, 0xFE	; 254
    141a:	f8 83       	st	Y, r31
    141c:	c4 5d       	subi	r28, 0xD4	; 212
    141e:	d1 40       	sbci	r29, 0x01	; 1
    1420:	23 e7       	ldi	r18, 0x73	; 115
    1422:	cb 52       	subi	r28, 0x2B	; 43
    1424:	de 4f       	sbci	r29, 0xFE	; 254
    1426:	28 83       	st	Y, r18
    1428:	c5 5d       	subi	r28, 0xD5	; 213
    142a:	d1 40       	sbci	r29, 0x01	; 1
    142c:	fe e0       	ldi	r31, 0x0E	; 14
    142e:	ca 52       	subi	r28, 0x2A	; 42
    1430:	de 4f       	sbci	r29, 0xFE	; 254
    1432:	f8 83       	st	Y, r31
    1434:	c6 5d       	subi	r28, 0xD6	; 214
    1436:	d1 40       	sbci	r29, 0x01	; 1
    1438:	23 e6       	ldi	r18, 0x63	; 99
    143a:	c1 53       	subi	r28, 0x31	; 49
    143c:	de 4f       	sbci	r29, 0xFE	; 254
    143e:	28 83       	st	Y, r18
    1440:	cf 5c       	subi	r28, 0xCF	; 207
    1442:	d1 40       	sbci	r29, 0x01	; 1
    1444:	fc e8       	ldi	r31, 0x8C	; 140
    1446:	c0 53       	subi	r28, 0x30	; 48
    1448:	de 4f       	sbci	r29, 0xFE	; 254
    144a:	f8 83       	st	Y, r31
    144c:	c0 5d       	subi	r28, 0xD0	; 208
    144e:	d1 40       	sbci	r29, 0x01	; 1
    1450:	21 e3       	ldi	r18, 0x31	; 49
    1452:	cf 52       	subi	r28, 0x2F	; 47
    1454:	de 4f       	sbci	r29, 0xFE	; 254
    1456:	28 83       	st	Y, r18
    1458:	c1 5d       	subi	r28, 0xD1	; 209
    145a:	d1 40       	sbci	r29, 0x01	; 1
    145c:	f6 e0       	ldi	r31, 0x06	; 6
    145e:	ce 52       	subi	r28, 0x2E	; 46
    1460:	de 4f       	sbci	r29, 0xFE	; 254
    1462:	f8 83       	st	Y, r31
    1464:	c2 5d       	subi	r28, 0xD2	; 210
    1466:	d1 40       	sbci	r29, 0x01	; 1
    1468:	23 e2       	ldi	r18, 0x23	; 35
    146a:	c5 53       	subi	r28, 0x35	; 53
    146c:	de 4f       	sbci	r29, 0xFE	; 254
    146e:	28 83       	st	Y, r18
    1470:	cb 5c       	subi	r28, 0xCB	; 203
    1472:	d1 40       	sbci	r29, 0x01	; 1
    1474:	f4 e8       	ldi	r31, 0x84	; 132
    1476:	c4 53       	subi	r28, 0x34	; 52
    1478:	de 4f       	sbci	r29, 0xFE	; 254
    147a:	f8 83       	st	Y, r31
    147c:	cc 5c       	subi	r28, 0xCC	; 204
    147e:	d1 40       	sbci	r29, 0x01	; 1
    1480:	20 e1       	ldi	r18, 0x10	; 16
    1482:	c3 53       	subi	r28, 0x33	; 51
    1484:	de 4f       	sbci	r29, 0xFE	; 254
    1486:	28 83       	st	Y, r18
    1488:	cd 5c       	subi	r28, 0xCD	; 205
    148a:	d1 40       	sbci	r29, 0x01	; 1
    148c:	f2 e0       	ldi	r31, 0x02	; 2
    148e:	c2 53       	subi	r28, 0x32	; 50
    1490:	de 4f       	sbci	r29, 0xFE	; 254
    1492:	f8 83       	st	Y, r31
    1494:	ce 5c       	subi	r28, 0xCE	; 206
    1496:	d1 40       	sbci	r29, 0x01	; 1
    1498:	23 e9       	ldi	r18, 0x93	; 147
    149a:	c9 53       	subi	r28, 0x39	; 57
    149c:	de 4f       	sbci	r29, 0xFE	; 254
    149e:	28 83       	st	Y, r18
    14a0:	c7 5c       	subi	r28, 0xC7	; 199
    14a2:	d1 40       	sbci	r29, 0x01	; 1
    14a4:	f2 e5       	ldi	r31, 0x52	; 82
    14a6:	c8 53       	subi	r28, 0x38	; 56
    14a8:	de 4f       	sbci	r29, 0xFE	; 254
    14aa:	f8 83       	st	Y, r31
    14ac:	c8 5c       	subi	r28, 0xC8	; 200
    14ae:	d1 40       	sbci	r29, 0x01	; 1
    14b0:	2a e4       	ldi	r18, 0x4A	; 74
    14b2:	c7 53       	subi	r28, 0x37	; 55
    14b4:	de 4f       	sbci	r29, 0xFE	; 254
    14b6:	28 83       	st	Y, r18
    14b8:	c9 5c       	subi	r28, 0xC9	; 201
    14ba:	d1 40       	sbci	r29, 0x01	; 1
    14bc:	f9 e0       	ldi	r31, 0x09	; 9
    14be:	c6 53       	subi	r28, 0x36	; 54
    14c0:	de 4f       	sbci	r29, 0xFE	; 254
    14c2:	f8 83       	st	Y, r31
    14c4:	ca 5c       	subi	r28, 0xCA	; 202
    14c6:	d1 40       	sbci	r29, 0x01	; 1
    14c8:	23 ed       	ldi	r18, 0xD3	; 211
    14ca:	cd 53       	subi	r28, 0x3D	; 61
    14cc:	de 4f       	sbci	r29, 0xFE	; 254
    14ce:	28 83       	st	Y, r18
    14d0:	c3 5c       	subi	r28, 0xC3	; 195
    14d2:	d1 40       	sbci	r29, 0x01	; 1
    14d4:	fa e5       	ldi	r31, 0x5A	; 90
    14d6:	cc 53       	subi	r28, 0x3C	; 60
    14d8:	de 4f       	sbci	r29, 0xFE	; 254
    14da:	f8 83       	st	Y, r31
    14dc:	c4 5c       	subi	r28, 0xC4	; 196
    14de:	d1 40       	sbci	r29, 0x01	; 1
    14e0:	2b e6       	ldi	r18, 0x6B	; 107
    14e2:	cb 53       	subi	r28, 0x3B	; 59
    14e4:	de 4f       	sbci	r29, 0xFE	; 254
    14e6:	28 83       	st	Y, r18
    14e8:	c5 5c       	subi	r28, 0xC5	; 197
    14ea:	d1 40       	sbci	r29, 0x01	; 1
    14ec:	fd e0       	ldi	r31, 0x0D	; 13
    14ee:	ca 53       	subi	r28, 0x3A	; 58
    14f0:	de 4f       	sbci	r29, 0xFE	; 254
    14f2:	f8 83       	st	Y, r31
    14f4:	c6 5c       	subi	r28, 0xC6	; 198
    14f6:	d1 40       	sbci	r29, 0x01	; 1
    14f8:	23 e5       	ldi	r18, 0x53	; 83
    14fa:	c1 54       	subi	r28, 0x41	; 65
    14fc:	de 4f       	sbci	r29, 0xFE	; 254
    14fe:	28 83       	st	Y, r18
    1500:	cf 5b       	subi	r28, 0xBF	; 191
    1502:	d1 40       	sbci	r29, 0x01	; 1
    1504:	fa e4       	ldi	r31, 0x4A	; 74
    1506:	c0 54       	subi	r28, 0x40	; 64
    1508:	de 4f       	sbci	r29, 0xFE	; 254
    150a:	f8 83       	st	Y, r31
    150c:	c0 5c       	subi	r28, 0xC0	; 192
    150e:	d1 40       	sbci	r29, 0x01	; 1
    1510:	29 e2       	ldi	r18, 0x29	; 41
    1512:	cf 53       	subi	r28, 0x3F	; 63
    1514:	de 4f       	sbci	r29, 0xFE	; 254
    1516:	28 83       	st	Y, r18
    1518:	c1 5c       	subi	r28, 0xC1	; 193
    151a:	d1 40       	sbci	r29, 0x01	; 1
    151c:	f5 e0       	ldi	r31, 0x05	; 5
    151e:	ce 53       	subi	r28, 0x3E	; 62
    1520:	de 4f       	sbci	r29, 0xFE	; 254
    1522:	f8 83       	st	Y, r31
    1524:	c2 5c       	subi	r28, 0xC2	; 194
    1526:	d1 40       	sbci	r29, 0x01	; 1
    1528:	23 eb       	ldi	r18, 0xB3	; 179
    152a:	c5 54       	subi	r28, 0x45	; 69
    152c:	de 4f       	sbci	r29, 0xFE	; 254
    152e:	28 83       	st	Y, r18
    1530:	cb 5b       	subi	r28, 0xBB	; 187
    1532:	d1 40       	sbci	r29, 0x01	; 1
    1534:	f6 ed       	ldi	r31, 0xD6	; 214
    1536:	c4 54       	subi	r28, 0x44	; 68
    1538:	de 4f       	sbci	r29, 0xFE	; 254
    153a:	f8 83       	st	Y, r31
    153c:	cc 5b       	subi	r28, 0xBC	; 188
    153e:	d1 40       	sbci	r29, 0x01	; 1
    1540:	2a e5       	ldi	r18, 0x5A	; 90
    1542:	c3 54       	subi	r28, 0x43	; 67
    1544:	de 4f       	sbci	r29, 0xFE	; 254
    1546:	28 83       	st	Y, r18
    1548:	cd 5b       	subi	r28, 0xBD	; 189
    154a:	d1 40       	sbci	r29, 0x01	; 1
    154c:	fb e0       	ldi	r31, 0x0B	; 11
    154e:	c2 54       	subi	r28, 0x42	; 66
    1550:	de 4f       	sbci	r29, 0xFE	; 254
    1552:	f8 83       	st	Y, r31
    1554:	ce 5b       	subi	r28, 0xBE	; 190
    1556:	d1 40       	sbci	r29, 0x01	; 1
    1558:	23 ef       	ldi	r18, 0xF3	; 243
    155a:	c9 54       	subi	r28, 0x49	; 73
    155c:	de 4f       	sbci	r29, 0xFE	; 254
    155e:	28 83       	st	Y, r18
    1560:	c7 5b       	subi	r28, 0xB7	; 183
    1562:	d1 40       	sbci	r29, 0x01	; 1
    1564:	fe ed       	ldi	r31, 0xDE	; 222
    1566:	c8 54       	subi	r28, 0x48	; 72
    1568:	de 4f       	sbci	r29, 0xFE	; 254
    156a:	f8 83       	st	Y, r31
    156c:	c8 5b       	subi	r28, 0xB8	; 184
    156e:	d1 40       	sbci	r29, 0x01	; 1
    1570:	2b e7       	ldi	r18, 0x7B	; 123
    1572:	c7 54       	subi	r28, 0x47	; 71
    1574:	de 4f       	sbci	r29, 0xFE	; 254
    1576:	28 83       	st	Y, r18
    1578:	c9 5b       	subi	r28, 0xB9	; 185
    157a:	d1 40       	sbci	r29, 0x01	; 1
    157c:	ff e0       	ldi	r31, 0x0F	; 15
    157e:	c6 54       	subi	r28, 0x46	; 70
    1580:	de 4f       	sbci	r29, 0xFE	; 254
    1582:	f8 83       	st	Y, r31
    1584:	ca 5b       	subi	r28, 0xBA	; 186
    1586:	d1 40       	sbci	r29, 0x01	; 1
    1588:	23 e7       	ldi	r18, 0x73	; 115
    158a:	cd 54       	subi	r28, 0x4D	; 77
    158c:	de 4f       	sbci	r29, 0xFE	; 254
    158e:	28 83       	st	Y, r18
    1590:	c3 5b       	subi	r28, 0xB3	; 179
    1592:	d1 40       	sbci	r29, 0x01	; 1
    1594:	fe ec       	ldi	r31, 0xCE	; 206
    1596:	cc 54       	subi	r28, 0x4C	; 76
    1598:	de 4f       	sbci	r29, 0xFE	; 254
    159a:	f8 83       	st	Y, r31
    159c:	c4 5b       	subi	r28, 0xB4	; 180
    159e:	d1 40       	sbci	r29, 0x01	; 1
    15a0:	29 e3       	ldi	r18, 0x39	; 57
    15a2:	cb 54       	subi	r28, 0x4B	; 75
    15a4:	de 4f       	sbci	r29, 0xFE	; 254
    15a6:	28 83       	st	Y, r18
    15a8:	c5 5b       	subi	r28, 0xB5	; 181
    15aa:	d1 40       	sbci	r29, 0x01	; 1
    15ac:	f7 e0       	ldi	r31, 0x07	; 7
    15ae:	ca 54       	subi	r28, 0x4A	; 74
    15b0:	de 4f       	sbci	r29, 0xFE	; 254
    15b2:	f8 83       	st	Y, r31
    15b4:	c6 5b       	subi	r28, 0xB6	; 182
    15b6:	d1 40       	sbci	r29, 0x01	; 1
    15b8:	23 e3       	ldi	r18, 0x33	; 51
    15ba:	c1 55       	subi	r28, 0x51	; 81
    15bc:	de 4f       	sbci	r29, 0xFE	; 254
    15be:	28 83       	st	Y, r18
    15c0:	cf 5a       	subi	r28, 0xAF	; 175
    15c2:	d1 40       	sbci	r29, 0x01	; 1
    15c4:	f6 ec       	ldi	r31, 0xC6	; 198
    15c6:	c0 55       	subi	r28, 0x50	; 80
    15c8:	de 4f       	sbci	r29, 0xFE	; 254
    15ca:	f8 83       	st	Y, r31
    15cc:	c0 5b       	subi	r28, 0xB0	; 176
    15ce:	d1 40       	sbci	r29, 0x01	; 1
    15d0:	28 e1       	ldi	r18, 0x18	; 24
    15d2:	cf 54       	subi	r28, 0x4F	; 79
    15d4:	de 4f       	sbci	r29, 0xFE	; 254
    15d6:	28 83       	st	Y, r18
    15d8:	c1 5b       	subi	r28, 0xB1	; 177
    15da:	d1 40       	sbci	r29, 0x01	; 1
    15dc:	f3 e0       	ldi	r31, 0x03	; 3
    15de:	ce 54       	subi	r28, 0x4E	; 78
    15e0:	de 4f       	sbci	r29, 0xFE	; 254
    15e2:	f8 83       	st	Y, r31
    15e4:	c2 5b       	subi	r28, 0xB2	; 178
    15e6:	d1 40       	sbci	r29, 0x01	; 1
    15e8:	23 e1       	ldi	r18, 0x13	; 19
    15ea:	c5 55       	subi	r28, 0x55	; 85
    15ec:	de 4f       	sbci	r29, 0xFE	; 254
    15ee:	28 83       	st	Y, r18
    15f0:	cb 5a       	subi	r28, 0xAB	; 171
    15f2:	d1 40       	sbci	r29, 0x01	; 1
    15f4:	f2 e4       	ldi	r31, 0x42	; 66
    15f6:	c4 55       	subi	r28, 0x54	; 84
    15f8:	de 4f       	sbci	r29, 0xFE	; 254
    15fa:	f8 83       	st	Y, r31
    15fc:	cc 5a       	subi	r28, 0xAC	; 172
    15fe:	d1 40       	sbci	r29, 0x01	; 1
    1600:	28 e0       	ldi	r18, 0x08	; 8
    1602:	c3 55       	subi	r28, 0x53	; 83
    1604:	de 4f       	sbci	r29, 0xFE	; 254
    1606:	28 83       	st	Y, r18
    1608:	cd 5a       	subi	r28, 0xAD	; 173
    160a:	d1 40       	sbci	r29, 0x01	; 1
    160c:	f1 e0       	ldi	r31, 0x01	; 1
    160e:	c2 55       	subi	r28, 0x52	; 82
    1610:	de 4f       	sbci	r29, 0xFE	; 254
    1612:	f8 83       	st	Y, r31
    1614:	ce 5a       	subi	r28, 0xAE	; 174
    1616:	d1 40       	sbci	r29, 0x01	; 1
    1618:	2b e8       	ldi	r18, 0x8B	; 139
    161a:	c9 55       	subi	r28, 0x59	; 89
    161c:	de 4f       	sbci	r29, 0xFE	; 254
    161e:	28 83       	st	Y, r18
    1620:	c7 5a       	subi	r28, 0xA7	; 167
    1622:	d1 40       	sbci	r29, 0x01	; 1
    1624:	f1 e3       	ldi	r31, 0x31	; 49
    1626:	c8 55       	subi	r28, 0x58	; 88
    1628:	de 4f       	sbci	r29, 0xFE	; 254
    162a:	f8 83       	st	Y, r31
    162c:	c8 5a       	subi	r28, 0xA8	; 168
    162e:	d1 40       	sbci	r29, 0x01	; 1
    1630:	26 ec       	ldi	r18, 0xC6	; 198
    1632:	c7 55       	subi	r28, 0x57	; 87
    1634:	de 4f       	sbci	r29, 0xFE	; 254
    1636:	28 83       	st	Y, r18
    1638:	c9 5a       	subi	r28, 0xA9	; 169
    163a:	d1 40       	sbci	r29, 0x01	; 1
    163c:	f8 e0       	ldi	r31, 0x08	; 8
    163e:	c6 55       	subi	r28, 0x56	; 86
    1640:	de 4f       	sbci	r29, 0xFE	; 254
    1642:	f8 83       	st	Y, r31
    1644:	ca 5a       	subi	r28, 0xAA	; 170
    1646:	d1 40       	sbci	r29, 0x01	; 1
    1648:	2b ec       	ldi	r18, 0xCB	; 203
    164a:	cd 55       	subi	r28, 0x5D	; 93
    164c:	de 4f       	sbci	r29, 0xFE	; 254
    164e:	28 83       	st	Y, r18
    1650:	c3 5a       	subi	r28, 0xA3	; 163
    1652:	d1 40       	sbci	r29, 0x01	; 1
    1654:	f9 e3       	ldi	r31, 0x39	; 57
    1656:	cc 55       	subi	r28, 0x5C	; 92
    1658:	de 4f       	sbci	r29, 0xFE	; 254
    165a:	f8 83       	st	Y, r31
    165c:	c4 5a       	subi	r28, 0xA4	; 164
    165e:	d1 40       	sbci	r29, 0x01	; 1
    1660:	27 ee       	ldi	r18, 0xE7	; 231
    1662:	cb 55       	subi	r28, 0x5B	; 91
    1664:	de 4f       	sbci	r29, 0xFE	; 254
    1666:	28 83       	st	Y, r18
    1668:	c5 5a       	subi	r28, 0xA5	; 165
    166a:	d1 40       	sbci	r29, 0x01	; 1
    166c:	fc e0       	ldi	r31, 0x0C	; 12
    166e:	ca 55       	subi	r28, 0x5A	; 90
    1670:	de 4f       	sbci	r29, 0xFE	; 254
    1672:	f8 83       	st	Y, r31
    1674:	c6 5a       	subi	r28, 0xA6	; 166
    1676:	d1 40       	sbci	r29, 0x01	; 1
    1678:	2b e4       	ldi	r18, 0x4B	; 75
    167a:	c1 56       	subi	r28, 0x61	; 97
    167c:	de 4f       	sbci	r29, 0xFE	; 254
    167e:	28 83       	st	Y, r18
    1680:	cf 59       	subi	r28, 0x9F	; 159
    1682:	d1 40       	sbci	r29, 0x01	; 1
    1684:	f9 e2       	ldi	r31, 0x29	; 41
    1686:	c0 56       	subi	r28, 0x60	; 96
    1688:	de 4f       	sbci	r29, 0xFE	; 254
    168a:	f8 83       	st	Y, r31
    168c:	c0 5a       	subi	r28, 0xA0	; 160
    168e:	d1 40       	sbci	r29, 0x01	; 1
    1690:	25 ea       	ldi	r18, 0xA5	; 165
    1692:	cf 55       	subi	r28, 0x5F	; 95
    1694:	de 4f       	sbci	r29, 0xFE	; 254
    1696:	28 83       	st	Y, r18
    1698:	c1 5a       	subi	r28, 0xA1	; 161
    169a:	d1 40       	sbci	r29, 0x01	; 1
    169c:	f4 e0       	ldi	r31, 0x04	; 4
    169e:	ce 55       	subi	r28, 0x5E	; 94
    16a0:	de 4f       	sbci	r29, 0xFE	; 254
    16a2:	f8 83       	st	Y, r31
    16a4:	c2 5a       	subi	r28, 0xA2	; 162
    16a6:	d1 40       	sbci	r29, 0x01	; 1
    16a8:	2b ea       	ldi	r18, 0xAB	; 171
    16aa:	c5 56       	subi	r28, 0x65	; 101
    16ac:	de 4f       	sbci	r29, 0xFE	; 254
    16ae:	28 83       	st	Y, r18
    16b0:	cb 59       	subi	r28, 0x9B	; 155
    16b2:	d1 40       	sbci	r29, 0x01	; 1
    16b4:	f5 eb       	ldi	r31, 0xB5	; 181
    16b6:	c4 56       	subi	r28, 0x64	; 100
    16b8:	de 4f       	sbci	r29, 0xFE	; 254
    16ba:	f8 83       	st	Y, r31
    16bc:	cc 59       	subi	r28, 0x9C	; 156
    16be:	d1 40       	sbci	r29, 0x01	; 1
    16c0:	26 ed       	ldi	r18, 0xD6	; 214
    16c2:	c3 56       	subi	r28, 0x63	; 99
    16c4:	de 4f       	sbci	r29, 0xFE	; 254
    16c6:	28 83       	st	Y, r18
    16c8:	cd 59       	subi	r28, 0x9D	; 157
    16ca:	d1 40       	sbci	r29, 0x01	; 1
    16cc:	fa e0       	ldi	r31, 0x0A	; 10
    16ce:	c2 56       	subi	r28, 0x62	; 98
    16d0:	de 4f       	sbci	r29, 0xFE	; 254
    16d2:	f8 83       	st	Y, r31
    16d4:	ce 59       	subi	r28, 0x9E	; 158
    16d6:	d1 40       	sbci	r29, 0x01	; 1
    16d8:	2b ee       	ldi	r18, 0xEB	; 235
    16da:	c9 56       	subi	r28, 0x69	; 105
    16dc:	de 4f       	sbci	r29, 0xFE	; 254
    16de:	28 83       	st	Y, r18
    16e0:	c7 59       	subi	r28, 0x97	; 151
    16e2:	d1 40       	sbci	r29, 0x01	; 1
    16e4:	fd eb       	ldi	r31, 0xBD	; 189
    16e6:	c8 56       	subi	r28, 0x68	; 104
    16e8:	de 4f       	sbci	r29, 0xFE	; 254
    16ea:	f8 83       	st	Y, r31
    16ec:	c8 59       	subi	r28, 0x98	; 152
    16ee:	d1 40       	sbci	r29, 0x01	; 1
    16f0:	27 ef       	ldi	r18, 0xF7	; 247
    16f2:	c7 56       	subi	r28, 0x67	; 103
    16f4:	de 4f       	sbci	r29, 0xFE	; 254
    16f6:	28 83       	st	Y, r18
    16f8:	c9 59       	subi	r28, 0x99	; 153
    16fa:	d1 40       	sbci	r29, 0x01	; 1
    16fc:	fe e0       	ldi	r31, 0x0E	; 14
    16fe:	c6 56       	subi	r28, 0x66	; 102
    1700:	de 4f       	sbci	r29, 0xFE	; 254
    1702:	f8 83       	st	Y, r31
    1704:	ca 59       	subi	r28, 0x9A	; 154
    1706:	d1 40       	sbci	r29, 0x01	; 1
    1708:	2b e6       	ldi	r18, 0x6B	; 107
    170a:	cd 56       	subi	r28, 0x6D	; 109
    170c:	de 4f       	sbci	r29, 0xFE	; 254
    170e:	28 83       	st	Y, r18
    1710:	c3 59       	subi	r28, 0x93	; 147
    1712:	d1 40       	sbci	r29, 0x01	; 1
    1714:	fd ea       	ldi	r31, 0xAD	; 173
    1716:	cc 56       	subi	r28, 0x6C	; 108
    1718:	de 4f       	sbci	r29, 0xFE	; 254
    171a:	f8 83       	st	Y, r31
    171c:	c4 59       	subi	r28, 0x94	; 148
    171e:	d1 40       	sbci	r29, 0x01	; 1
    1720:	25 eb       	ldi	r18, 0xB5	; 181
    1722:	cb 56       	subi	r28, 0x6B	; 107
    1724:	de 4f       	sbci	r29, 0xFE	; 254
    1726:	28 83       	st	Y, r18
    1728:	c5 59       	subi	r28, 0x95	; 149
    172a:	d1 40       	sbci	r29, 0x01	; 1
    172c:	f6 e0       	ldi	r31, 0x06	; 6
    172e:	ca 56       	subi	r28, 0x6A	; 106
    1730:	de 4f       	sbci	r29, 0xFE	; 254
    1732:	f8 83       	st	Y, r31
    1734:	c6 59       	subi	r28, 0x96	; 150
    1736:	d1 40       	sbci	r29, 0x01	; 1
    1738:	2b e2       	ldi	r18, 0x2B	; 43
    173a:	c1 57       	subi	r28, 0x71	; 113
    173c:	de 4f       	sbci	r29, 0xFE	; 254
    173e:	28 83       	st	Y, r18
    1740:	cf 58       	subi	r28, 0x8F	; 143
    1742:	d1 40       	sbci	r29, 0x01	; 1
    1744:	f5 ea       	ldi	r31, 0xA5	; 165
    1746:	c0 57       	subi	r28, 0x70	; 112
    1748:	de 4f       	sbci	r29, 0xFE	; 254
    174a:	f8 83       	st	Y, r31
    174c:	c0 59       	subi	r28, 0x90	; 144
    174e:	d1 40       	sbci	r29, 0x01	; 1
    1750:	24 e9       	ldi	r18, 0x94	; 148
    1752:	cf 56       	subi	r28, 0x6F	; 111
    1754:	de 4f       	sbci	r29, 0xFE	; 254
    1756:	28 83       	st	Y, r18
    1758:	c1 59       	subi	r28, 0x91	; 145
    175a:	d1 40       	sbci	r29, 0x01	; 1
    175c:	f2 e0       	ldi	r31, 0x02	; 2
    175e:	ce 56       	subi	r28, 0x6E	; 110
    1760:	de 4f       	sbci	r29, 0xFE	; 254
    1762:	f8 83       	st	Y, r31
    1764:	c2 59       	subi	r28, 0x92	; 146
    1766:	d1 40       	sbci	r29, 0x01	; 1
    1768:	2b e9       	ldi	r18, 0x9B	; 155
    176a:	c5 57       	subi	r28, 0x75	; 117
    176c:	de 4f       	sbci	r29, 0xFE	; 254
    176e:	28 83       	st	Y, r18
    1770:	cb 58       	subi	r28, 0x8B	; 139
    1772:	d1 40       	sbci	r29, 0x01	; 1
    1774:	f3 e7       	ldi	r31, 0x73	; 115
    1776:	c4 57       	subi	r28, 0x74	; 116
    1778:	de 4f       	sbci	r29, 0xFE	; 254
    177a:	f8 83       	st	Y, r31
    177c:	cc 58       	subi	r28, 0x8C	; 140
    177e:	d1 40       	sbci	r29, 0x01	; 1
    1780:	2e ec       	ldi	r18, 0xCE	; 206
    1782:	c3 57       	subi	r28, 0x73	; 115
    1784:	de 4f       	sbci	r29, 0xFE	; 254
    1786:	28 83       	st	Y, r18
    1788:	cd 58       	subi	r28, 0x8D	; 141
    178a:	d1 40       	sbci	r29, 0x01	; 1
    178c:	f9 e0       	ldi	r31, 0x09	; 9
    178e:	c2 57       	subi	r28, 0x72	; 114
    1790:	de 4f       	sbci	r29, 0xFE	; 254
    1792:	f8 83       	st	Y, r31
    1794:	ce 58       	subi	r28, 0x8E	; 142
    1796:	d1 40       	sbci	r29, 0x01	; 1
    1798:	2b ed       	ldi	r18, 0xDB	; 219
    179a:	c9 57       	subi	r28, 0x79	; 121
    179c:	de 4f       	sbci	r29, 0xFE	; 254
    179e:	28 83       	st	Y, r18
    17a0:	c7 58       	subi	r28, 0x87	; 135
    17a2:	d1 40       	sbci	r29, 0x01	; 1
    17a4:	fb e7       	ldi	r31, 0x7B	; 123
    17a6:	c8 57       	subi	r28, 0x78	; 120
    17a8:	de 4f       	sbci	r29, 0xFE	; 254
    17aa:	f8 83       	st	Y, r31
    17ac:	c8 58       	subi	r28, 0x88	; 136
    17ae:	d1 40       	sbci	r29, 0x01	; 1
    17b0:	2f ee       	ldi	r18, 0xEF	; 239
    17b2:	c7 57       	subi	r28, 0x77	; 119
    17b4:	de 4f       	sbci	r29, 0xFE	; 254
    17b6:	28 83       	st	Y, r18
    17b8:	c9 58       	subi	r28, 0x89	; 137
    17ba:	d1 40       	sbci	r29, 0x01	; 1
    17bc:	fd e0       	ldi	r31, 0x0D	; 13
    17be:	c6 57       	subi	r28, 0x76	; 118
    17c0:	de 4f       	sbci	r29, 0xFE	; 254
    17c2:	f8 83       	st	Y, r31
    17c4:	ca 58       	subi	r28, 0x8A	; 138
    17c6:	d1 40       	sbci	r29, 0x01	; 1
    17c8:	2b e5       	ldi	r18, 0x5B	; 91
    17ca:	cd 57       	subi	r28, 0x7D	; 125
    17cc:	de 4f       	sbci	r29, 0xFE	; 254
    17ce:	28 83       	st	Y, r18
    17d0:	c3 58       	subi	r28, 0x83	; 131
    17d2:	d1 40       	sbci	r29, 0x01	; 1
    17d4:	fb e6       	ldi	r31, 0x6B	; 107
    17d6:	cc 57       	subi	r28, 0x7C	; 124
    17d8:	de 4f       	sbci	r29, 0xFE	; 254
    17da:	f8 83       	st	Y, r31
    17dc:	c4 58       	subi	r28, 0x84	; 132
    17de:	d1 40       	sbci	r29, 0x01	; 1
    17e0:	2d ea       	ldi	r18, 0xAD	; 173
    17e2:	cb 57       	subi	r28, 0x7B	; 123
    17e4:	de 4f       	sbci	r29, 0xFE	; 254
    17e6:	28 83       	st	Y, r18
    17e8:	c5 58       	subi	r28, 0x85	; 133
    17ea:	d1 40       	sbci	r29, 0x01	; 1
    17ec:	f5 e0       	ldi	r31, 0x05	; 5
    17ee:	ca 57       	subi	r28, 0x7A	; 122
    17f0:	de 4f       	sbci	r29, 0xFE	; 254
    17f2:	f8 83       	st	Y, r31
    17f4:	c6 58       	subi	r28, 0x86	; 134
    17f6:	d1 40       	sbci	r29, 0x01	; 1
    17f8:	2b eb       	ldi	r18, 0xBB	; 187
    17fa:	c1 58       	subi	r28, 0x81	; 129
    17fc:	de 4f       	sbci	r29, 0xFE	; 254
    17fe:	28 83       	st	Y, r18
    1800:	cf 57       	subi	r28, 0x7F	; 127
    1802:	d1 40       	sbci	r29, 0x01	; 1
    1804:	f7 ef       	ldi	r31, 0xF7	; 247
    1806:	c0 58       	subi	r28, 0x80	; 128
    1808:	de 4f       	sbci	r29, 0xFE	; 254
    180a:	f8 83       	st	Y, r31
    180c:	c0 58       	subi	r28, 0x80	; 128
    180e:	d1 40       	sbci	r29, 0x01	; 1
    1810:	2e ed       	ldi	r18, 0xDE	; 222
    1812:	cf 57       	subi	r28, 0x7F	; 127
    1814:	de 4f       	sbci	r29, 0xFE	; 254
    1816:	28 83       	st	Y, r18
    1818:	c1 58       	subi	r28, 0x81	; 129
    181a:	d1 40       	sbci	r29, 0x01	; 1
    181c:	fb e0       	ldi	r31, 0x0B	; 11
    181e:	ce 57       	subi	r28, 0x7E	; 126
    1820:	de 4f       	sbci	r29, 0xFE	; 254
    1822:	f8 83       	st	Y, r31
    1824:	c2 58       	subi	r28, 0x82	; 130
    1826:	d1 40       	sbci	r29, 0x01	; 1
    1828:	2b ef       	ldi	r18, 0xFB	; 251
    182a:	c5 58       	subi	r28, 0x85	; 133
    182c:	de 4f       	sbci	r29, 0xFE	; 254
    182e:	28 83       	st	Y, r18
    1830:	cb 57       	subi	r28, 0x7B	; 123
    1832:	d1 40       	sbci	r29, 0x01	; 1
    1834:	ff ef       	ldi	r31, 0xFF	; 255
    1836:	c4 58       	subi	r28, 0x84	; 132
    1838:	de 4f       	sbci	r29, 0xFE	; 254
    183a:	f8 83       	st	Y, r31
    183c:	cc 57       	subi	r28, 0x7C	; 124
    183e:	d1 40       	sbci	r29, 0x01	; 1
    1840:	2f ef       	ldi	r18, 0xFF	; 255
    1842:	c3 58       	subi	r28, 0x83	; 131
    1844:	de 4f       	sbci	r29, 0xFE	; 254
    1846:	28 83       	st	Y, r18
    1848:	cd 57       	subi	r28, 0x7D	; 125
    184a:	d1 40       	sbci	r29, 0x01	; 1
    184c:	ff e0       	ldi	r31, 0x0F	; 15
    184e:	c2 58       	subi	r28, 0x82	; 130
    1850:	de 4f       	sbci	r29, 0xFE	; 254
    1852:	f8 83       	st	Y, r31
    1854:	ce 57       	subi	r28, 0x7E	; 126
    1856:	d1 40       	sbci	r29, 0x01	; 1
    1858:	2b e7       	ldi	r18, 0x7B	; 123
    185a:	c9 58       	subi	r28, 0x89	; 137
    185c:	de 4f       	sbci	r29, 0xFE	; 254
    185e:	28 83       	st	Y, r18
    1860:	c7 57       	subi	r28, 0x77	; 119
    1862:	d1 40       	sbci	r29, 0x01	; 1
    1864:	ff ee       	ldi	r31, 0xEF	; 239
    1866:	c8 58       	subi	r28, 0x88	; 136
    1868:	de 4f       	sbci	r29, 0xFE	; 254
    186a:	f8 83       	st	Y, r31
    186c:	c8 57       	subi	r28, 0x78	; 120
    186e:	d1 40       	sbci	r29, 0x01	; 1
    1870:	2d eb       	ldi	r18, 0xBD	; 189
    1872:	c7 58       	subi	r28, 0x87	; 135
    1874:	de 4f       	sbci	r29, 0xFE	; 254
    1876:	28 83       	st	Y, r18
    1878:	c9 57       	subi	r28, 0x79	; 121
    187a:	d1 40       	sbci	r29, 0x01	; 1
    187c:	f7 e0       	ldi	r31, 0x07	; 7
    187e:	c6 58       	subi	r28, 0x86	; 134
    1880:	de 4f       	sbci	r29, 0xFE	; 254
    1882:	f8 83       	st	Y, r31
    1884:	ca 57       	subi	r28, 0x7A	; 122
    1886:	d1 40       	sbci	r29, 0x01	; 1
    1888:	2b e3       	ldi	r18, 0x3B	; 59
    188a:	cd 58       	subi	r28, 0x8D	; 141
    188c:	de 4f       	sbci	r29, 0xFE	; 254
    188e:	28 83       	st	Y, r18
    1890:	c3 57       	subi	r28, 0x73	; 115
    1892:	d1 40       	sbci	r29, 0x01	; 1
    1894:	f7 ee       	ldi	r31, 0xE7	; 231
    1896:	cc 58       	subi	r28, 0x8C	; 140
    1898:	de 4f       	sbci	r29, 0xFE	; 254
    189a:	f8 83       	st	Y, r31
    189c:	c4 57       	subi	r28, 0x74	; 116
    189e:	d1 40       	sbci	r29, 0x01	; 1
    18a0:	2c e9       	ldi	r18, 0x9C	; 156
    18a2:	cb 58       	subi	r28, 0x8B	; 139
    18a4:	de 4f       	sbci	r29, 0xFE	; 254
    18a6:	28 83       	st	Y, r18
    18a8:	c5 57       	subi	r28, 0x75	; 117
    18aa:	d1 40       	sbci	r29, 0x01	; 1
    18ac:	f3 e0       	ldi	r31, 0x03	; 3
    18ae:	ca 58       	subi	r28, 0x8A	; 138
    18b0:	de 4f       	sbci	r29, 0xFE	; 254
    18b2:	f8 83       	st	Y, r31
    18b4:	c6 57       	subi	r28, 0x76	; 118
    18b6:	d1 40       	sbci	r29, 0x01	; 1
    18b8:	2b e1       	ldi	r18, 0x1B	; 27
    18ba:	c1 59       	subi	r28, 0x91	; 145
    18bc:	de 4f       	sbci	r29, 0xFE	; 254
    18be:	28 83       	st	Y, r18
    18c0:	cf 56       	subi	r28, 0x6F	; 111
    18c2:	d1 40       	sbci	r29, 0x01	; 1
    18c4:	f3 e6       	ldi	r31, 0x63	; 99
    18c6:	c0 59       	subi	r28, 0x90	; 144
    18c8:	de 4f       	sbci	r29, 0xFE	; 254
    18ca:	f8 83       	st	Y, r31
    18cc:	c0 57       	subi	r28, 0x70	; 112
    18ce:	d1 40       	sbci	r29, 0x01	; 1
    18d0:	2c e8       	ldi	r18, 0x8C	; 140
    18d2:	cf 58       	subi	r28, 0x8F	; 143
    18d4:	de 4f       	sbci	r29, 0xFE	; 254
    18d6:	28 83       	st	Y, r18
    18d8:	c1 57       	subi	r28, 0x71	; 113
    18da:	d1 40       	sbci	r29, 0x01	; 1
    18dc:	f1 e0       	ldi	r31, 0x01	; 1
    18de:	ce 58       	subi	r28, 0x8E	; 142
    18e0:	de 4f       	sbci	r29, 0xFE	; 254
    18e2:	f8 83       	st	Y, r31
    18e4:	c2 57       	subi	r28, 0x72	; 114
    18e6:	d1 40       	sbci	r29, 0x01	; 1
    18e8:	2b e0       	ldi	r18, 0x0B	; 11
    18ea:	c5 59       	subi	r28, 0x95	; 149
    18ec:	de 4f       	sbci	r29, 0xFE	; 254
    18ee:	28 83       	st	Y, r18
    18f0:	cb 56       	subi	r28, 0x6B	; 107
    18f2:	d1 40       	sbci	r29, 0x01	; 1
    18f4:	f1 e2       	ldi	r31, 0x21	; 33
    18f6:	c4 59       	subi	r28, 0x94	; 148
    18f8:	de 4f       	sbci	r29, 0xFE	; 254
    18fa:	f8 83       	st	Y, r31
    18fc:	cc 56       	subi	r28, 0x6C	; 108
    18fe:	d1 40       	sbci	r29, 0x01	; 1
    1900:	24 e8       	ldi	r18, 0x84	; 132
    1902:	c3 59       	subi	r28, 0x93	; 147
    1904:	de 4f       	sbci	r29, 0xFE	; 254
    1906:	28 83       	st	Y, r18
    1908:	cd 56       	subi	r28, 0x6D	; 109
    190a:	d1 40       	sbci	r29, 0x01	; 1
    190c:	c2 59       	subi	r28, 0x92	; 146
    190e:	de 4f       	sbci	r29, 0xFE	; 254
    1910:	18 82       	st	Y, r1
    1912:	ce 56       	subi	r28, 0x6E	; 110
    1914:	d1 40       	sbci	r29, 0x01	; 1
    1916:	f0 e8       	ldi	r31, 0x80	; 128
    1918:	c1 52       	subi	r28, 0x21	; 33
    191a:	df 4f       	sbci	r29, 0xFF	; 255
    191c:	f8 83       	st	Y, r31
    191e:	cf 5d       	subi	r28, 0xDF	; 223
    1920:	d0 40       	sbci	r29, 0x00	; 0
    1922:	20 e1       	ldi	r18, 0x10	; 16
    1924:	c0 52       	subi	r28, 0x20	; 32
    1926:	df 4f       	sbci	r29, 0xFF	; 255
    1928:	28 83       	st	Y, r18
    192a:	c0 5e       	subi	r28, 0xE0	; 224
    192c:	d0 40       	sbci	r29, 0x00	; 0
    192e:	f2 e4       	ldi	r31, 0x42	; 66
    1930:	cf 51       	subi	r28, 0x1F	; 31
    1932:	df 4f       	sbci	r29, 0xFF	; 255
    1934:	f8 83       	st	Y, r31
    1936:	c1 5e       	subi	r28, 0xE1	; 225
    1938:	d0 40       	sbci	r29, 0x00	; 0
    193a:	28 e0       	ldi	r18, 0x08	; 8
    193c:	ce 51       	subi	r28, 0x1E	; 30
    193e:	df 4f       	sbci	r29, 0xFF	; 255
    1940:	28 83       	st	Y, r18
    1942:	c2 5e       	subi	r28, 0xE2	; 226
    1944:	d0 40       	sbci	r29, 0x00	; 0
    1946:	f0 ec       	ldi	r31, 0xC0	; 192
    1948:	c5 52       	subi	r28, 0x25	; 37
    194a:	df 4f       	sbci	r29, 0xFF	; 255
    194c:	f8 83       	st	Y, r31
    194e:	cb 5d       	subi	r28, 0xDB	; 219
    1950:	d0 40       	sbci	r29, 0x00	; 0
    1952:	28 e1       	ldi	r18, 0x18	; 24
    1954:	c4 52       	subi	r28, 0x24	; 36
    1956:	df 4f       	sbci	r29, 0xFF	; 255
    1958:	28 83       	st	Y, r18
    195a:	cc 5d       	subi	r28, 0xDC	; 220
    195c:	d0 40       	sbci	r29, 0x00	; 0
    195e:	f3 e6       	ldi	r31, 0x63	; 99
    1960:	c3 52       	subi	r28, 0x23	; 35
    1962:	df 4f       	sbci	r29, 0xFF	; 255
    1964:	f8 83       	st	Y, r31
    1966:	cd 5d       	subi	r28, 0xDD	; 221
    1968:	d0 40       	sbci	r29, 0x00	; 0
    196a:	2c e0       	ldi	r18, 0x0C	; 12
    196c:	c2 52       	subi	r28, 0x22	; 34
    196e:	df 4f       	sbci	r29, 0xFF	; 255
    1970:	28 83       	st	Y, r18
    1972:	ce 5d       	subi	r28, 0xDE	; 222
    1974:	d0 40       	sbci	r29, 0x00	; 0
    1976:	f0 e4       	ldi	r31, 0x40	; 64
    1978:	c9 52       	subi	r28, 0x29	; 41
    197a:	df 4f       	sbci	r29, 0xFF	; 255
    197c:	f8 83       	st	Y, r31
    197e:	c7 5d       	subi	r28, 0xD7	; 215
    1980:	d0 40       	sbci	r29, 0x00	; 0
    1982:	28 e0       	ldi	r18, 0x08	; 8
    1984:	c8 52       	subi	r28, 0x28	; 40
    1986:	df 4f       	sbci	r29, 0xFF	; 255
    1988:	28 83       	st	Y, r18
    198a:	c8 5d       	subi	r28, 0xD8	; 216
    198c:	d0 40       	sbci	r29, 0x00	; 0
    198e:	f1 e2       	ldi	r31, 0x21	; 33
    1990:	c7 52       	subi	r28, 0x27	; 39
    1992:	df 4f       	sbci	r29, 0xFF	; 255
    1994:	f8 83       	st	Y, r31
    1996:	c9 5d       	subi	r28, 0xD9	; 217
    1998:	d0 40       	sbci	r29, 0x00	; 0
    199a:	24 e0       	ldi	r18, 0x04	; 4
    199c:	c6 52       	subi	r28, 0x26	; 38
    199e:	df 4f       	sbci	r29, 0xFF	; 255
    19a0:	28 83       	st	Y, r18
    19a2:	ca 5d       	subi	r28, 0xDA	; 218
    19a4:	d0 40       	sbci	r29, 0x00	; 0
    19a6:	f0 ea       	ldi	r31, 0xA0	; 160
    19a8:	cd 52       	subi	r28, 0x2D	; 45
    19aa:	df 4f       	sbci	r29, 0xFF	; 255
    19ac:	f8 83       	st	Y, r31
    19ae:	c3 5d       	subi	r28, 0xD3	; 211
    19b0:	d0 40       	sbci	r29, 0x00	; 0
    19b2:	24 e9       	ldi	r18, 0x94	; 148
    19b4:	cc 52       	subi	r28, 0x2C	; 44
    19b6:	df 4f       	sbci	r29, 0xFF	; 255
    19b8:	28 83       	st	Y, r18
    19ba:	c4 5d       	subi	r28, 0xD4	; 212
    19bc:	d0 40       	sbci	r29, 0x00	; 0
    19be:	f2 e5       	ldi	r31, 0x52	; 82
    19c0:	cb 52       	subi	r28, 0x2B	; 43
    19c2:	df 4f       	sbci	r29, 0xFF	; 255
    19c4:	f8 83       	st	Y, r31
    19c6:	c5 5d       	subi	r28, 0xD5	; 213
    19c8:	d0 40       	sbci	r29, 0x00	; 0
    19ca:	2a e0       	ldi	r18, 0x0A	; 10
    19cc:	ca 52       	subi	r28, 0x2A	; 42
    19ce:	df 4f       	sbci	r29, 0xFF	; 255
    19d0:	28 83       	st	Y, r18
    19d2:	c6 5d       	subi	r28, 0xD6	; 214
    19d4:	d0 40       	sbci	r29, 0x00	; 0
    19d6:	f0 ee       	ldi	r31, 0xE0	; 224
    19d8:	c1 53       	subi	r28, 0x31	; 49
    19da:	df 4f       	sbci	r29, 0xFF	; 255
    19dc:	f8 83       	st	Y, r31
    19de:	cf 5c       	subi	r28, 0xCF	; 207
    19e0:	d0 40       	sbci	r29, 0x00	; 0
    19e2:	2c e9       	ldi	r18, 0x9C	; 156
    19e4:	c0 53       	subi	r28, 0x30	; 48
    19e6:	df 4f       	sbci	r29, 0xFF	; 255
    19e8:	28 83       	st	Y, r18
    19ea:	c0 5d       	subi	r28, 0xD0	; 208
    19ec:	d0 40       	sbci	r29, 0x00	; 0
    19ee:	f3 e7       	ldi	r31, 0x73	; 115
    19f0:	cf 52       	subi	r28, 0x2F	; 47
    19f2:	df 4f       	sbci	r29, 0xFF	; 255
    19f4:	f8 83       	st	Y, r31
    19f6:	c1 5d       	subi	r28, 0xD1	; 209
    19f8:	d0 40       	sbci	r29, 0x00	; 0
    19fa:	2e e0       	ldi	r18, 0x0E	; 14
    19fc:	ce 52       	subi	r28, 0x2E	; 46
    19fe:	df 4f       	sbci	r29, 0xFF	; 255
    1a00:	28 83       	st	Y, r18
    1a02:	c2 5d       	subi	r28, 0xD2	; 210
    1a04:	d0 40       	sbci	r29, 0x00	; 0
    1a06:	f0 e6       	ldi	r31, 0x60	; 96
    1a08:	c5 53       	subi	r28, 0x35	; 53
    1a0a:	df 4f       	sbci	r29, 0xFF	; 255
    1a0c:	f8 83       	st	Y, r31
    1a0e:	cb 5c       	subi	r28, 0xCB	; 203
    1a10:	d0 40       	sbci	r29, 0x00	; 0
    1a12:	2c e8       	ldi	r18, 0x8C	; 140
    1a14:	c4 53       	subi	r28, 0x34	; 52
    1a16:	df 4f       	sbci	r29, 0xFF	; 255
    1a18:	28 83       	st	Y, r18
    1a1a:	cc 5c       	subi	r28, 0xCC	; 204
    1a1c:	d0 40       	sbci	r29, 0x00	; 0
    1a1e:	f1 e3       	ldi	r31, 0x31	; 49
    1a20:	c3 53       	subi	r28, 0x33	; 51
    1a22:	df 4f       	sbci	r29, 0xFF	; 255
    1a24:	f8 83       	st	Y, r31
    1a26:	cd 5c       	subi	r28, 0xCD	; 205
    1a28:	d0 40       	sbci	r29, 0x00	; 0
    1a2a:	26 e0       	ldi	r18, 0x06	; 6
    1a2c:	c2 53       	subi	r28, 0x32	; 50
    1a2e:	df 4f       	sbci	r29, 0xFF	; 255
    1a30:	28 83       	st	Y, r18
    1a32:	ce 5c       	subi	r28, 0xCE	; 206
    1a34:	d0 40       	sbci	r29, 0x00	; 0
    1a36:	f0 e2       	ldi	r31, 0x20	; 32
    1a38:	c9 53       	subi	r28, 0x39	; 57
    1a3a:	df 4f       	sbci	r29, 0xFF	; 255
    1a3c:	f8 83       	st	Y, r31
    1a3e:	c7 5c       	subi	r28, 0xC7	; 199
    1a40:	d0 40       	sbci	r29, 0x00	; 0
    1a42:	24 e8       	ldi	r18, 0x84	; 132
    1a44:	c8 53       	subi	r28, 0x38	; 56
    1a46:	df 4f       	sbci	r29, 0xFF	; 255
    1a48:	28 83       	st	Y, r18
    1a4a:	c8 5c       	subi	r28, 0xC8	; 200
    1a4c:	d0 40       	sbci	r29, 0x00	; 0
    1a4e:	f0 e1       	ldi	r31, 0x10	; 16
    1a50:	c7 53       	subi	r28, 0x37	; 55
    1a52:	df 4f       	sbci	r29, 0xFF	; 255
    1a54:	f8 83       	st	Y, r31
    1a56:	c9 5c       	subi	r28, 0xC9	; 201
    1a58:	d0 40       	sbci	r29, 0x00	; 0
    1a5a:	22 e0       	ldi	r18, 0x02	; 2
    1a5c:	c6 53       	subi	r28, 0x36	; 54
    1a5e:	df 4f       	sbci	r29, 0xFF	; 255
    1a60:	28 83       	st	Y, r18
    1a62:	ca 5c       	subi	r28, 0xCA	; 202
    1a64:	d0 40       	sbci	r29, 0x00	; 0
    1a66:	f0 e9       	ldi	r31, 0x90	; 144
    1a68:	cd 53       	subi	r28, 0x3D	; 61
    1a6a:	df 4f       	sbci	r29, 0xFF	; 255
    1a6c:	f8 83       	st	Y, r31
    1a6e:	c3 5c       	subi	r28, 0xC3	; 195
    1a70:	d0 40       	sbci	r29, 0x00	; 0
    1a72:	22 e5       	ldi	r18, 0x52	; 82
    1a74:	cc 53       	subi	r28, 0x3C	; 60
    1a76:	df 4f       	sbci	r29, 0xFF	; 255
    1a78:	28 83       	st	Y, r18
    1a7a:	c4 5c       	subi	r28, 0xC4	; 196
    1a7c:	d0 40       	sbci	r29, 0x00	; 0
    1a7e:	fa e4       	ldi	r31, 0x4A	; 74
    1a80:	cb 53       	subi	r28, 0x3B	; 59
    1a82:	df 4f       	sbci	r29, 0xFF	; 255
    1a84:	f8 83       	st	Y, r31
    1a86:	c5 5c       	subi	r28, 0xC5	; 197
    1a88:	d0 40       	sbci	r29, 0x00	; 0
    1a8a:	29 e0       	ldi	r18, 0x09	; 9
    1a8c:	ca 53       	subi	r28, 0x3A	; 58
    1a8e:	df 4f       	sbci	r29, 0xFF	; 255
    1a90:	28 83       	st	Y, r18
    1a92:	c6 5c       	subi	r28, 0xC6	; 198
    1a94:	d0 40       	sbci	r29, 0x00	; 0
    1a96:	f0 ed       	ldi	r31, 0xD0	; 208
    1a98:	c1 54       	subi	r28, 0x41	; 65
    1a9a:	df 4f       	sbci	r29, 0xFF	; 255
    1a9c:	f8 83       	st	Y, r31
    1a9e:	cf 5b       	subi	r28, 0xBF	; 191
    1aa0:	d0 40       	sbci	r29, 0x00	; 0
    1aa2:	2a e5       	ldi	r18, 0x5A	; 90
    1aa4:	c0 54       	subi	r28, 0x40	; 64
    1aa6:	df 4f       	sbci	r29, 0xFF	; 255
    1aa8:	28 83       	st	Y, r18
    1aaa:	c0 5c       	subi	r28, 0xC0	; 192
    1aac:	d0 40       	sbci	r29, 0x00	; 0
    1aae:	fb e6       	ldi	r31, 0x6B	; 107
    1ab0:	cf 53       	subi	r28, 0x3F	; 63
    1ab2:	df 4f       	sbci	r29, 0xFF	; 255
    1ab4:	f8 83       	st	Y, r31
    1ab6:	c1 5c       	subi	r28, 0xC1	; 193
    1ab8:	d0 40       	sbci	r29, 0x00	; 0
    1aba:	2d e0       	ldi	r18, 0x0D	; 13
    1abc:	ce 53       	subi	r28, 0x3E	; 62
    1abe:	df 4f       	sbci	r29, 0xFF	; 255
    1ac0:	28 83       	st	Y, r18
    1ac2:	c2 5c       	subi	r28, 0xC2	; 194
    1ac4:	d0 40       	sbci	r29, 0x00	; 0
    1ac6:	f0 e5       	ldi	r31, 0x50	; 80
    1ac8:	c5 54       	subi	r28, 0x45	; 69
    1aca:	df 4f       	sbci	r29, 0xFF	; 255
    1acc:	f8 83       	st	Y, r31
    1ace:	cb 5b       	subi	r28, 0xBB	; 187
    1ad0:	d0 40       	sbci	r29, 0x00	; 0
    1ad2:	2a e4       	ldi	r18, 0x4A	; 74
    1ad4:	c4 54       	subi	r28, 0x44	; 68
    1ad6:	df 4f       	sbci	r29, 0xFF	; 255
    1ad8:	28 83       	st	Y, r18
    1ada:	cc 5b       	subi	r28, 0xBC	; 188
    1adc:	d0 40       	sbci	r29, 0x00	; 0
    1ade:	f9 e2       	ldi	r31, 0x29	; 41
    1ae0:	c3 54       	subi	r28, 0x43	; 67
    1ae2:	df 4f       	sbci	r29, 0xFF	; 255
    1ae4:	f8 83       	st	Y, r31
    1ae6:	cd 5b       	subi	r28, 0xBD	; 189
    1ae8:	d0 40       	sbci	r29, 0x00	; 0
    1aea:	25 e0       	ldi	r18, 0x05	; 5
    1aec:	c2 54       	subi	r28, 0x42	; 66
    1aee:	df 4f       	sbci	r29, 0xFF	; 255
    1af0:	28 83       	st	Y, r18
    1af2:	ce 5b       	subi	r28, 0xBE	; 190
    1af4:	d0 40       	sbci	r29, 0x00	; 0
    1af6:	f0 eb       	ldi	r31, 0xB0	; 176
    1af8:	c9 54       	subi	r28, 0x49	; 73
    1afa:	df 4f       	sbci	r29, 0xFF	; 255
    1afc:	f8 83       	st	Y, r31
    1afe:	c7 5b       	subi	r28, 0xB7	; 183
    1b00:	d0 40       	sbci	r29, 0x00	; 0
    1b02:	26 ed       	ldi	r18, 0xD6	; 214
    1b04:	c8 54       	subi	r28, 0x48	; 72
    1b06:	df 4f       	sbci	r29, 0xFF	; 255
    1b08:	28 83       	st	Y, r18
    1b0a:	c8 5b       	subi	r28, 0xB8	; 184
    1b0c:	d0 40       	sbci	r29, 0x00	; 0
    1b0e:	fa e5       	ldi	r31, 0x5A	; 90
    1b10:	c7 54       	subi	r28, 0x47	; 71
    1b12:	df 4f       	sbci	r29, 0xFF	; 255
    1b14:	f8 83       	st	Y, r31
    1b16:	c9 5b       	subi	r28, 0xB9	; 185
    1b18:	d0 40       	sbci	r29, 0x00	; 0
    1b1a:	2b e0       	ldi	r18, 0x0B	; 11
    1b1c:	c6 54       	subi	r28, 0x46	; 70
    1b1e:	df 4f       	sbci	r29, 0xFF	; 255
    1b20:	28 83       	st	Y, r18
    1b22:	ca 5b       	subi	r28, 0xBA	; 186
    1b24:	d0 40       	sbci	r29, 0x00	; 0
    1b26:	f0 ef       	ldi	r31, 0xF0	; 240
    1b28:	cd 54       	subi	r28, 0x4D	; 77
    1b2a:	df 4f       	sbci	r29, 0xFF	; 255
    1b2c:	f8 83       	st	Y, r31
    1b2e:	c3 5b       	subi	r28, 0xB3	; 179
    1b30:	d0 40       	sbci	r29, 0x00	; 0
    1b32:	2e ed       	ldi	r18, 0xDE	; 222
    1b34:	cc 54       	subi	r28, 0x4C	; 76
    1b36:	df 4f       	sbci	r29, 0xFF	; 255
    1b38:	28 83       	st	Y, r18
    1b3a:	c4 5b       	subi	r28, 0xB4	; 180
    1b3c:	d0 40       	sbci	r29, 0x00	; 0
    1b3e:	fb e7       	ldi	r31, 0x7B	; 123
    1b40:	cb 54       	subi	r28, 0x4B	; 75
    1b42:	df 4f       	sbci	r29, 0xFF	; 255
    1b44:	f8 83       	st	Y, r31
    1b46:	c5 5b       	subi	r28, 0xB5	; 181
    1b48:	d0 40       	sbci	r29, 0x00	; 0
    1b4a:	2f e0       	ldi	r18, 0x0F	; 15
    1b4c:	ca 54       	subi	r28, 0x4A	; 74
    1b4e:	df 4f       	sbci	r29, 0xFF	; 255
    1b50:	28 83       	st	Y, r18
    1b52:	c6 5b       	subi	r28, 0xB6	; 182
    1b54:	d0 40       	sbci	r29, 0x00	; 0
    1b56:	f0 e7       	ldi	r31, 0x70	; 112
    1b58:	c1 55       	subi	r28, 0x51	; 81
    1b5a:	df 4f       	sbci	r29, 0xFF	; 255
    1b5c:	f8 83       	st	Y, r31
    1b5e:	cf 5a       	subi	r28, 0xAF	; 175
    1b60:	d0 40       	sbci	r29, 0x00	; 0
    1b62:	2e ec       	ldi	r18, 0xCE	; 206
    1b64:	c0 55       	subi	r28, 0x50	; 80
    1b66:	df 4f       	sbci	r29, 0xFF	; 255
    1b68:	28 83       	st	Y, r18
    1b6a:	c0 5b       	subi	r28, 0xB0	; 176
    1b6c:	d0 40       	sbci	r29, 0x00	; 0
    1b6e:	f9 e3       	ldi	r31, 0x39	; 57
    1b70:	cf 54       	subi	r28, 0x4F	; 79
    1b72:	df 4f       	sbci	r29, 0xFF	; 255
    1b74:	f8 83       	st	Y, r31
    1b76:	c1 5b       	subi	r28, 0xB1	; 177
    1b78:	d0 40       	sbci	r29, 0x00	; 0
    1b7a:	27 e0       	ldi	r18, 0x07	; 7
    1b7c:	ce 54       	subi	r28, 0x4E	; 78
    1b7e:	df 4f       	sbci	r29, 0xFF	; 255
    1b80:	28 83       	st	Y, r18
    1b82:	c2 5b       	subi	r28, 0xB2	; 178
    1b84:	d0 40       	sbci	r29, 0x00	; 0
    1b86:	f0 e3       	ldi	r31, 0x30	; 48
    1b88:	c5 55       	subi	r28, 0x55	; 85
    1b8a:	df 4f       	sbci	r29, 0xFF	; 255
    1b8c:	f8 83       	st	Y, r31
    1b8e:	cb 5a       	subi	r28, 0xAB	; 171
    1b90:	d0 40       	sbci	r29, 0x00	; 0
    1b92:	26 ec       	ldi	r18, 0xC6	; 198
    1b94:	c4 55       	subi	r28, 0x54	; 84
    1b96:	df 4f       	sbci	r29, 0xFF	; 255
    1b98:	28 83       	st	Y, r18
    1b9a:	cc 5a       	subi	r28, 0xAC	; 172
    1b9c:	d0 40       	sbci	r29, 0x00	; 0
    1b9e:	f8 e1       	ldi	r31, 0x18	; 24
    1ba0:	c3 55       	subi	r28, 0x53	; 83
    1ba2:	df 4f       	sbci	r29, 0xFF	; 255
    1ba4:	f8 83       	st	Y, r31
    1ba6:	cd 5a       	subi	r28, 0xAD	; 173
    1ba8:	d0 40       	sbci	r29, 0x00	; 0
    1baa:	23 e0       	ldi	r18, 0x03	; 3
    1bac:	c2 55       	subi	r28, 0x52	; 82
    1bae:	df 4f       	sbci	r29, 0xFF	; 255
    1bb0:	28 83       	st	Y, r18
    1bb2:	ce 5a       	subi	r28, 0xAE	; 174
    1bb4:	d0 40       	sbci	r29, 0x00	; 0
    1bb6:	f0 e1       	ldi	r31, 0x10	; 16
    1bb8:	c9 55       	subi	r28, 0x59	; 89
    1bba:	df 4f       	sbci	r29, 0xFF	; 255
    1bbc:	f8 83       	st	Y, r31
    1bbe:	c7 5a       	subi	r28, 0xA7	; 167
    1bc0:	d0 40       	sbci	r29, 0x00	; 0
    1bc2:	22 e4       	ldi	r18, 0x42	; 66
    1bc4:	c8 55       	subi	r28, 0x58	; 88
    1bc6:	df 4f       	sbci	r29, 0xFF	; 255
    1bc8:	28 83       	st	Y, r18
    1bca:	c8 5a       	subi	r28, 0xA8	; 168
    1bcc:	d0 40       	sbci	r29, 0x00	; 0
    1bce:	f8 e0       	ldi	r31, 0x08	; 8
    1bd0:	c7 55       	subi	r28, 0x57	; 87
    1bd2:	df 4f       	sbci	r29, 0xFF	; 255
    1bd4:	f8 83       	st	Y, r31
    1bd6:	c9 5a       	subi	r28, 0xA9	; 169
    1bd8:	d0 40       	sbci	r29, 0x00	; 0
    1bda:	21 e0       	ldi	r18, 0x01	; 1
    1bdc:	c6 55       	subi	r28, 0x56	; 86
    1bde:	df 4f       	sbci	r29, 0xFF	; 255
    1be0:	28 83       	st	Y, r18
    1be2:	ca 5a       	subi	r28, 0xAA	; 170
    1be4:	d0 40       	sbci	r29, 0x00	; 0
    1be6:	f8 e8       	ldi	r31, 0x88	; 136
    1be8:	cd 55       	subi	r28, 0x5D	; 93
    1bea:	df 4f       	sbci	r29, 0xFF	; 255
    1bec:	f8 83       	st	Y, r31
    1bee:	c3 5a       	subi	r28, 0xA3	; 163
    1bf0:	d0 40       	sbci	r29, 0x00	; 0
    1bf2:	21 e3       	ldi	r18, 0x31	; 49
    1bf4:	cc 55       	subi	r28, 0x5C	; 92
    1bf6:	df 4f       	sbci	r29, 0xFF	; 255
    1bf8:	28 83       	st	Y, r18
    1bfa:	c4 5a       	subi	r28, 0xA4	; 164
    1bfc:	d0 40       	sbci	r29, 0x00	; 0
    1bfe:	f6 ec       	ldi	r31, 0xC6	; 198
    1c00:	cb 55       	subi	r28, 0x5B	; 91
    1c02:	df 4f       	sbci	r29, 0xFF	; 255
    1c04:	f8 83       	st	Y, r31
    1c06:	c5 5a       	subi	r28, 0xA5	; 165
    1c08:	d0 40       	sbci	r29, 0x00	; 0
    1c0a:	28 e0       	ldi	r18, 0x08	; 8
    1c0c:	ca 55       	subi	r28, 0x5A	; 90
    1c0e:	df 4f       	sbci	r29, 0xFF	; 255
    1c10:	28 83       	st	Y, r18
    1c12:	c6 5a       	subi	r28, 0xA6	; 166
    1c14:	d0 40       	sbci	r29, 0x00	; 0
    1c16:	f8 ec       	ldi	r31, 0xC8	; 200
    1c18:	c1 56       	subi	r28, 0x61	; 97
    1c1a:	df 4f       	sbci	r29, 0xFF	; 255
    1c1c:	f8 83       	st	Y, r31
    1c1e:	cf 59       	subi	r28, 0x9F	; 159
    1c20:	d0 40       	sbci	r29, 0x00	; 0
    1c22:	29 e3       	ldi	r18, 0x39	; 57
    1c24:	c0 56       	subi	r28, 0x60	; 96
    1c26:	df 4f       	sbci	r29, 0xFF	; 255
    1c28:	28 83       	st	Y, r18
    1c2a:	c0 5a       	subi	r28, 0xA0	; 160
    1c2c:	d0 40       	sbci	r29, 0x00	; 0
    1c2e:	f7 ee       	ldi	r31, 0xE7	; 231
    1c30:	cf 55       	subi	r28, 0x5F	; 95
    1c32:	df 4f       	sbci	r29, 0xFF	; 255
    1c34:	f8 83       	st	Y, r31
    1c36:	c1 5a       	subi	r28, 0xA1	; 161
    1c38:	d0 40       	sbci	r29, 0x00	; 0
    1c3a:	2c e0       	ldi	r18, 0x0C	; 12
    1c3c:	ce 55       	subi	r28, 0x5E	; 94
    1c3e:	df 4f       	sbci	r29, 0xFF	; 255
    1c40:	28 83       	st	Y, r18
    1c42:	c2 5a       	subi	r28, 0xA2	; 162
    1c44:	d0 40       	sbci	r29, 0x00	; 0
    1c46:	f8 e4       	ldi	r31, 0x48	; 72
    1c48:	c5 56       	subi	r28, 0x65	; 101
    1c4a:	df 4f       	sbci	r29, 0xFF	; 255
    1c4c:	f8 83       	st	Y, r31
    1c4e:	cb 59       	subi	r28, 0x9B	; 155
    1c50:	d0 40       	sbci	r29, 0x00	; 0
    1c52:	29 e2       	ldi	r18, 0x29	; 41
    1c54:	c4 56       	subi	r28, 0x64	; 100
    1c56:	df 4f       	sbci	r29, 0xFF	; 255
    1c58:	28 83       	st	Y, r18
    1c5a:	cc 59       	subi	r28, 0x9C	; 156
    1c5c:	d0 40       	sbci	r29, 0x00	; 0
    1c5e:	f5 ea       	ldi	r31, 0xA5	; 165
    1c60:	c3 56       	subi	r28, 0x63	; 99
    1c62:	df 4f       	sbci	r29, 0xFF	; 255
    1c64:	f8 83       	st	Y, r31
    1c66:	cd 59       	subi	r28, 0x9D	; 157
    1c68:	d0 40       	sbci	r29, 0x00	; 0
    1c6a:	24 e0       	ldi	r18, 0x04	; 4
    1c6c:	c2 56       	subi	r28, 0x62	; 98
    1c6e:	df 4f       	sbci	r29, 0xFF	; 255
    1c70:	28 83       	st	Y, r18
    1c72:	ce 59       	subi	r28, 0x9E	; 158
    1c74:	d0 40       	sbci	r29, 0x00	; 0
    1c76:	f8 ea       	ldi	r31, 0xA8	; 168
    1c78:	c9 56       	subi	r28, 0x69	; 105
    1c7a:	df 4f       	sbci	r29, 0xFF	; 255
    1c7c:	f8 83       	st	Y, r31
    1c7e:	c7 59       	subi	r28, 0x97	; 151
    1c80:	d0 40       	sbci	r29, 0x00	; 0
    1c82:	25 eb       	ldi	r18, 0xB5	; 181
    1c84:	c8 56       	subi	r28, 0x68	; 104
    1c86:	df 4f       	sbci	r29, 0xFF	; 255
    1c88:	28 83       	st	Y, r18
    1c8a:	c8 59       	subi	r28, 0x98	; 152
    1c8c:	d0 40       	sbci	r29, 0x00	; 0
    1c8e:	f6 ed       	ldi	r31, 0xD6	; 214
    1c90:	c7 56       	subi	r28, 0x67	; 103
    1c92:	df 4f       	sbci	r29, 0xFF	; 255
    1c94:	f8 83       	st	Y, r31
    1c96:	c9 59       	subi	r28, 0x99	; 153
    1c98:	d0 40       	sbci	r29, 0x00	; 0
    1c9a:	2a e0       	ldi	r18, 0x0A	; 10
    1c9c:	c6 56       	subi	r28, 0x66	; 102
    1c9e:	df 4f       	sbci	r29, 0xFF	; 255
    1ca0:	28 83       	st	Y, r18
    1ca2:	ca 59       	subi	r28, 0x9A	; 154
    1ca4:	d0 40       	sbci	r29, 0x00	; 0
    1ca6:	f8 ee       	ldi	r31, 0xE8	; 232
    1ca8:	cd 56       	subi	r28, 0x6D	; 109
    1caa:	df 4f       	sbci	r29, 0xFF	; 255
    1cac:	f8 83       	st	Y, r31
    1cae:	c3 59       	subi	r28, 0x93	; 147
    1cb0:	d0 40       	sbci	r29, 0x00	; 0
    1cb2:	2d eb       	ldi	r18, 0xBD	; 189
    1cb4:	cc 56       	subi	r28, 0x6C	; 108
    1cb6:	df 4f       	sbci	r29, 0xFF	; 255
    1cb8:	28 83       	st	Y, r18
    1cba:	c4 59       	subi	r28, 0x94	; 148
    1cbc:	d0 40       	sbci	r29, 0x00	; 0
    1cbe:	f7 ef       	ldi	r31, 0xF7	; 247
    1cc0:	cb 56       	subi	r28, 0x6B	; 107
    1cc2:	df 4f       	sbci	r29, 0xFF	; 255
    1cc4:	f8 83       	st	Y, r31
    1cc6:	c5 59       	subi	r28, 0x95	; 149
    1cc8:	d0 40       	sbci	r29, 0x00	; 0
    1cca:	2e e0       	ldi	r18, 0x0E	; 14
    1ccc:	ca 56       	subi	r28, 0x6A	; 106
    1cce:	df 4f       	sbci	r29, 0xFF	; 255
    1cd0:	28 83       	st	Y, r18
    1cd2:	c6 59       	subi	r28, 0x96	; 150
    1cd4:	d0 40       	sbci	r29, 0x00	; 0
    1cd6:	f8 e6       	ldi	r31, 0x68	; 104
    1cd8:	c1 57       	subi	r28, 0x71	; 113
    1cda:	df 4f       	sbci	r29, 0xFF	; 255
    1cdc:	f8 83       	st	Y, r31
    1cde:	cf 58       	subi	r28, 0x8F	; 143
    1ce0:	d0 40       	sbci	r29, 0x00	; 0
    1ce2:	2d ea       	ldi	r18, 0xAD	; 173
    1ce4:	c0 57       	subi	r28, 0x70	; 112
    1ce6:	df 4f       	sbci	r29, 0xFF	; 255
    1ce8:	28 83       	st	Y, r18
    1cea:	c0 59       	subi	r28, 0x90	; 144
    1cec:	d0 40       	sbci	r29, 0x00	; 0
    1cee:	f5 eb       	ldi	r31, 0xB5	; 181
    1cf0:	cf 56       	subi	r28, 0x6F	; 111
    1cf2:	df 4f       	sbci	r29, 0xFF	; 255
    1cf4:	f8 83       	st	Y, r31
    1cf6:	c1 59       	subi	r28, 0x91	; 145
    1cf8:	d0 40       	sbci	r29, 0x00	; 0
    1cfa:	26 e0       	ldi	r18, 0x06	; 6
    1cfc:	ce 56       	subi	r28, 0x6E	; 110
    1cfe:	df 4f       	sbci	r29, 0xFF	; 255
    1d00:	28 83       	st	Y, r18
    1d02:	c2 59       	subi	r28, 0x92	; 146
    1d04:	d0 40       	sbci	r29, 0x00	; 0
    1d06:	f8 e2       	ldi	r31, 0x28	; 40
    1d08:	c5 57       	subi	r28, 0x75	; 117
    1d0a:	df 4f       	sbci	r29, 0xFF	; 255
    1d0c:	f8 83       	st	Y, r31
    1d0e:	cb 58       	subi	r28, 0x8B	; 139
    1d10:	d0 40       	sbci	r29, 0x00	; 0
    1d12:	25 ea       	ldi	r18, 0xA5	; 165
    1d14:	c4 57       	subi	r28, 0x74	; 116
    1d16:	df 4f       	sbci	r29, 0xFF	; 255
    1d18:	28 83       	st	Y, r18
    1d1a:	cc 58       	subi	r28, 0x8C	; 140
    1d1c:	d0 40       	sbci	r29, 0x00	; 0
    1d1e:	f4 e9       	ldi	r31, 0x94	; 148
    1d20:	c3 57       	subi	r28, 0x73	; 115
    1d22:	df 4f       	sbci	r29, 0xFF	; 255
    1d24:	f8 83       	st	Y, r31
    1d26:	cd 58       	subi	r28, 0x8D	; 141
    1d28:	d0 40       	sbci	r29, 0x00	; 0
    1d2a:	22 e0       	ldi	r18, 0x02	; 2
    1d2c:	c2 57       	subi	r28, 0x72	; 114
    1d2e:	df 4f       	sbci	r29, 0xFF	; 255
    1d30:	28 83       	st	Y, r18
    1d32:	ce 58       	subi	r28, 0x8E	; 142
    1d34:	d0 40       	sbci	r29, 0x00	; 0
    1d36:	f8 e9       	ldi	r31, 0x98	; 152
    1d38:	c9 57       	subi	r28, 0x79	; 121
    1d3a:	df 4f       	sbci	r29, 0xFF	; 255
    1d3c:	f8 83       	st	Y, r31
    1d3e:	c7 58       	subi	r28, 0x87	; 135
    1d40:	d0 40       	sbci	r29, 0x00	; 0
    1d42:	23 e7       	ldi	r18, 0x73	; 115
    1d44:	c8 57       	subi	r28, 0x78	; 120
    1d46:	df 4f       	sbci	r29, 0xFF	; 255
    1d48:	28 83       	st	Y, r18
    1d4a:	c8 58       	subi	r28, 0x88	; 136
    1d4c:	d0 40       	sbci	r29, 0x00	; 0
    1d4e:	fe ec       	ldi	r31, 0xCE	; 206
    1d50:	c7 57       	subi	r28, 0x77	; 119
    1d52:	df 4f       	sbci	r29, 0xFF	; 255
    1d54:	f8 83       	st	Y, r31
    1d56:	c9 58       	subi	r28, 0x89	; 137
    1d58:	d0 40       	sbci	r29, 0x00	; 0
    1d5a:	29 e0       	ldi	r18, 0x09	; 9
    1d5c:	c6 57       	subi	r28, 0x76	; 118
    1d5e:	df 4f       	sbci	r29, 0xFF	; 255
    1d60:	28 83       	st	Y, r18
    1d62:	ca 58       	subi	r28, 0x8A	; 138
    1d64:	d0 40       	sbci	r29, 0x00	; 0
    1d66:	f8 ed       	ldi	r31, 0xD8	; 216
    1d68:	cd 57       	subi	r28, 0x7D	; 125
    1d6a:	df 4f       	sbci	r29, 0xFF	; 255
    1d6c:	f8 83       	st	Y, r31
    1d6e:	c3 58       	subi	r28, 0x83	; 131
    1d70:	d0 40       	sbci	r29, 0x00	; 0
    1d72:	2b e7       	ldi	r18, 0x7B	; 123
    1d74:	cc 57       	subi	r28, 0x7C	; 124
    1d76:	df 4f       	sbci	r29, 0xFF	; 255
    1d78:	28 83       	st	Y, r18
    1d7a:	c4 58       	subi	r28, 0x84	; 132
    1d7c:	d0 40       	sbci	r29, 0x00	; 0
    1d7e:	ff ee       	ldi	r31, 0xEF	; 239
    1d80:	cb 57       	subi	r28, 0x7B	; 123
    1d82:	df 4f       	sbci	r29, 0xFF	; 255
    1d84:	f8 83       	st	Y, r31
    1d86:	c5 58       	subi	r28, 0x85	; 133
    1d88:	d0 40       	sbci	r29, 0x00	; 0
    1d8a:	2d e0       	ldi	r18, 0x0D	; 13
    1d8c:	ca 57       	subi	r28, 0x7A	; 122
    1d8e:	df 4f       	sbci	r29, 0xFF	; 255
    1d90:	28 83       	st	Y, r18
    1d92:	c6 58       	subi	r28, 0x86	; 134
    1d94:	d0 40       	sbci	r29, 0x00	; 0
    1d96:	f8 e5       	ldi	r31, 0x58	; 88
    1d98:	c1 58       	subi	r28, 0x81	; 129
    1d9a:	df 4f       	sbci	r29, 0xFF	; 255
    1d9c:	f8 83       	st	Y, r31
    1d9e:	cf 57       	subi	r28, 0x7F	; 127
    1da0:	d0 40       	sbci	r29, 0x00	; 0
    1da2:	2b e6       	ldi	r18, 0x6B	; 107
    1da4:	c0 58       	subi	r28, 0x80	; 128
    1da6:	df 4f       	sbci	r29, 0xFF	; 255
    1da8:	28 83       	st	Y, r18
    1daa:	c0 58       	subi	r28, 0x80	; 128
    1dac:	d0 40       	sbci	r29, 0x00	; 0
    1dae:	fd ea       	ldi	r31, 0xAD	; 173
    1db0:	cf 57       	subi	r28, 0x7F	; 127
    1db2:	df 4f       	sbci	r29, 0xFF	; 255
    1db4:	f8 83       	st	Y, r31
    1db6:	c1 58       	subi	r28, 0x81	; 129
    1db8:	d0 40       	sbci	r29, 0x00	; 0
    1dba:	25 e0       	ldi	r18, 0x05	; 5
    1dbc:	ce 57       	subi	r28, 0x7E	; 126
    1dbe:	df 4f       	sbci	r29, 0xFF	; 255
    1dc0:	28 83       	st	Y, r18
    1dc2:	c2 58       	subi	r28, 0x82	; 130
    1dc4:	d0 40       	sbci	r29, 0x00	; 0
    1dc6:	f8 eb       	ldi	r31, 0xB8	; 184
    1dc8:	ec 96       	adiw	r28, 0x3c	; 60
    1dca:	ff af       	std	Y+63, r31	; 0x3f
    1dcc:	ec 97       	sbiw	r28, 0x3c	; 60
    1dce:	27 ef       	ldi	r18, 0xF7	; 247
    1dd0:	ed 96       	adiw	r28, 0x3d	; 61
    1dd2:	2f af       	std	Y+63, r18	; 0x3f
    1dd4:	ed 97       	sbiw	r28, 0x3d	; 61
    1dd6:	fe ed       	ldi	r31, 0xDE	; 222
    1dd8:	ee 96       	adiw	r28, 0x3e	; 62
    1dda:	ff af       	std	Y+63, r31	; 0x3f
    1ddc:	ee 97       	sbiw	r28, 0x3e	; 62
    1dde:	2b e0       	ldi	r18, 0x0B	; 11
    1de0:	ef 96       	adiw	r28, 0x3f	; 63
    1de2:	2f af       	std	Y+63, r18	; 0x3f
    1de4:	ef 97       	sbiw	r28, 0x3f	; 63
    1de6:	f8 ef       	ldi	r31, 0xF8	; 248
    1de8:	e8 96       	adiw	r28, 0x38	; 56
    1dea:	ff af       	std	Y+63, r31	; 0x3f
    1dec:	e8 97       	sbiw	r28, 0x38	; 56
    1dee:	2f ef       	ldi	r18, 0xFF	; 255
    1df0:	e9 96       	adiw	r28, 0x39	; 57
    1df2:	2f af       	std	Y+63, r18	; 0x3f
    1df4:	e9 97       	sbiw	r28, 0x39	; 57
    1df6:	ff ef       	ldi	r31, 0xFF	; 255
    1df8:	ea 96       	adiw	r28, 0x3a	; 58
    1dfa:	ff af       	std	Y+63, r31	; 0x3f
    1dfc:	ea 97       	sbiw	r28, 0x3a	; 58
    1dfe:	2f e0       	ldi	r18, 0x0F	; 15
    1e00:	eb 96       	adiw	r28, 0x3b	; 59
    1e02:	2f af       	std	Y+63, r18	; 0x3f
    1e04:	eb 97       	sbiw	r28, 0x3b	; 59
    1e06:	f8 e7       	ldi	r31, 0x78	; 120
    1e08:	e4 96       	adiw	r28, 0x34	; 52
    1e0a:	ff af       	std	Y+63, r31	; 0x3f
    1e0c:	e4 97       	sbiw	r28, 0x34	; 52
    1e0e:	2f ee       	ldi	r18, 0xEF	; 239
    1e10:	e5 96       	adiw	r28, 0x35	; 53
    1e12:	2f af       	std	Y+63, r18	; 0x3f
    1e14:	e5 97       	sbiw	r28, 0x35	; 53
    1e16:	fd eb       	ldi	r31, 0xBD	; 189
    1e18:	e6 96       	adiw	r28, 0x36	; 54
    1e1a:	ff af       	std	Y+63, r31	; 0x3f
    1e1c:	e6 97       	sbiw	r28, 0x36	; 54
    1e1e:	27 e0       	ldi	r18, 0x07	; 7
    1e20:	e7 96       	adiw	r28, 0x37	; 55
    1e22:	2f af       	std	Y+63, r18	; 0x3f
    1e24:	e7 97       	sbiw	r28, 0x37	; 55
    1e26:	f8 e3       	ldi	r31, 0x38	; 56
    1e28:	e0 96       	adiw	r28, 0x30	; 48
    1e2a:	ff af       	std	Y+63, r31	; 0x3f
    1e2c:	e0 97       	sbiw	r28, 0x30	; 48
    1e2e:	27 ee       	ldi	r18, 0xE7	; 231
    1e30:	e1 96       	adiw	r28, 0x31	; 49
    1e32:	2f af       	std	Y+63, r18	; 0x3f
    1e34:	e1 97       	sbiw	r28, 0x31	; 49
    1e36:	fc e9       	ldi	r31, 0x9C	; 156
    1e38:	e2 96       	adiw	r28, 0x32	; 50
    1e3a:	ff af       	std	Y+63, r31	; 0x3f
    1e3c:	e2 97       	sbiw	r28, 0x32	; 50
    1e3e:	23 e0       	ldi	r18, 0x03	; 3
    1e40:	e3 96       	adiw	r28, 0x33	; 51
    1e42:	2f af       	std	Y+63, r18	; 0x3f
    1e44:	e3 97       	sbiw	r28, 0x33	; 51
    1e46:	f8 e1       	ldi	r31, 0x18	; 24
    1e48:	ac 96       	adiw	r28, 0x2c	; 44
    1e4a:	ff af       	std	Y+63, r31	; 0x3f
    1e4c:	ac 97       	sbiw	r28, 0x2c	; 44
    1e4e:	23 e6       	ldi	r18, 0x63	; 99
    1e50:	ad 96       	adiw	r28, 0x2d	; 45
    1e52:	2f af       	std	Y+63, r18	; 0x3f
    1e54:	ad 97       	sbiw	r28, 0x2d	; 45
    1e56:	fc e8       	ldi	r31, 0x8C	; 140
    1e58:	ae 96       	adiw	r28, 0x2e	; 46
    1e5a:	ff af       	std	Y+63, r31	; 0x3f
    1e5c:	ae 97       	sbiw	r28, 0x2e	; 46
    1e5e:	21 e0       	ldi	r18, 0x01	; 1
    1e60:	af 96       	adiw	r28, 0x2f	; 47
    1e62:	2f af       	std	Y+63, r18	; 0x3f
    1e64:	af 97       	sbiw	r28, 0x2f	; 47
    1e66:	f8 e0       	ldi	r31, 0x08	; 8
    1e68:	fb 87       	std	Y+11, r31	; 0x0b
    1e6a:	21 e2       	ldi	r18, 0x21	; 33
    1e6c:	2c 87       	std	Y+12, r18	; 0x0c
    1e6e:	f4 e8       	ldi	r31, 0x84	; 132
    1e70:	fd 87       	std	Y+13, r31	; 0x0d
    1e72:	1e 86       	std	Y+14, r1	; 0x0e
    1e74:	23 e0       	ldi	r18, 0x03	; 3
    1e76:	c9 59       	subi	r28, 0x99	; 153
    1e78:	de 4f       	sbci	r29, 0xFE	; 254
    1e7a:	28 83       	st	Y, r18
    1e7c:	c7 56       	subi	r28, 0x67	; 103
    1e7e:	d1 40       	sbci	r29, 0x01	; 1
    1e80:	c8 59       	subi	r28, 0x98	; 152
    1e82:	de 4f       	sbci	r29, 0xFE	; 254
    1e84:	18 82       	st	Y, r1
    1e86:	c8 56       	subi	r28, 0x68	; 104
    1e88:	d1 40       	sbci	r29, 0x01	; 1
    1e8a:	c7 59       	subi	r28, 0x97	; 151
    1e8c:	de 4f       	sbci	r29, 0xFE	; 254
    1e8e:	18 82       	st	Y, r1
    1e90:	c9 56       	subi	r28, 0x69	; 105
    1e92:	d1 40       	sbci	r29, 0x01	; 1
    1e94:	c6 59       	subi	r28, 0x96	; 150
    1e96:	de 4f       	sbci	r29, 0xFE	; 254
    1e98:	18 82       	st	Y, r1
    1e9a:	ca 56       	subi	r28, 0x6A	; 106
    1e9c:	d1 40       	sbci	r29, 0x01	; 1
    1e9e:	f1 e0       	ldi	r31, 0x01	; 1
    1ea0:	c9 51       	subi	r28, 0x19	; 25
    1ea2:	df 4f       	sbci	r29, 0xFF	; 255
    1ea4:	f8 83       	st	Y, r31
    1ea6:	c7 5e       	subi	r28, 0xE7	; 231
    1ea8:	d0 40       	sbci	r29, 0x00	; 0
    1eaa:	c8 51       	subi	r28, 0x18	; 24
    1eac:	df 4f       	sbci	r29, 0xFF	; 255
    1eae:	18 82       	st	Y, r1
    1eb0:	c8 5e       	subi	r28, 0xE8	; 232
    1eb2:	d0 40       	sbci	r29, 0x00	; 0
    1eb4:	c7 51       	subi	r28, 0x17	; 23
    1eb6:	df 4f       	sbci	r29, 0xFF	; 255
    1eb8:	18 82       	st	Y, r1
    1eba:	c9 5e       	subi	r28, 0xE9	; 233
    1ebc:	d0 40       	sbci	r29, 0x00	; 0
    1ebe:	c6 51       	subi	r28, 0x16	; 22
    1ec0:	df 4f       	sbci	r29, 0xFF	; 255
    1ec2:	18 82       	st	Y, r1
    1ec4:	ca 5e       	subi	r28, 0xEA	; 234
    1ec6:	d0 40       	sbci	r29, 0x00	; 0
    1ec8:	12 e0       	ldi	r17, 0x02	; 2
    1eca:	b0 e0       	ldi	r27, 0x00	; 0
    1ecc:	a0 e0       	ldi	r26, 0x00	; 0
    1ece:	f0 e0       	ldi	r31, 0x00	; 0
    1ed0:	a8 96       	adiw	r28, 0x28	; 40
    1ed2:	1f ae       	std	Y+63, r1	; 0x3f
    1ed4:	a8 97       	sbiw	r28, 0x28	; 40
    1ed6:	a9 96       	adiw	r28, 0x29	; 41
    1ed8:	1f ae       	std	Y+63, r1	; 0x3f
    1eda:	a9 97       	sbiw	r28, 0x29	; 41
    1edc:	aa 96       	adiw	r28, 0x2a	; 42
    1ede:	1f ae       	std	Y+63, r1	; 0x3f
    1ee0:	aa 97       	sbiw	r28, 0x2a	; 42
    1ee2:	ab 96       	adiw	r28, 0x2b	; 43
    1ee4:	1f ae       	std	Y+63, r1	; 0x3f
    1ee6:	ab 97       	sbiw	r28, 0x2b	; 43
    1ee8:	20 91 8b 01 	lds	r18, 0x018B	; 0x80018b <gain>
    1eec:	25 32       	cpi	r18, 0x25	; 37
    1eee:	11 f4       	brne	.+4      	; 0x1ef4 <SetSensorConfig+0x1530>
    1ef0:	0c 94 7f 1d 	jmp	0x3afe	; 0x3afe <SetSensorConfig+0x313a>
    1ef4:	24 30       	cpi	r18, 0x04	; 4
    1ef6:	11 f4       	brne	.+4      	; 0x1efc <SetSensorConfig+0x1538>
    1ef8:	0c 94 99 1d 	jmp	0x3b32	; 0x3b32 <SetSensorConfig+0x316e>
    1efc:	25 30       	cpi	r18, 0x05	; 5
    1efe:	11 f4       	brne	.+4      	; 0x1f04 <SetSensorConfig+0x1540>
    1f00:	0c 94 ce 20 	jmp	0x419c	; 0x419c <SetSensorConfig+0x37d8>
    1f04:	c1 52       	subi	r28, 0x21	; 33
    1f06:	df 4f       	sbci	r29, 0xFF	; 255
    1f08:	48 81       	ld	r20, Y
    1f0a:	cf 5d       	subi	r28, 0xDF	; 223
    1f0c:	d0 40       	sbci	r29, 0x00	; 0
    1f0e:	c0 52       	subi	r28, 0x20	; 32
    1f10:	df 4f       	sbci	r29, 0xFF	; 255
    1f12:	38 81       	ld	r19, Y
    1f14:	c0 5e       	subi	r28, 0xE0	; 224
    1f16:	d0 40       	sbci	r29, 0x00	; 0
    1f18:	cf 51       	subi	r28, 0x1F	; 31
    1f1a:	df 4f       	sbci	r29, 0xFF	; 255
    1f1c:	88 81       	ld	r24, Y
    1f1e:	c1 5e       	subi	r28, 0xE1	; 225
    1f20:	d0 40       	sbci	r29, 0x00	; 0
    1f22:	ce 51       	subi	r28, 0x1E	; 30
    1f24:	df 4f       	sbci	r29, 0xFF	; 255
    1f26:	98 81       	ld	r25, Y
    1f28:	c2 5e       	subi	r28, 0xE2	; 226
    1f2a:	d0 40       	sbci	r29, 0x00	; 0
    1f2c:	c5 52       	subi	r28, 0x25	; 37
    1f2e:	df 4f       	sbci	r29, 0xFF	; 255
    1f30:	68 81       	ld	r22, Y
    1f32:	cb 5d       	subi	r28, 0xDB	; 219
    1f34:	d0 40       	sbci	r29, 0x00	; 0
    1f36:	c4 52       	subi	r28, 0x24	; 36
    1f38:	df 4f       	sbci	r29, 0xFF	; 255
    1f3a:	78 81       	ld	r23, Y
    1f3c:	cc 5d       	subi	r28, 0xDC	; 220
    1f3e:	d0 40       	sbci	r29, 0x00	; 0
    1f40:	c3 52       	subi	r28, 0x23	; 35
    1f42:	df 4f       	sbci	r29, 0xFF	; 255
    1f44:	b8 80       	ld	r11, Y
    1f46:	cd 5d       	subi	r28, 0xDD	; 221
    1f48:	d0 40       	sbci	r29, 0x00	; 0
    1f4a:	c2 52       	subi	r28, 0x22	; 34
    1f4c:	df 4f       	sbci	r29, 0xFF	; 255
    1f4e:	c8 80       	ld	r12, Y
    1f50:	ce 5d       	subi	r28, 0xDE	; 222
    1f52:	d0 40       	sbci	r29, 0x00	; 0
    1f54:	c9 52       	subi	r28, 0x29	; 41
    1f56:	df 4f       	sbci	r29, 0xFF	; 255
    1f58:	58 81       	ld	r21, Y
    1f5a:	c7 5d       	subi	r28, 0xD7	; 215
    1f5c:	d0 40       	sbci	r29, 0x00	; 0
    1f5e:	5f 83       	std	Y+7, r21	; 0x07
    1f60:	c8 52       	subi	r28, 0x28	; 40
    1f62:	df 4f       	sbci	r29, 0xFF	; 255
    1f64:	f8 81       	ld	r31, Y
    1f66:	c8 5d       	subi	r28, 0xD8	; 216
    1f68:	d0 40       	sbci	r29, 0x00	; 0
    1f6a:	f8 87       	std	Y+8, r31	; 0x08
    1f6c:	c7 52       	subi	r28, 0x27	; 39
    1f6e:	df 4f       	sbci	r29, 0xFF	; 255
    1f70:	28 81       	ld	r18, Y
    1f72:	c9 5d       	subi	r28, 0xD9	; 217
    1f74:	d0 40       	sbci	r29, 0x00	; 0
    1f76:	29 87       	std	Y+9, r18	; 0x09
    1f78:	c6 52       	subi	r28, 0x26	; 38
    1f7a:	df 4f       	sbci	r29, 0xFF	; 255
    1f7c:	58 81       	ld	r21, Y
    1f7e:	ca 5d       	subi	r28, 0xDA	; 218
    1f80:	d0 40       	sbci	r29, 0x00	; 0
    1f82:	5a 87       	std	Y+10, r21	; 0x0a
    1f84:	cd 52       	subi	r28, 0x2D	; 45
    1f86:	df 4f       	sbci	r29, 0xFF	; 255
    1f88:	28 80       	ld	r2, Y
    1f8a:	c3 5d       	subi	r28, 0xD3	; 211
    1f8c:	d0 40       	sbci	r29, 0x00	; 0
    1f8e:	cc 52       	subi	r28, 0x2C	; 44
    1f90:	df 4f       	sbci	r29, 0xFF	; 255
    1f92:	38 80       	ld	r3, Y
    1f94:	c4 5d       	subi	r28, 0xD4	; 212
    1f96:	d0 40       	sbci	r29, 0x00	; 0
    1f98:	cb 52       	subi	r28, 0x2B	; 43
    1f9a:	df 4f       	sbci	r29, 0xFF	; 255
    1f9c:	48 80       	ld	r4, Y
    1f9e:	c5 5d       	subi	r28, 0xD5	; 213
    1fa0:	d0 40       	sbci	r29, 0x00	; 0
    1fa2:	ca 52       	subi	r28, 0x2A	; 42
    1fa4:	df 4f       	sbci	r29, 0xFF	; 255
    1fa6:	58 80       	ld	r5, Y
    1fa8:	c6 5d       	subi	r28, 0xD6	; 214
    1faa:	d0 40       	sbci	r29, 0x00	; 0
    1fac:	c1 53       	subi	r28, 0x31	; 49
    1fae:	df 4f       	sbci	r29, 0xFF	; 255
    1fb0:	68 80       	ld	r6, Y
    1fb2:	cf 5c       	subi	r28, 0xCF	; 207
    1fb4:	d0 40       	sbci	r29, 0x00	; 0
    1fb6:	c0 53       	subi	r28, 0x30	; 48
    1fb8:	df 4f       	sbci	r29, 0xFF	; 255
    1fba:	78 80       	ld	r7, Y
    1fbc:	c0 5d       	subi	r28, 0xD0	; 208
    1fbe:	d0 40       	sbci	r29, 0x00	; 0
    1fc0:	cf 52       	subi	r28, 0x2F	; 47
    1fc2:	df 4f       	sbci	r29, 0xFF	; 255
    1fc4:	88 80       	ld	r8, Y
    1fc6:	c1 5d       	subi	r28, 0xD1	; 209
    1fc8:	d0 40       	sbci	r29, 0x00	; 0
    1fca:	ce 52       	subi	r28, 0x2E	; 46
    1fcc:	df 4f       	sbci	r29, 0xFF	; 255
    1fce:	98 80       	ld	r9, Y
    1fd0:	c2 5d       	subi	r28, 0xD2	; 210
    1fd2:	d0 40       	sbci	r29, 0x00	; 0
    1fd4:	c5 53       	subi	r28, 0x35	; 53
    1fd6:	df 4f       	sbci	r29, 0xFF	; 255
    1fd8:	e8 81       	ld	r30, Y
    1fda:	cb 5c       	subi	r28, 0xCB	; 203
    1fdc:	d0 40       	sbci	r29, 0x00	; 0
    1fde:	c4 53       	subi	r28, 0x34	; 52
    1fe0:	df 4f       	sbci	r29, 0xFF	; 255
    1fe2:	58 81       	ld	r21, Y
    1fe4:	cc 5c       	subi	r28, 0xCC	; 204
    1fe6:	d0 40       	sbci	r29, 0x00	; 0
    1fe8:	c3 53       	subi	r28, 0x33	; 51
    1fea:	df 4f       	sbci	r29, 0xFF	; 255
    1fec:	a8 80       	ld	r10, Y
    1fee:	cd 5c       	subi	r28, 0xCD	; 205
    1ff0:	d0 40       	sbci	r29, 0x00	; 0
    1ff2:	c2 53       	subi	r28, 0x32	; 50
    1ff4:	df 4f       	sbci	r29, 0xFF	; 255
    1ff6:	f8 81       	ld	r31, Y
    1ff8:	ce 5c       	subi	r28, 0xCE	; 206
    1ffa:	d0 40       	sbci	r29, 0x00	; 0
    1ffc:	fe 83       	std	Y+6, r31	; 0x06
    1ffe:	c9 53       	subi	r28, 0x39	; 57
    2000:	df 4f       	sbci	r29, 0xFF	; 255
    2002:	28 81       	ld	r18, Y
    2004:	c7 5c       	subi	r28, 0xC7	; 199
    2006:	d0 40       	sbci	r29, 0x00	; 0
    2008:	2f a3       	std	Y+39, r18	; 0x27
    200a:	c8 53       	subi	r28, 0x38	; 56
    200c:	df 4f       	sbci	r29, 0xFF	; 255
    200e:	f8 81       	ld	r31, Y
    2010:	c8 5c       	subi	r28, 0xC8	; 200
    2012:	d0 40       	sbci	r29, 0x00	; 0
    2014:	f8 a7       	std	Y+40, r31	; 0x28
    2016:	c7 53       	subi	r28, 0x37	; 55
    2018:	df 4f       	sbci	r29, 0xFF	; 255
    201a:	28 81       	ld	r18, Y
    201c:	c9 5c       	subi	r28, 0xC9	; 201
    201e:	d0 40       	sbci	r29, 0x00	; 0
    2020:	29 a7       	std	Y+41, r18	; 0x29
    2022:	c6 53       	subi	r28, 0x36	; 54
    2024:	df 4f       	sbci	r29, 0xFF	; 255
    2026:	f8 81       	ld	r31, Y
    2028:	ca 5c       	subi	r28, 0xCA	; 202
    202a:	d0 40       	sbci	r29, 0x00	; 0
    202c:	fa a7       	std	Y+42, r31	; 0x2a
    202e:	cd 53       	subi	r28, 0x3D	; 61
    2030:	df 4f       	sbci	r29, 0xFF	; 255
    2032:	08 81       	ld	r16, Y
    2034:	c3 5c       	subi	r28, 0xC3	; 195
    2036:	d0 40       	sbci	r29, 0x00	; 0
    2038:	cc 53       	subi	r28, 0x3C	; 60
    203a:	df 4f       	sbci	r29, 0xFF	; 255
    203c:	f8 80       	ld	r15, Y
    203e:	c4 5c       	subi	r28, 0xC4	; 196
    2040:	d0 40       	sbci	r29, 0x00	; 0
    2042:	cb 53       	subi	r28, 0x3B	; 59
    2044:	df 4f       	sbci	r29, 0xFF	; 255
    2046:	e8 80       	ld	r14, Y
    2048:	c5 5c       	subi	r28, 0xC5	; 197
    204a:	d0 40       	sbci	r29, 0x00	; 0
    204c:	ca 53       	subi	r28, 0x3A	; 58
    204e:	df 4f       	sbci	r29, 0xFF	; 255
    2050:	d8 80       	ld	r13, Y
    2052:	c6 5c       	subi	r28, 0xC6	; 198
    2054:	d0 40       	sbci	r29, 0x00	; 0
    2056:	c1 54       	subi	r28, 0x41	; 65
    2058:	df 4f       	sbci	r29, 0xFF	; 255
    205a:	28 81       	ld	r18, Y
    205c:	cf 5b       	subi	r28, 0xBF	; 191
    205e:	d0 40       	sbci	r29, 0x00	; 0
    2060:	2b a3       	std	Y+35, r18	; 0x23
    2062:	c0 54       	subi	r28, 0x40	; 64
    2064:	df 4f       	sbci	r29, 0xFF	; 255
    2066:	f8 81       	ld	r31, Y
    2068:	c0 5c       	subi	r28, 0xC0	; 192
    206a:	d0 40       	sbci	r29, 0x00	; 0
    206c:	fc a3       	std	Y+36, r31	; 0x24
    206e:	cf 53       	subi	r28, 0x3F	; 63
    2070:	df 4f       	sbci	r29, 0xFF	; 255
    2072:	28 81       	ld	r18, Y
    2074:	c1 5c       	subi	r28, 0xC1	; 193
    2076:	d0 40       	sbci	r29, 0x00	; 0
    2078:	2d a3       	std	Y+37, r18	; 0x25
    207a:	ce 53       	subi	r28, 0x3E	; 62
    207c:	df 4f       	sbci	r29, 0xFF	; 255
    207e:	f8 81       	ld	r31, Y
    2080:	c2 5c       	subi	r28, 0xC2	; 194
    2082:	d0 40       	sbci	r29, 0x00	; 0
    2084:	fe a3       	std	Y+38, r31	; 0x26
    2086:	c5 54       	subi	r28, 0x45	; 69
    2088:	df 4f       	sbci	r29, 0xFF	; 255
    208a:	28 81       	ld	r18, Y
    208c:	cb 5b       	subi	r28, 0xBB	; 187
    208e:	d0 40       	sbci	r29, 0x00	; 0
    2090:	2f 8f       	std	Y+31, r18	; 0x1f
    2092:	c4 54       	subi	r28, 0x44	; 68
    2094:	df 4f       	sbci	r29, 0xFF	; 255
    2096:	f8 81       	ld	r31, Y
    2098:	cc 5b       	subi	r28, 0xBC	; 188
    209a:	d0 40       	sbci	r29, 0x00	; 0
    209c:	f8 a3       	std	Y+32, r31	; 0x20
    209e:	c3 54       	subi	r28, 0x43	; 67
    20a0:	df 4f       	sbci	r29, 0xFF	; 255
    20a2:	28 81       	ld	r18, Y
    20a4:	cd 5b       	subi	r28, 0xBD	; 189
    20a6:	d0 40       	sbci	r29, 0x00	; 0
    20a8:	29 a3       	std	Y+33, r18	; 0x21
    20aa:	c2 54       	subi	r28, 0x42	; 66
    20ac:	df 4f       	sbci	r29, 0xFF	; 255
    20ae:	f8 81       	ld	r31, Y
    20b0:	ce 5b       	subi	r28, 0xBE	; 190
    20b2:	d0 40       	sbci	r29, 0x00	; 0
    20b4:	fa a3       	std	Y+34, r31	; 0x22
    20b6:	c9 54       	subi	r28, 0x49	; 73
    20b8:	df 4f       	sbci	r29, 0xFF	; 255
    20ba:	28 81       	ld	r18, Y
    20bc:	c7 5b       	subi	r28, 0xB7	; 183
    20be:	d0 40       	sbci	r29, 0x00	; 0
    20c0:	2b 8f       	std	Y+27, r18	; 0x1b
    20c2:	c8 54       	subi	r28, 0x48	; 72
    20c4:	df 4f       	sbci	r29, 0xFF	; 255
    20c6:	f8 81       	ld	r31, Y
    20c8:	c8 5b       	subi	r28, 0xB8	; 184
    20ca:	d0 40       	sbci	r29, 0x00	; 0
    20cc:	fc 8f       	std	Y+28, r31	; 0x1c
    20ce:	c7 54       	subi	r28, 0x47	; 71
    20d0:	df 4f       	sbci	r29, 0xFF	; 255
    20d2:	28 81       	ld	r18, Y
    20d4:	c9 5b       	subi	r28, 0xB9	; 185
    20d6:	d0 40       	sbci	r29, 0x00	; 0
    20d8:	2d 8f       	std	Y+29, r18	; 0x1d
    20da:	c6 54       	subi	r28, 0x46	; 70
    20dc:	df 4f       	sbci	r29, 0xFF	; 255
    20de:	f8 81       	ld	r31, Y
    20e0:	ca 5b       	subi	r28, 0xBA	; 186
    20e2:	d0 40       	sbci	r29, 0x00	; 0
    20e4:	fe 8f       	std	Y+30, r31	; 0x1e
    20e6:	cd 54       	subi	r28, 0x4D	; 77
    20e8:	df 4f       	sbci	r29, 0xFF	; 255
    20ea:	28 81       	ld	r18, Y
    20ec:	c3 5b       	subi	r28, 0xB3	; 179
    20ee:	d0 40       	sbci	r29, 0x00	; 0
    20f0:	2f 8b       	std	Y+23, r18	; 0x17
    20f2:	cc 54       	subi	r28, 0x4C	; 76
    20f4:	df 4f       	sbci	r29, 0xFF	; 255
    20f6:	f8 81       	ld	r31, Y
    20f8:	c4 5b       	subi	r28, 0xB4	; 180
    20fa:	d0 40       	sbci	r29, 0x00	; 0
    20fc:	f8 8f       	std	Y+24, r31	; 0x18
    20fe:	cb 54       	subi	r28, 0x4B	; 75
    2100:	df 4f       	sbci	r29, 0xFF	; 255
    2102:	28 81       	ld	r18, Y
    2104:	c5 5b       	subi	r28, 0xB5	; 181
    2106:	d0 40       	sbci	r29, 0x00	; 0
    2108:	29 8f       	std	Y+25, r18	; 0x19
    210a:	ca 54       	subi	r28, 0x4A	; 74
    210c:	df 4f       	sbci	r29, 0xFF	; 255
    210e:	f8 81       	ld	r31, Y
    2110:	c6 5b       	subi	r28, 0xB6	; 182
    2112:	d0 40       	sbci	r29, 0x00	; 0
    2114:	fa 8f       	std	Y+26, r31	; 0x1a
    2116:	c1 55       	subi	r28, 0x51	; 81
    2118:	df 4f       	sbci	r29, 0xFF	; 255
    211a:	28 81       	ld	r18, Y
    211c:	cf 5a       	subi	r28, 0xAF	; 175
    211e:	d0 40       	sbci	r29, 0x00	; 0
    2120:	2b 8b       	std	Y+19, r18	; 0x13
    2122:	c0 55       	subi	r28, 0x50	; 80
    2124:	df 4f       	sbci	r29, 0xFF	; 255
    2126:	f8 81       	ld	r31, Y
    2128:	c0 5b       	subi	r28, 0xB0	; 176
    212a:	d0 40       	sbci	r29, 0x00	; 0
    212c:	fc 8b       	std	Y+20, r31	; 0x14
    212e:	cf 54       	subi	r28, 0x4F	; 79
    2130:	df 4f       	sbci	r29, 0xFF	; 255
    2132:	28 81       	ld	r18, Y
    2134:	c1 5b       	subi	r28, 0xB1	; 177
    2136:	d0 40       	sbci	r29, 0x00	; 0
    2138:	2d 8b       	std	Y+21, r18	; 0x15
    213a:	ce 54       	subi	r28, 0x4E	; 78
    213c:	df 4f       	sbci	r29, 0xFF	; 255
    213e:	f8 81       	ld	r31, Y
    2140:	c2 5b       	subi	r28, 0xB2	; 178
    2142:	d0 40       	sbci	r29, 0x00	; 0
    2144:	fe 8b       	std	Y+22, r31	; 0x16
    2146:	c5 55       	subi	r28, 0x55	; 85
    2148:	df 4f       	sbci	r29, 0xFF	; 255
    214a:	28 81       	ld	r18, Y
    214c:	cb 5a       	subi	r28, 0xAB	; 171
    214e:	d0 40       	sbci	r29, 0x00	; 0
    2150:	2f 87       	std	Y+15, r18	; 0x0f
    2152:	c4 55       	subi	r28, 0x54	; 84
    2154:	df 4f       	sbci	r29, 0xFF	; 255
    2156:	f8 81       	ld	r31, Y
    2158:	cc 5a       	subi	r28, 0xAC	; 172
    215a:	d0 40       	sbci	r29, 0x00	; 0
    215c:	f8 8b       	std	Y+16, r31	; 0x10
    215e:	c3 55       	subi	r28, 0x53	; 83
    2160:	df 4f       	sbci	r29, 0xFF	; 255
    2162:	28 81       	ld	r18, Y
    2164:	cd 5a       	subi	r28, 0xAD	; 173
    2166:	d0 40       	sbci	r29, 0x00	; 0
    2168:	29 8b       	std	Y+17, r18	; 0x11
    216a:	c2 55       	subi	r28, 0x52	; 82
    216c:	df 4f       	sbci	r29, 0xFF	; 255
    216e:	f8 81       	ld	r31, Y
    2170:	ce 5a       	subi	r28, 0xAE	; 174
    2172:	d0 40       	sbci	r29, 0x00	; 0
    2174:	fa 8b       	std	Y+18, r31	; 0x12
    2176:	c9 55       	subi	r28, 0x59	; 89
    2178:	df 4f       	sbci	r29, 0xFF	; 255
    217a:	28 81       	ld	r18, Y
    217c:	c7 5a       	subi	r28, 0xA7	; 167
    217e:	d0 40       	sbci	r29, 0x00	; 0
    2180:	2a 83       	std	Y+2, r18	; 0x02
    2182:	c8 55       	subi	r28, 0x58	; 88
    2184:	df 4f       	sbci	r29, 0xFF	; 255
    2186:	f8 81       	ld	r31, Y
    2188:	c8 5a       	subi	r28, 0xA8	; 168
    218a:	d0 40       	sbci	r29, 0x00	; 0
    218c:	fb 83       	std	Y+3, r31	; 0x03
    218e:	c7 55       	subi	r28, 0x57	; 87
    2190:	df 4f       	sbci	r29, 0xFF	; 255
    2192:	28 81       	ld	r18, Y
    2194:	c9 5a       	subi	r28, 0xA9	; 169
    2196:	d0 40       	sbci	r29, 0x00	; 0
    2198:	2c 83       	std	Y+4, r18	; 0x04
    219a:	c6 55       	subi	r28, 0x56	; 86
    219c:	df 4f       	sbci	r29, 0xFF	; 255
    219e:	f8 81       	ld	r31, Y
    21a0:	ca 5a       	subi	r28, 0xAA	; 170
    21a2:	d0 40       	sbci	r29, 0x00	; 0
    21a4:	fd 83       	std	Y+5, r31	; 0x05
    21a6:	cd 55       	subi	r28, 0x5D	; 93
    21a8:	df 4f       	sbci	r29, 0xFF	; 255
    21aa:	28 81       	ld	r18, Y
    21ac:	c3 5a       	subi	r28, 0xA3	; 163
    21ae:	d0 40       	sbci	r29, 0x00	; 0
    21b0:	a4 96       	adiw	r28, 0x24	; 36
    21b2:	2f af       	std	Y+63, r18	; 0x3f
    21b4:	a4 97       	sbiw	r28, 0x24	; 36
    21b6:	cc 55       	subi	r28, 0x5C	; 92
    21b8:	df 4f       	sbci	r29, 0xFF	; 255
    21ba:	f8 81       	ld	r31, Y
    21bc:	c4 5a       	subi	r28, 0xA4	; 164
    21be:	d0 40       	sbci	r29, 0x00	; 0
    21c0:	a5 96       	adiw	r28, 0x25	; 37
    21c2:	ff af       	std	Y+63, r31	; 0x3f
    21c4:	a5 97       	sbiw	r28, 0x25	; 37
    21c6:	cb 55       	subi	r28, 0x5B	; 91
    21c8:	df 4f       	sbci	r29, 0xFF	; 255
    21ca:	28 81       	ld	r18, Y
    21cc:	c5 5a       	subi	r28, 0xA5	; 165
    21ce:	d0 40       	sbci	r29, 0x00	; 0
    21d0:	a6 96       	adiw	r28, 0x26	; 38
    21d2:	2f af       	std	Y+63, r18	; 0x3f
    21d4:	a6 97       	sbiw	r28, 0x26	; 38
    21d6:	ca 55       	subi	r28, 0x5A	; 90
    21d8:	df 4f       	sbci	r29, 0xFF	; 255
    21da:	f8 81       	ld	r31, Y
    21dc:	c6 5a       	subi	r28, 0xA6	; 166
    21de:	d0 40       	sbci	r29, 0x00	; 0
    21e0:	a7 96       	adiw	r28, 0x27	; 39
    21e2:	ff af       	std	Y+63, r31	; 0x3f
    21e4:	a7 97       	sbiw	r28, 0x27	; 39
    21e6:	c1 56       	subi	r28, 0x61	; 97
    21e8:	df 4f       	sbci	r29, 0xFF	; 255
    21ea:	28 81       	ld	r18, Y
    21ec:	cf 59       	subi	r28, 0x9F	; 159
    21ee:	d0 40       	sbci	r29, 0x00	; 0
    21f0:	a0 96       	adiw	r28, 0x20	; 32
    21f2:	2f af       	std	Y+63, r18	; 0x3f
    21f4:	a0 97       	sbiw	r28, 0x20	; 32
    21f6:	c0 56       	subi	r28, 0x60	; 96
    21f8:	df 4f       	sbci	r29, 0xFF	; 255
    21fa:	f8 81       	ld	r31, Y
    21fc:	c0 5a       	subi	r28, 0xA0	; 160
    21fe:	d0 40       	sbci	r29, 0x00	; 0
    2200:	a1 96       	adiw	r28, 0x21	; 33
    2202:	ff af       	std	Y+63, r31	; 0x3f
    2204:	a1 97       	sbiw	r28, 0x21	; 33
    2206:	cf 55       	subi	r28, 0x5F	; 95
    2208:	df 4f       	sbci	r29, 0xFF	; 255
    220a:	28 81       	ld	r18, Y
    220c:	c1 5a       	subi	r28, 0xA1	; 161
    220e:	d0 40       	sbci	r29, 0x00	; 0
    2210:	a2 96       	adiw	r28, 0x22	; 34
    2212:	2f af       	std	Y+63, r18	; 0x3f
    2214:	a2 97       	sbiw	r28, 0x22	; 34
    2216:	ce 55       	subi	r28, 0x5E	; 94
    2218:	df 4f       	sbci	r29, 0xFF	; 255
    221a:	f8 81       	ld	r31, Y
    221c:	c2 5a       	subi	r28, 0xA2	; 162
    221e:	d0 40       	sbci	r29, 0x00	; 0
    2220:	a3 96       	adiw	r28, 0x23	; 35
    2222:	ff af       	std	Y+63, r31	; 0x3f
    2224:	a3 97       	sbiw	r28, 0x23	; 35
    2226:	c5 56       	subi	r28, 0x65	; 101
    2228:	df 4f       	sbci	r29, 0xFF	; 255
    222a:	28 81       	ld	r18, Y
    222c:	cb 59       	subi	r28, 0x9B	; 155
    222e:	d0 40       	sbci	r29, 0x00	; 0
    2230:	6c 96       	adiw	r28, 0x1c	; 28
    2232:	2f af       	std	Y+63, r18	; 0x3f
    2234:	6c 97       	sbiw	r28, 0x1c	; 28
    2236:	c4 56       	subi	r28, 0x64	; 100
    2238:	df 4f       	sbci	r29, 0xFF	; 255
    223a:	f8 81       	ld	r31, Y
    223c:	cc 59       	subi	r28, 0x9C	; 156
    223e:	d0 40       	sbci	r29, 0x00	; 0
    2240:	6d 96       	adiw	r28, 0x1d	; 29
    2242:	ff af       	std	Y+63, r31	; 0x3f
    2244:	6d 97       	sbiw	r28, 0x1d	; 29
    2246:	c3 56       	subi	r28, 0x63	; 99
    2248:	df 4f       	sbci	r29, 0xFF	; 255
    224a:	28 81       	ld	r18, Y
    224c:	cd 59       	subi	r28, 0x9D	; 157
    224e:	d0 40       	sbci	r29, 0x00	; 0
    2250:	6e 96       	adiw	r28, 0x1e	; 30
    2252:	2f af       	std	Y+63, r18	; 0x3f
    2254:	6e 97       	sbiw	r28, 0x1e	; 30
    2256:	c2 56       	subi	r28, 0x62	; 98
    2258:	df 4f       	sbci	r29, 0xFF	; 255
    225a:	f8 81       	ld	r31, Y
    225c:	ce 59       	subi	r28, 0x9E	; 158
    225e:	d0 40       	sbci	r29, 0x00	; 0
    2260:	6f 96       	adiw	r28, 0x1f	; 31
    2262:	ff af       	std	Y+63, r31	; 0x3f
    2264:	6f 97       	sbiw	r28, 0x1f	; 31
    2266:	c9 56       	subi	r28, 0x69	; 105
    2268:	df 4f       	sbci	r29, 0xFF	; 255
    226a:	28 81       	ld	r18, Y
    226c:	c7 59       	subi	r28, 0x97	; 151
    226e:	d0 40       	sbci	r29, 0x00	; 0
    2270:	68 96       	adiw	r28, 0x18	; 24
    2272:	2f af       	std	Y+63, r18	; 0x3f
    2274:	68 97       	sbiw	r28, 0x18	; 24
    2276:	c8 56       	subi	r28, 0x68	; 104
    2278:	df 4f       	sbci	r29, 0xFF	; 255
    227a:	f8 81       	ld	r31, Y
    227c:	c8 59       	subi	r28, 0x98	; 152
    227e:	d0 40       	sbci	r29, 0x00	; 0
    2280:	69 96       	adiw	r28, 0x19	; 25
    2282:	ff af       	std	Y+63, r31	; 0x3f
    2284:	69 97       	sbiw	r28, 0x19	; 25
    2286:	c7 56       	subi	r28, 0x67	; 103
    2288:	df 4f       	sbci	r29, 0xFF	; 255
    228a:	28 81       	ld	r18, Y
    228c:	c9 59       	subi	r28, 0x99	; 153
    228e:	d0 40       	sbci	r29, 0x00	; 0
    2290:	6a 96       	adiw	r28, 0x1a	; 26
    2292:	2f af       	std	Y+63, r18	; 0x3f
    2294:	6a 97       	sbiw	r28, 0x1a	; 26
    2296:	c6 56       	subi	r28, 0x66	; 102
    2298:	df 4f       	sbci	r29, 0xFF	; 255
    229a:	f8 81       	ld	r31, Y
    229c:	ca 59       	subi	r28, 0x9A	; 154
    229e:	d0 40       	sbci	r29, 0x00	; 0
    22a0:	6b 96       	adiw	r28, 0x1b	; 27
    22a2:	ff af       	std	Y+63, r31	; 0x3f
    22a4:	6b 97       	sbiw	r28, 0x1b	; 27
    22a6:	cd 56       	subi	r28, 0x6D	; 109
    22a8:	df 4f       	sbci	r29, 0xFF	; 255
    22aa:	28 81       	ld	r18, Y
    22ac:	c3 59       	subi	r28, 0x93	; 147
    22ae:	d0 40       	sbci	r29, 0x00	; 0
    22b0:	64 96       	adiw	r28, 0x14	; 20
    22b2:	2f af       	std	Y+63, r18	; 0x3f
    22b4:	64 97       	sbiw	r28, 0x14	; 20
    22b6:	cc 56       	subi	r28, 0x6C	; 108
    22b8:	df 4f       	sbci	r29, 0xFF	; 255
    22ba:	f8 81       	ld	r31, Y
    22bc:	c4 59       	subi	r28, 0x94	; 148
    22be:	d0 40       	sbci	r29, 0x00	; 0
    22c0:	65 96       	adiw	r28, 0x15	; 21
    22c2:	ff af       	std	Y+63, r31	; 0x3f
    22c4:	65 97       	sbiw	r28, 0x15	; 21
    22c6:	cb 56       	subi	r28, 0x6B	; 107
    22c8:	df 4f       	sbci	r29, 0xFF	; 255
    22ca:	28 81       	ld	r18, Y
    22cc:	c5 59       	subi	r28, 0x95	; 149
    22ce:	d0 40       	sbci	r29, 0x00	; 0
    22d0:	66 96       	adiw	r28, 0x16	; 22
    22d2:	2f af       	std	Y+63, r18	; 0x3f
    22d4:	66 97       	sbiw	r28, 0x16	; 22
    22d6:	ca 56       	subi	r28, 0x6A	; 106
    22d8:	df 4f       	sbci	r29, 0xFF	; 255
    22da:	f8 81       	ld	r31, Y
    22dc:	c6 59       	subi	r28, 0x96	; 150
    22de:	d0 40       	sbci	r29, 0x00	; 0
    22e0:	67 96       	adiw	r28, 0x17	; 23
    22e2:	ff af       	std	Y+63, r31	; 0x3f
    22e4:	67 97       	sbiw	r28, 0x17	; 23
    22e6:	c1 57       	subi	r28, 0x71	; 113
    22e8:	df 4f       	sbci	r29, 0xFF	; 255
    22ea:	28 81       	ld	r18, Y
    22ec:	cf 58       	subi	r28, 0x8F	; 143
    22ee:	d0 40       	sbci	r29, 0x00	; 0
    22f0:	60 96       	adiw	r28, 0x10	; 16
    22f2:	2f af       	std	Y+63, r18	; 0x3f
    22f4:	60 97       	sbiw	r28, 0x10	; 16
    22f6:	c0 57       	subi	r28, 0x70	; 112
    22f8:	df 4f       	sbci	r29, 0xFF	; 255
    22fa:	f8 81       	ld	r31, Y
    22fc:	c0 59       	subi	r28, 0x90	; 144
    22fe:	d0 40       	sbci	r29, 0x00	; 0
    2300:	61 96       	adiw	r28, 0x11	; 17
    2302:	ff af       	std	Y+63, r31	; 0x3f
    2304:	61 97       	sbiw	r28, 0x11	; 17
    2306:	cf 56       	subi	r28, 0x6F	; 111
    2308:	df 4f       	sbci	r29, 0xFF	; 255
    230a:	28 81       	ld	r18, Y
    230c:	c1 59       	subi	r28, 0x91	; 145
    230e:	d0 40       	sbci	r29, 0x00	; 0
    2310:	62 96       	adiw	r28, 0x12	; 18
    2312:	2f af       	std	Y+63, r18	; 0x3f
    2314:	62 97       	sbiw	r28, 0x12	; 18
    2316:	ce 56       	subi	r28, 0x6E	; 110
    2318:	df 4f       	sbci	r29, 0xFF	; 255
    231a:	f8 81       	ld	r31, Y
    231c:	c2 59       	subi	r28, 0x92	; 146
    231e:	d0 40       	sbci	r29, 0x00	; 0
    2320:	63 96       	adiw	r28, 0x13	; 19
    2322:	ff af       	std	Y+63, r31	; 0x3f
    2324:	63 97       	sbiw	r28, 0x13	; 19
    2326:	c5 57       	subi	r28, 0x75	; 117
    2328:	df 4f       	sbci	r29, 0xFF	; 255
    232a:	28 81       	ld	r18, Y
    232c:	cb 58       	subi	r28, 0x8B	; 139
    232e:	d0 40       	sbci	r29, 0x00	; 0
    2330:	2c 96       	adiw	r28, 0x0c	; 12
    2332:	2f af       	std	Y+63, r18	; 0x3f
    2334:	2c 97       	sbiw	r28, 0x0c	; 12
    2336:	c4 57       	subi	r28, 0x74	; 116
    2338:	df 4f       	sbci	r29, 0xFF	; 255
    233a:	f8 81       	ld	r31, Y
    233c:	cc 58       	subi	r28, 0x8C	; 140
    233e:	d0 40       	sbci	r29, 0x00	; 0
    2340:	2d 96       	adiw	r28, 0x0d	; 13
    2342:	ff af       	std	Y+63, r31	; 0x3f
    2344:	2d 97       	sbiw	r28, 0x0d	; 13
    2346:	c3 57       	subi	r28, 0x73	; 115
    2348:	df 4f       	sbci	r29, 0xFF	; 255
    234a:	28 81       	ld	r18, Y
    234c:	cd 58       	subi	r28, 0x8D	; 141
    234e:	d0 40       	sbci	r29, 0x00	; 0
    2350:	2e 96       	adiw	r28, 0x0e	; 14
    2352:	2f af       	std	Y+63, r18	; 0x3f
    2354:	2e 97       	sbiw	r28, 0x0e	; 14
    2356:	c2 57       	subi	r28, 0x72	; 114
    2358:	df 4f       	sbci	r29, 0xFF	; 255
    235a:	f8 81       	ld	r31, Y
    235c:	ce 58       	subi	r28, 0x8E	; 142
    235e:	d0 40       	sbci	r29, 0x00	; 0
    2360:	2f 96       	adiw	r28, 0x0f	; 15
    2362:	ff af       	std	Y+63, r31	; 0x3f
    2364:	2f 97       	sbiw	r28, 0x0f	; 15
    2366:	c9 57       	subi	r28, 0x79	; 121
    2368:	df 4f       	sbci	r29, 0xFF	; 255
    236a:	28 81       	ld	r18, Y
    236c:	c7 58       	subi	r28, 0x87	; 135
    236e:	d0 40       	sbci	r29, 0x00	; 0
    2370:	28 96       	adiw	r28, 0x08	; 8
    2372:	2f af       	std	Y+63, r18	; 0x3f
    2374:	28 97       	sbiw	r28, 0x08	; 8
    2376:	c8 57       	subi	r28, 0x78	; 120
    2378:	df 4f       	sbci	r29, 0xFF	; 255
    237a:	f8 81       	ld	r31, Y
    237c:	c8 58       	subi	r28, 0x88	; 136
    237e:	d0 40       	sbci	r29, 0x00	; 0
    2380:	29 96       	adiw	r28, 0x09	; 9
    2382:	ff af       	std	Y+63, r31	; 0x3f
    2384:	29 97       	sbiw	r28, 0x09	; 9
    2386:	c7 57       	subi	r28, 0x77	; 119
    2388:	df 4f       	sbci	r29, 0xFF	; 255
    238a:	28 81       	ld	r18, Y
    238c:	c9 58       	subi	r28, 0x89	; 137
    238e:	d0 40       	sbci	r29, 0x00	; 0
    2390:	2a 96       	adiw	r28, 0x0a	; 10
    2392:	2f af       	std	Y+63, r18	; 0x3f
    2394:	2a 97       	sbiw	r28, 0x0a	; 10
    2396:	c6 57       	subi	r28, 0x76	; 118
    2398:	df 4f       	sbci	r29, 0xFF	; 255
    239a:	f8 81       	ld	r31, Y
    239c:	ca 58       	subi	r28, 0x8A	; 138
    239e:	d0 40       	sbci	r29, 0x00	; 0
    23a0:	2b 96       	adiw	r28, 0x0b	; 11
    23a2:	ff af       	std	Y+63, r31	; 0x3f
    23a4:	2b 97       	sbiw	r28, 0x0b	; 11
    23a6:	cd 57       	subi	r28, 0x7D	; 125
    23a8:	df 4f       	sbci	r29, 0xFF	; 255
    23aa:	28 81       	ld	r18, Y
    23ac:	c3 58       	subi	r28, 0x83	; 131
    23ae:	d0 40       	sbci	r29, 0x00	; 0
    23b0:	24 96       	adiw	r28, 0x04	; 4
    23b2:	2f af       	std	Y+63, r18	; 0x3f
    23b4:	24 97       	sbiw	r28, 0x04	; 4
    23b6:	cc 57       	subi	r28, 0x7C	; 124
    23b8:	df 4f       	sbci	r29, 0xFF	; 255
    23ba:	f8 81       	ld	r31, Y
    23bc:	c4 58       	subi	r28, 0x84	; 132
    23be:	d0 40       	sbci	r29, 0x00	; 0
    23c0:	25 96       	adiw	r28, 0x05	; 5
    23c2:	ff af       	std	Y+63, r31	; 0x3f
    23c4:	25 97       	sbiw	r28, 0x05	; 5
    23c6:	cb 57       	subi	r28, 0x7B	; 123
    23c8:	df 4f       	sbci	r29, 0xFF	; 255
    23ca:	28 81       	ld	r18, Y
    23cc:	c5 58       	subi	r28, 0x85	; 133
    23ce:	d0 40       	sbci	r29, 0x00	; 0
    23d0:	26 96       	adiw	r28, 0x06	; 6
    23d2:	2f af       	std	Y+63, r18	; 0x3f
    23d4:	26 97       	sbiw	r28, 0x06	; 6
    23d6:	ca 57       	subi	r28, 0x7A	; 122
    23d8:	df 4f       	sbci	r29, 0xFF	; 255
    23da:	f8 81       	ld	r31, Y
    23dc:	c6 58       	subi	r28, 0x86	; 134
    23de:	d0 40       	sbci	r29, 0x00	; 0
    23e0:	27 96       	adiw	r28, 0x07	; 7
    23e2:	ff af       	std	Y+63, r31	; 0x3f
    23e4:	27 97       	sbiw	r28, 0x07	; 7
    23e6:	c1 58       	subi	r28, 0x81	; 129
    23e8:	df 4f       	sbci	r29, 0xFF	; 255
    23ea:	28 81       	ld	r18, Y
    23ec:	cf 57       	subi	r28, 0x7F	; 127
    23ee:	d0 40       	sbci	r29, 0x00	; 0
    23f0:	2f af       	std	Y+63, r18	; 0x3f
    23f2:	c0 58       	subi	r28, 0x80	; 128
    23f4:	df 4f       	sbci	r29, 0xFF	; 255
    23f6:	f8 81       	ld	r31, Y
    23f8:	c0 58       	subi	r28, 0x80	; 128
    23fa:	d0 40       	sbci	r29, 0x00	; 0
    23fc:	21 96       	adiw	r28, 0x01	; 1
    23fe:	ff af       	std	Y+63, r31	; 0x3f
    2400:	21 97       	sbiw	r28, 0x01	; 1
    2402:	cf 57       	subi	r28, 0x7F	; 127
    2404:	df 4f       	sbci	r29, 0xFF	; 255
    2406:	28 81       	ld	r18, Y
    2408:	c1 58       	subi	r28, 0x81	; 129
    240a:	d0 40       	sbci	r29, 0x00	; 0
    240c:	22 96       	adiw	r28, 0x02	; 2
    240e:	2f af       	std	Y+63, r18	; 0x3f
    2410:	22 97       	sbiw	r28, 0x02	; 2
    2412:	ce 57       	subi	r28, 0x7E	; 126
    2414:	df 4f       	sbci	r29, 0xFF	; 255
    2416:	f8 81       	ld	r31, Y
    2418:	c2 58       	subi	r28, 0x82	; 130
    241a:	d0 40       	sbci	r29, 0x00	; 0
    241c:	23 96       	adiw	r28, 0x03	; 3
    241e:	ff af       	std	Y+63, r31	; 0x3f
    2420:	23 97       	sbiw	r28, 0x03	; 3
    2422:	ec 96       	adiw	r28, 0x3c	; 60
    2424:	2f ad       	ldd	r18, Y+63	; 0x3f
    2426:	ec 97       	sbiw	r28, 0x3c	; 60
    2428:	2b af       	std	Y+59, r18	; 0x3b
    242a:	ed 96       	adiw	r28, 0x3d	; 61
    242c:	ff ad       	ldd	r31, Y+63	; 0x3f
    242e:	ed 97       	sbiw	r28, 0x3d	; 61
    2430:	fc af       	std	Y+60, r31	; 0x3c
    2432:	ee 96       	adiw	r28, 0x3e	; 62
    2434:	2f ad       	ldd	r18, Y+63	; 0x3f
    2436:	ee 97       	sbiw	r28, 0x3e	; 62
    2438:	2d af       	std	Y+61, r18	; 0x3d
    243a:	ef 96       	adiw	r28, 0x3f	; 63
    243c:	ff ad       	ldd	r31, Y+63	; 0x3f
    243e:	ef 97       	sbiw	r28, 0x3f	; 63
    2440:	fe af       	std	Y+62, r31	; 0x3e
    2442:	e8 96       	adiw	r28, 0x38	; 56
    2444:	2f ad       	ldd	r18, Y+63	; 0x3f
    2446:	e8 97       	sbiw	r28, 0x38	; 56
    2448:	2f ab       	std	Y+55, r18	; 0x37
    244a:	e9 96       	adiw	r28, 0x39	; 57
    244c:	ff ad       	ldd	r31, Y+63	; 0x3f
    244e:	e9 97       	sbiw	r28, 0x39	; 57
    2450:	f8 af       	std	Y+56, r31	; 0x38
    2452:	ea 96       	adiw	r28, 0x3a	; 58
    2454:	2f ad       	ldd	r18, Y+63	; 0x3f
    2456:	ea 97       	sbiw	r28, 0x3a	; 58
    2458:	29 af       	std	Y+57, r18	; 0x39
    245a:	eb 96       	adiw	r28, 0x3b	; 59
    245c:	ff ad       	ldd	r31, Y+63	; 0x3f
    245e:	eb 97       	sbiw	r28, 0x3b	; 59
    2460:	fa af       	std	Y+58, r31	; 0x3a
    2462:	e4 96       	adiw	r28, 0x34	; 52
    2464:	2f ad       	ldd	r18, Y+63	; 0x3f
    2466:	e4 97       	sbiw	r28, 0x34	; 52
    2468:	2b ab       	std	Y+51, r18	; 0x33
    246a:	e5 96       	adiw	r28, 0x35	; 53
    246c:	ff ad       	ldd	r31, Y+63	; 0x3f
    246e:	e5 97       	sbiw	r28, 0x35	; 53
    2470:	fc ab       	std	Y+52, r31	; 0x34
    2472:	e6 96       	adiw	r28, 0x36	; 54
    2474:	2f ad       	ldd	r18, Y+63	; 0x3f
    2476:	e6 97       	sbiw	r28, 0x36	; 54
    2478:	2d ab       	std	Y+53, r18	; 0x35
    247a:	e7 96       	adiw	r28, 0x37	; 55
    247c:	ff ad       	ldd	r31, Y+63	; 0x3f
    247e:	e7 97       	sbiw	r28, 0x37	; 55
    2480:	fe ab       	std	Y+54, r31	; 0x36
    2482:	e0 96       	adiw	r28, 0x30	; 48
    2484:	2f ad       	ldd	r18, Y+63	; 0x3f
    2486:	e0 97       	sbiw	r28, 0x30	; 48
    2488:	2f a7       	std	Y+47, r18	; 0x2f
    248a:	e1 96       	adiw	r28, 0x31	; 49
    248c:	ff ad       	ldd	r31, Y+63	; 0x3f
    248e:	e1 97       	sbiw	r28, 0x31	; 49
    2490:	f8 ab       	std	Y+48, r31	; 0x30
    2492:	e2 96       	adiw	r28, 0x32	; 50
    2494:	2f ad       	ldd	r18, Y+63	; 0x3f
    2496:	e2 97       	sbiw	r28, 0x32	; 50
    2498:	29 ab       	std	Y+49, r18	; 0x31
    249a:	e3 96       	adiw	r28, 0x33	; 51
    249c:	ff ad       	ldd	r31, Y+63	; 0x3f
    249e:	e3 97       	sbiw	r28, 0x33	; 51
    24a0:	fa ab       	std	Y+50, r31	; 0x32
    24a2:	ac 96       	adiw	r28, 0x2c	; 44
    24a4:	2f ad       	ldd	r18, Y+63	; 0x3f
    24a6:	ac 97       	sbiw	r28, 0x2c	; 44
    24a8:	2b a7       	std	Y+43, r18	; 0x2b
    24aa:	ad 96       	adiw	r28, 0x2d	; 45
    24ac:	ff ad       	ldd	r31, Y+63	; 0x3f
    24ae:	ad 97       	sbiw	r28, 0x2d	; 45
    24b0:	fc a7       	std	Y+44, r31	; 0x2c
    24b2:	ae 96       	adiw	r28, 0x2e	; 46
    24b4:	2f ad       	ldd	r18, Y+63	; 0x3f
    24b6:	ae 97       	sbiw	r28, 0x2e	; 46
    24b8:	2d a7       	std	Y+45, r18	; 0x2d
    24ba:	af 96       	adiw	r28, 0x2f	; 47
    24bc:	ff ad       	ldd	r31, Y+63	; 0x3f
    24be:	af 97       	sbiw	r28, 0x2f	; 47
    24c0:	fe a7       	std	Y+46, r31	; 0x2e
    24c2:	a8 96       	adiw	r28, 0x28	; 40
    24c4:	1f ad       	ldd	r17, Y+63	; 0x3f
    24c6:	a8 97       	sbiw	r28, 0x28	; 40
    24c8:	a9 96       	adiw	r28, 0x29	; 41
    24ca:	bf ad       	ldd	r27, Y+63	; 0x3f
    24cc:	a9 97       	sbiw	r28, 0x29	; 41
    24ce:	aa 96       	adiw	r28, 0x2a	; 42
    24d0:	af ad       	ldd	r26, Y+63	; 0x3f
    24d2:	aa 97       	sbiw	r28, 0x2a	; 42
    24d4:	ab 96       	adiw	r28, 0x2b	; 43
    24d6:	ff ad       	ldd	r31, Y+63	; 0x3f
    24d8:	ab 97       	sbiw	r28, 0x2b	; 43
    24da:	20 91 8a 01 	lds	r18, 0x018A	; 0x80018a <active_rows>
    24de:	20 ff       	sbrs	r18, 0
    24e0:	b3 c0       	rjmp	.+358    	; 0x2648 <SetSensorConfig+0x1c84>
    24e2:	a4 96       	adiw	r28, 0x24	; 36
    24e4:	4f ad       	ldd	r20, Y+63	; 0x3f
    24e6:	a4 97       	sbiw	r28, 0x24	; 36
    24e8:	a5 96       	adiw	r28, 0x25	; 37
    24ea:	3f ad       	ldd	r19, Y+63	; 0x3f
    24ec:	a5 97       	sbiw	r28, 0x25	; 37
    24ee:	a6 96       	adiw	r28, 0x26	; 38
    24f0:	8f ad       	ldd	r24, Y+63	; 0x3f
    24f2:	a6 97       	sbiw	r28, 0x26	; 38
    24f4:	a7 96       	adiw	r28, 0x27	; 39
    24f6:	9f ad       	ldd	r25, Y+63	; 0x3f
    24f8:	a7 97       	sbiw	r28, 0x27	; 39
    24fa:	a0 96       	adiw	r28, 0x20	; 32
    24fc:	6f ad       	ldd	r22, Y+63	; 0x3f
    24fe:	a0 97       	sbiw	r28, 0x20	; 32
    2500:	a1 96       	adiw	r28, 0x21	; 33
    2502:	7f ad       	ldd	r23, Y+63	; 0x3f
    2504:	a1 97       	sbiw	r28, 0x21	; 33
    2506:	a2 96       	adiw	r28, 0x22	; 34
    2508:	bf ac       	ldd	r11, Y+63	; 0x3f
    250a:	a2 97       	sbiw	r28, 0x22	; 34
    250c:	a3 96       	adiw	r28, 0x23	; 35
    250e:	cf ac       	ldd	r12, Y+63	; 0x3f
    2510:	a3 97       	sbiw	r28, 0x23	; 35
    2512:	6c 96       	adiw	r28, 0x1c	; 28
    2514:	5f ad       	ldd	r21, Y+63	; 0x3f
    2516:	6c 97       	sbiw	r28, 0x1c	; 28
    2518:	5f 83       	std	Y+7, r21	; 0x07
    251a:	6d 96       	adiw	r28, 0x1d	; 29
    251c:	ff ad       	ldd	r31, Y+63	; 0x3f
    251e:	6d 97       	sbiw	r28, 0x1d	; 29
    2520:	f8 87       	std	Y+8, r31	; 0x08
    2522:	6e 96       	adiw	r28, 0x1e	; 30
    2524:	5f ad       	ldd	r21, Y+63	; 0x3f
    2526:	6e 97       	sbiw	r28, 0x1e	; 30
    2528:	59 87       	std	Y+9, r21	; 0x09
    252a:	6f 96       	adiw	r28, 0x1f	; 31
    252c:	ff ad       	ldd	r31, Y+63	; 0x3f
    252e:	6f 97       	sbiw	r28, 0x1f	; 31
    2530:	fa 87       	std	Y+10, r31	; 0x0a
    2532:	68 96       	adiw	r28, 0x18	; 24
    2534:	2f ac       	ldd	r2, Y+63	; 0x3f
    2536:	68 97       	sbiw	r28, 0x18	; 24
    2538:	69 96       	adiw	r28, 0x19	; 25
    253a:	3f ac       	ldd	r3, Y+63	; 0x3f
    253c:	69 97       	sbiw	r28, 0x19	; 25
    253e:	6a 96       	adiw	r28, 0x1a	; 26
    2540:	4f ac       	ldd	r4, Y+63	; 0x3f
    2542:	6a 97       	sbiw	r28, 0x1a	; 26
    2544:	6b 96       	adiw	r28, 0x1b	; 27
    2546:	5f ac       	ldd	r5, Y+63	; 0x3f
    2548:	6b 97       	sbiw	r28, 0x1b	; 27
    254a:	64 96       	adiw	r28, 0x14	; 20
    254c:	6f ac       	ldd	r6, Y+63	; 0x3f
    254e:	64 97       	sbiw	r28, 0x14	; 20
    2550:	65 96       	adiw	r28, 0x15	; 21
    2552:	7f ac       	ldd	r7, Y+63	; 0x3f
    2554:	65 97       	sbiw	r28, 0x15	; 21
    2556:	66 96       	adiw	r28, 0x16	; 22
    2558:	8f ac       	ldd	r8, Y+63	; 0x3f
    255a:	66 97       	sbiw	r28, 0x16	; 22
    255c:	67 96       	adiw	r28, 0x17	; 23
    255e:	9f ac       	ldd	r9, Y+63	; 0x3f
    2560:	67 97       	sbiw	r28, 0x17	; 23
    2562:	60 96       	adiw	r28, 0x10	; 16
    2564:	ef ad       	ldd	r30, Y+63	; 0x3f
    2566:	60 97       	sbiw	r28, 0x10	; 16
    2568:	61 96       	adiw	r28, 0x11	; 17
    256a:	5f ad       	ldd	r21, Y+63	; 0x3f
    256c:	61 97       	sbiw	r28, 0x11	; 17
    256e:	62 96       	adiw	r28, 0x12	; 18
    2570:	af ac       	ldd	r10, Y+63	; 0x3f
    2572:	62 97       	sbiw	r28, 0x12	; 18
    2574:	63 96       	adiw	r28, 0x13	; 19
    2576:	ff ad       	ldd	r31, Y+63	; 0x3f
    2578:	63 97       	sbiw	r28, 0x13	; 19
    257a:	fe 83       	std	Y+6, r31	; 0x06
    257c:	2c 96       	adiw	r28, 0x0c	; 12
    257e:	ff ad       	ldd	r31, Y+63	; 0x3f
    2580:	2c 97       	sbiw	r28, 0x0c	; 12
    2582:	ff a3       	std	Y+39, r31	; 0x27
    2584:	2d 96       	adiw	r28, 0x0d	; 13
    2586:	ff ad       	ldd	r31, Y+63	; 0x3f
    2588:	2d 97       	sbiw	r28, 0x0d	; 13
    258a:	f8 a7       	std	Y+40, r31	; 0x28
    258c:	2e 96       	adiw	r28, 0x0e	; 14
    258e:	ff ad       	ldd	r31, Y+63	; 0x3f
    2590:	2e 97       	sbiw	r28, 0x0e	; 14
    2592:	f9 a7       	std	Y+41, r31	; 0x29
    2594:	2f 96       	adiw	r28, 0x0f	; 15
    2596:	ff ad       	ldd	r31, Y+63	; 0x3f
    2598:	2f 97       	sbiw	r28, 0x0f	; 15
    259a:	fa a7       	std	Y+42, r31	; 0x2a
    259c:	28 96       	adiw	r28, 0x08	; 8
    259e:	0f ad       	ldd	r16, Y+63	; 0x3f
    25a0:	28 97       	sbiw	r28, 0x08	; 8
    25a2:	29 96       	adiw	r28, 0x09	; 9
    25a4:	ff ac       	ldd	r15, Y+63	; 0x3f
    25a6:	29 97       	sbiw	r28, 0x09	; 9
    25a8:	2a 96       	adiw	r28, 0x0a	; 10
    25aa:	ef ac       	ldd	r14, Y+63	; 0x3f
    25ac:	2a 97       	sbiw	r28, 0x0a	; 10
    25ae:	2b 96       	adiw	r28, 0x0b	; 11
    25b0:	df ac       	ldd	r13, Y+63	; 0x3f
    25b2:	2b 97       	sbiw	r28, 0x0b	; 11
    25b4:	24 96       	adiw	r28, 0x04	; 4
    25b6:	ff ad       	ldd	r31, Y+63	; 0x3f
    25b8:	24 97       	sbiw	r28, 0x04	; 4
    25ba:	fb a3       	std	Y+35, r31	; 0x23
    25bc:	25 96       	adiw	r28, 0x05	; 5
    25be:	ff ad       	ldd	r31, Y+63	; 0x3f
    25c0:	25 97       	sbiw	r28, 0x05	; 5
    25c2:	fc a3       	std	Y+36, r31	; 0x24
    25c4:	26 96       	adiw	r28, 0x06	; 6
    25c6:	ff ad       	ldd	r31, Y+63	; 0x3f
    25c8:	26 97       	sbiw	r28, 0x06	; 6
    25ca:	fd a3       	std	Y+37, r31	; 0x25
    25cc:	27 96       	adiw	r28, 0x07	; 7
    25ce:	ff ad       	ldd	r31, Y+63	; 0x3f
    25d0:	27 97       	sbiw	r28, 0x07	; 7
    25d2:	fe a3       	std	Y+38, r31	; 0x26
    25d4:	ff ad       	ldd	r31, Y+63	; 0x3f
    25d6:	ff 8f       	std	Y+31, r31	; 0x1f
    25d8:	21 96       	adiw	r28, 0x01	; 1
    25da:	ff ad       	ldd	r31, Y+63	; 0x3f
    25dc:	21 97       	sbiw	r28, 0x01	; 1
    25de:	f8 a3       	std	Y+32, r31	; 0x20
    25e0:	22 96       	adiw	r28, 0x02	; 2
    25e2:	ff ad       	ldd	r31, Y+63	; 0x3f
    25e4:	22 97       	sbiw	r28, 0x02	; 2
    25e6:	f9 a3       	std	Y+33, r31	; 0x21
    25e8:	23 96       	adiw	r28, 0x03	; 3
    25ea:	ff ad       	ldd	r31, Y+63	; 0x3f
    25ec:	23 97       	sbiw	r28, 0x03	; 3
    25ee:	fa a3       	std	Y+34, r31	; 0x22
    25f0:	fb ad       	ldd	r31, Y+59	; 0x3b
    25f2:	fb 8f       	std	Y+27, r31	; 0x1b
    25f4:	fc ad       	ldd	r31, Y+60	; 0x3c
    25f6:	fc 8f       	std	Y+28, r31	; 0x1c
    25f8:	fd ad       	ldd	r31, Y+61	; 0x3d
    25fa:	fd 8f       	std	Y+29, r31	; 0x1d
    25fc:	fe ad       	ldd	r31, Y+62	; 0x3e
    25fe:	fe 8f       	std	Y+30, r31	; 0x1e
    2600:	ff a9       	ldd	r31, Y+55	; 0x37
    2602:	ff 8b       	std	Y+23, r31	; 0x17
    2604:	f8 ad       	ldd	r31, Y+56	; 0x38
    2606:	f8 8f       	std	Y+24, r31	; 0x18
    2608:	f9 ad       	ldd	r31, Y+57	; 0x39
    260a:	f9 8f       	std	Y+25, r31	; 0x19
    260c:	fa ad       	ldd	r31, Y+58	; 0x3a
    260e:	fa 8f       	std	Y+26, r31	; 0x1a
    2610:	fb a9       	ldd	r31, Y+51	; 0x33
    2612:	fb 8b       	std	Y+19, r31	; 0x13
    2614:	fc a9       	ldd	r31, Y+52	; 0x34
    2616:	fc 8b       	std	Y+20, r31	; 0x14
    2618:	fd a9       	ldd	r31, Y+53	; 0x35
    261a:	fd 8b       	std	Y+21, r31	; 0x15
    261c:	fe a9       	ldd	r31, Y+54	; 0x36
    261e:	fe 8b       	std	Y+22, r31	; 0x16
    2620:	ff a5       	ldd	r31, Y+47	; 0x2f
    2622:	ff 87       	std	Y+15, r31	; 0x0f
    2624:	f8 a9       	ldd	r31, Y+48	; 0x30
    2626:	f8 8b       	std	Y+16, r31	; 0x10
    2628:	f9 a9       	ldd	r31, Y+49	; 0x31
    262a:	f9 8b       	std	Y+17, r31	; 0x11
    262c:	fa a9       	ldd	r31, Y+50	; 0x32
    262e:	fa 8b       	std	Y+18, r31	; 0x12
    2630:	fb a5       	ldd	r31, Y+43	; 0x2b
    2632:	fa 83       	std	Y+2, r31	; 0x02
    2634:	fc a5       	ldd	r31, Y+44	; 0x2c
    2636:	fb 83       	std	Y+3, r31	; 0x03
    2638:	fd a5       	ldd	r31, Y+45	; 0x2d
    263a:	fc 83       	std	Y+4, r31	; 0x04
    263c:	fe a5       	ldd	r31, Y+46	; 0x2e
    263e:	fd 83       	std	Y+5, r31	; 0x05
    2640:	1b 85       	ldd	r17, Y+11	; 0x0b
    2642:	bc 85       	ldd	r27, Y+12	; 0x0c
    2644:	ad 85       	ldd	r26, Y+13	; 0x0d
    2646:	fe 85       	ldd	r31, Y+14	; 0x0e
    2648:	21 ff       	sbrs	r18, 1
    264a:	4f c0       	rjmp	.+158    	; 0x26ea <SetSensorConfig+0x1d26>
    264c:	40 2f       	mov	r20, r16
    264e:	3f 2d       	mov	r19, r15
    2650:	8e 2d       	mov	r24, r14
    2652:	9d 2d       	mov	r25, r13
    2654:	6b a1       	ldd	r22, Y+35	; 0x23
    2656:	7c a1       	ldd	r23, Y+36	; 0x24
    2658:	bd a0       	ldd	r11, Y+37	; 0x25
    265a:	ce a0       	ldd	r12, Y+38	; 0x26
    265c:	5f 8d       	ldd	r21, Y+31	; 0x1f
    265e:	5f 83       	std	Y+7, r21	; 0x07
    2660:	f8 a1       	ldd	r31, Y+32	; 0x20
    2662:	f8 87       	std	Y+8, r31	; 0x08
    2664:	59 a1       	ldd	r21, Y+33	; 0x21
    2666:	59 87       	std	Y+9, r21	; 0x09
    2668:	fa a1       	ldd	r31, Y+34	; 0x22
    266a:	fa 87       	std	Y+10, r31	; 0x0a
    266c:	2b 8c       	ldd	r2, Y+27	; 0x1b
    266e:	3c 8c       	ldd	r3, Y+28	; 0x1c
    2670:	4d 8c       	ldd	r4, Y+29	; 0x1d
    2672:	5e 8c       	ldd	r5, Y+30	; 0x1e
    2674:	6f 88       	ldd	r6, Y+23	; 0x17
    2676:	78 8c       	ldd	r7, Y+24	; 0x18
    2678:	89 8c       	ldd	r8, Y+25	; 0x19
    267a:	9a 8c       	ldd	r9, Y+26	; 0x1a
    267c:	eb 89       	ldd	r30, Y+19	; 0x13
    267e:	5c 89       	ldd	r21, Y+20	; 0x14
    2680:	ad 88       	ldd	r10, Y+21	; 0x15
    2682:	fe 89       	ldd	r31, Y+22	; 0x16
    2684:	fe 83       	std	Y+6, r31	; 0x06
    2686:	df 84       	ldd	r13, Y+15	; 0x0f
    2688:	e8 88       	ldd	r14, Y+16	; 0x10
    268a:	f9 88       	ldd	r15, Y+17	; 0x11
    268c:	0a 89       	ldd	r16, Y+18	; 0x12
    268e:	1a 81       	ldd	r17, Y+2	; 0x02
    2690:	bb 81       	ldd	r27, Y+3	; 0x03
    2692:	ac 81       	ldd	r26, Y+4	; 0x04
    2694:	fd 81       	ldd	r31, Y+5	; 0x05
    2696:	22 ff       	sbrs	r18, 2
    2698:	23 c0       	rjmp	.+70     	; 0x26e0 <SetSensorConfig+0x1d1c>
    269a:	42 2d       	mov	r20, r2
    269c:	33 2d       	mov	r19, r3
    269e:	c2 01       	movw	r24, r4
    26a0:	b3 01       	movw	r22, r6
    26a2:	b8 2c       	mov	r11, r8
    26a4:	c9 2c       	mov	r12, r9
    26a6:	9e 80       	ldd	r9, Y+6	; 0x06
    26a8:	1d 2d       	mov	r17, r13
    26aa:	be 2d       	mov	r27, r14
    26ac:	af 2d       	mov	r26, r15
    26ae:	f0 2f       	mov	r31, r16
    26b0:	23 ff       	sbrs	r18, 3
    26b2:	13 c0       	rjmp	.+38     	; 0x26da <SetSensorConfig+0x1d16>
    26b4:	8b 2d       	mov	r24, r11
    26b6:	9c 2d       	mov	r25, r12
    26b8:	1e 2f       	mov	r17, r30
    26ba:	b5 2f       	mov	r27, r21
    26bc:	aa 2d       	mov	r26, r10
    26be:	f9 2d       	mov	r31, r9
    26c0:	24 fd       	sbrc	r18, 4
    26c2:	04 c0       	rjmp	.+8      	; 0x26cc <SetSensorConfig+0x1d08>
    26c4:	61 2f       	mov	r22, r17
    26c6:	7b 2f       	mov	r23, r27
    26c8:	8a 2f       	mov	r24, r26
    26ca:	9f 2f       	mov	r25, r31
    26cc:	e0 91 14 01 	lds	r30, 0x0114	; 0x800114 <ProgramPhotodiodeArray>
    26d0:	f0 91 15 01 	lds	r31, 0x0115	; 0x800115 <ProgramPhotodiodeArray+0x1>
    26d4:	09 95       	icall
    26d6:	0c 94 45 05 	jmp	0xa8a	; 0xa8a <SetSensorConfig+0xc6>
    26da:	64 2f       	mov	r22, r20
    26dc:	73 2f       	mov	r23, r19
    26de:	f0 cf       	rjmp	.-32     	; 0x26c0 <SetSensorConfig+0x1cfc>
    26e0:	ef 81       	ldd	r30, Y+7	; 0x07
    26e2:	58 85       	ldd	r21, Y+8	; 0x08
    26e4:	a9 84       	ldd	r10, Y+9	; 0x09
    26e6:	9a 84       	ldd	r9, Y+10	; 0x0a
    26e8:	e3 cf       	rjmp	.-58     	; 0x26b0 <SetSensorConfig+0x1cec>
    26ea:	df a0       	ldd	r13, Y+39	; 0x27
    26ec:	e8 a4       	ldd	r14, Y+40	; 0x28
    26ee:	f9 a4       	ldd	r15, Y+41	; 0x29
    26f0:	0a a5       	ldd	r16, Y+42	; 0x2a
    26f2:	d1 cf       	rjmp	.-94     	; 0x2696 <SetSensorConfig+0x1cd2>
    26f4:	45 e8       	ldi	r20, 0x85	; 133
    26f6:	30 e1       	ldi	r19, 0x10	; 16
    26f8:	82 e4       	ldi	r24, 0x42	; 66
    26fa:	98 e0       	ldi	r25, 0x08	; 8
    26fc:	65 ec       	ldi	r22, 0xC5	; 197
    26fe:	78 e1       	ldi	r23, 0x18	; 24
    2700:	23 e6       	ldi	r18, 0x63	; 99
    2702:	b2 2e       	mov	r11, r18
    2704:	5c e0       	ldi	r21, 0x0C	; 12
    2706:	c5 2e       	mov	r12, r21
    2708:	25 e4       	ldi	r18, 0x45	; 69
    270a:	2f 83       	std	Y+7, r18	; 0x07
    270c:	58 e0       	ldi	r21, 0x08	; 8
    270e:	58 87       	std	Y+8, r21	; 0x08
    2710:	f1 e2       	ldi	r31, 0x21	; 33
    2712:	f9 87       	std	Y+9, r31	; 0x09
    2714:	24 e0       	ldi	r18, 0x04	; 4
    2716:	2a 87       	std	Y+10, r18	; 0x0a
    2718:	e5 ea       	ldi	r30, 0xA5	; 165
    271a:	2e 2e       	mov	r2, r30
    271c:	f4 e9       	ldi	r31, 0x94	; 148
    271e:	3f 2e       	mov	r3, r31
    2720:	a2 e5       	ldi	r26, 0x52	; 82
    2722:	4a 2e       	mov	r4, r26
    2724:	ba e0       	ldi	r27, 0x0A	; 10
    2726:	5b 2e       	mov	r5, r27
    2728:	15 ee       	ldi	r17, 0xE5	; 229
    272a:	61 2e       	mov	r6, r17
    272c:	0c e9       	ldi	r16, 0x9C	; 156
    272e:	70 2e       	mov	r7, r16
    2730:	23 e7       	ldi	r18, 0x73	; 115
    2732:	82 2e       	mov	r8, r18
    2734:	5e e0       	ldi	r21, 0x0E	; 14
    2736:	95 2e       	mov	r9, r21
    2738:	e5 e6       	ldi	r30, 0x65	; 101
    273a:	5c e8       	ldi	r21, 0x8C	; 140
    273c:	f1 e3       	ldi	r31, 0x31	; 49
    273e:	af 2e       	mov	r10, r31
    2740:	f6 e0       	ldi	r31, 0x06	; 6
    2742:	fe 83       	std	Y+6, r31	; 0x06
    2744:	25 e2       	ldi	r18, 0x25	; 37
    2746:	2f a3       	std	Y+39, r18	; 0x27
    2748:	f4 e8       	ldi	r31, 0x84	; 132
    274a:	f8 a7       	std	Y+40, r31	; 0x28
    274c:	20 e1       	ldi	r18, 0x10	; 16
    274e:	29 a7       	std	Y+41, r18	; 0x29
    2750:	f2 e0       	ldi	r31, 0x02	; 2
    2752:	fa a7       	std	Y+42, r31	; 0x2a
    2754:	05 e9       	ldi	r16, 0x95	; 149
    2756:	a2 e5       	ldi	r26, 0x52	; 82
    2758:	fa 2e       	mov	r15, r26
    275a:	ba e4       	ldi	r27, 0x4A	; 74
    275c:	eb 2e       	mov	r14, r27
    275e:	19 e0       	ldi	r17, 0x09	; 9
    2760:	d1 2e       	mov	r13, r17
    2762:	25 ed       	ldi	r18, 0xD5	; 213
    2764:	2b a3       	std	Y+35, r18	; 0x23
    2766:	fa e5       	ldi	r31, 0x5A	; 90
    2768:	fc a3       	std	Y+36, r31	; 0x24
    276a:	2b e6       	ldi	r18, 0x6B	; 107
    276c:	2d a3       	std	Y+37, r18	; 0x25
    276e:	fd e0       	ldi	r31, 0x0D	; 13
    2770:	fe a3       	std	Y+38, r31	; 0x26
    2772:	25 e5       	ldi	r18, 0x55	; 85
    2774:	2f 8f       	std	Y+31, r18	; 0x1f
    2776:	fa e4       	ldi	r31, 0x4A	; 74
    2778:	f8 a3       	std	Y+32, r31	; 0x20
    277a:	29 e2       	ldi	r18, 0x29	; 41
    277c:	29 a3       	std	Y+33, r18	; 0x21
    277e:	f5 e0       	ldi	r31, 0x05	; 5
    2780:	fa a3       	std	Y+34, r31	; 0x22
    2782:	25 eb       	ldi	r18, 0xB5	; 181
    2784:	2b 8f       	std	Y+27, r18	; 0x1b
    2786:	f6 ed       	ldi	r31, 0xD6	; 214
    2788:	fc 8f       	std	Y+28, r31	; 0x1c
    278a:	2a e5       	ldi	r18, 0x5A	; 90
    278c:	2d 8f       	std	Y+29, r18	; 0x1d
    278e:	fb e0       	ldi	r31, 0x0B	; 11
    2790:	fe 8f       	std	Y+30, r31	; 0x1e
    2792:	25 ef       	ldi	r18, 0xF5	; 245
    2794:	2f 8b       	std	Y+23, r18	; 0x17
    2796:	fe ed       	ldi	r31, 0xDE	; 222
    2798:	f8 8f       	std	Y+24, r31	; 0x18
    279a:	2b e7       	ldi	r18, 0x7B	; 123
    279c:	29 8f       	std	Y+25, r18	; 0x19
    279e:	ff e0       	ldi	r31, 0x0F	; 15
    27a0:	fa 8f       	std	Y+26, r31	; 0x1a
    27a2:	25 e7       	ldi	r18, 0x75	; 117
    27a4:	2b 8b       	std	Y+19, r18	; 0x13
    27a6:	fe ec       	ldi	r31, 0xCE	; 206
    27a8:	fc 8b       	std	Y+20, r31	; 0x14
    27aa:	29 e3       	ldi	r18, 0x39	; 57
    27ac:	2d 8b       	std	Y+21, r18	; 0x15
    27ae:	f7 e0       	ldi	r31, 0x07	; 7
    27b0:	fe 8b       	std	Y+22, r31	; 0x16
    27b2:	25 e3       	ldi	r18, 0x35	; 53
    27b4:	2f 87       	std	Y+15, r18	; 0x0f
    27b6:	f6 ec       	ldi	r31, 0xC6	; 198
    27b8:	f8 8b       	std	Y+16, r31	; 0x10
    27ba:	28 e1       	ldi	r18, 0x18	; 24
    27bc:	29 8b       	std	Y+17, r18	; 0x11
    27be:	f3 e0       	ldi	r31, 0x03	; 3
    27c0:	fa 8b       	std	Y+18, r31	; 0x12
    27c2:	25 e1       	ldi	r18, 0x15	; 21
    27c4:	2a 83       	std	Y+2, r18	; 0x02
    27c6:	f2 e4       	ldi	r31, 0x42	; 66
    27c8:	fb 83       	std	Y+3, r31	; 0x03
    27ca:	28 e0       	ldi	r18, 0x08	; 8
    27cc:	2c 83       	std	Y+4, r18	; 0x04
    27ce:	f1 e0       	ldi	r31, 0x01	; 1
    27d0:	fd 83       	std	Y+5, r31	; 0x05
    27d2:	2d e8       	ldi	r18, 0x8D	; 141
    27d4:	a4 96       	adiw	r28, 0x24	; 36
    27d6:	2f af       	std	Y+63, r18	; 0x3f
    27d8:	a4 97       	sbiw	r28, 0x24	; 36
    27da:	f1 e3       	ldi	r31, 0x31	; 49
    27dc:	a5 96       	adiw	r28, 0x25	; 37
    27de:	ff af       	std	Y+63, r31	; 0x3f
    27e0:	a5 97       	sbiw	r28, 0x25	; 37
    27e2:	26 ec       	ldi	r18, 0xC6	; 198
    27e4:	a6 96       	adiw	r28, 0x26	; 38
    27e6:	2f af       	std	Y+63, r18	; 0x3f
    27e8:	a6 97       	sbiw	r28, 0x26	; 38
    27ea:	f8 e0       	ldi	r31, 0x08	; 8
    27ec:	a7 96       	adiw	r28, 0x27	; 39
    27ee:	ff af       	std	Y+63, r31	; 0x3f
    27f0:	a7 97       	sbiw	r28, 0x27	; 39
    27f2:	2d ec       	ldi	r18, 0xCD	; 205
    27f4:	a0 96       	adiw	r28, 0x20	; 32
    27f6:	2f af       	std	Y+63, r18	; 0x3f
    27f8:	a0 97       	sbiw	r28, 0x20	; 32
    27fa:	f9 e3       	ldi	r31, 0x39	; 57
    27fc:	a1 96       	adiw	r28, 0x21	; 33
    27fe:	ff af       	std	Y+63, r31	; 0x3f
    2800:	a1 97       	sbiw	r28, 0x21	; 33
    2802:	27 ee       	ldi	r18, 0xE7	; 231
    2804:	a2 96       	adiw	r28, 0x22	; 34
    2806:	2f af       	std	Y+63, r18	; 0x3f
    2808:	a2 97       	sbiw	r28, 0x22	; 34
    280a:	fc e0       	ldi	r31, 0x0C	; 12
    280c:	a3 96       	adiw	r28, 0x23	; 35
    280e:	ff af       	std	Y+63, r31	; 0x3f
    2810:	a3 97       	sbiw	r28, 0x23	; 35
    2812:	2d e4       	ldi	r18, 0x4D	; 77
    2814:	6c 96       	adiw	r28, 0x1c	; 28
    2816:	2f af       	std	Y+63, r18	; 0x3f
    2818:	6c 97       	sbiw	r28, 0x1c	; 28
    281a:	f9 e2       	ldi	r31, 0x29	; 41
    281c:	6d 96       	adiw	r28, 0x1d	; 29
    281e:	ff af       	std	Y+63, r31	; 0x3f
    2820:	6d 97       	sbiw	r28, 0x1d	; 29
    2822:	25 ea       	ldi	r18, 0xA5	; 165
    2824:	6e 96       	adiw	r28, 0x1e	; 30
    2826:	2f af       	std	Y+63, r18	; 0x3f
    2828:	6e 97       	sbiw	r28, 0x1e	; 30
    282a:	f4 e0       	ldi	r31, 0x04	; 4
    282c:	6f 96       	adiw	r28, 0x1f	; 31
    282e:	ff af       	std	Y+63, r31	; 0x3f
    2830:	6f 97       	sbiw	r28, 0x1f	; 31
    2832:	2d ea       	ldi	r18, 0xAD	; 173
    2834:	68 96       	adiw	r28, 0x18	; 24
    2836:	2f af       	std	Y+63, r18	; 0x3f
    2838:	68 97       	sbiw	r28, 0x18	; 24
    283a:	f5 eb       	ldi	r31, 0xB5	; 181
    283c:	69 96       	adiw	r28, 0x19	; 25
    283e:	ff af       	std	Y+63, r31	; 0x3f
    2840:	69 97       	sbiw	r28, 0x19	; 25
    2842:	26 ed       	ldi	r18, 0xD6	; 214
    2844:	6a 96       	adiw	r28, 0x1a	; 26
    2846:	2f af       	std	Y+63, r18	; 0x3f
    2848:	6a 97       	sbiw	r28, 0x1a	; 26
    284a:	fa e0       	ldi	r31, 0x0A	; 10
    284c:	6b 96       	adiw	r28, 0x1b	; 27
    284e:	ff af       	std	Y+63, r31	; 0x3f
    2850:	6b 97       	sbiw	r28, 0x1b	; 27
    2852:	2d ee       	ldi	r18, 0xED	; 237
    2854:	64 96       	adiw	r28, 0x14	; 20
    2856:	2f af       	std	Y+63, r18	; 0x3f
    2858:	64 97       	sbiw	r28, 0x14	; 20
    285a:	fd eb       	ldi	r31, 0xBD	; 189
    285c:	65 96       	adiw	r28, 0x15	; 21
    285e:	ff af       	std	Y+63, r31	; 0x3f
    2860:	65 97       	sbiw	r28, 0x15	; 21
    2862:	27 ef       	ldi	r18, 0xF7	; 247
    2864:	66 96       	adiw	r28, 0x16	; 22
    2866:	2f af       	std	Y+63, r18	; 0x3f
    2868:	66 97       	sbiw	r28, 0x16	; 22
    286a:	fe e0       	ldi	r31, 0x0E	; 14
    286c:	67 96       	adiw	r28, 0x17	; 23
    286e:	ff af       	std	Y+63, r31	; 0x3f
    2870:	67 97       	sbiw	r28, 0x17	; 23
    2872:	2d e6       	ldi	r18, 0x6D	; 109
    2874:	60 96       	adiw	r28, 0x10	; 16
    2876:	2f af       	std	Y+63, r18	; 0x3f
    2878:	60 97       	sbiw	r28, 0x10	; 16
    287a:	fd ea       	ldi	r31, 0xAD	; 173
    287c:	61 96       	adiw	r28, 0x11	; 17
    287e:	ff af       	std	Y+63, r31	; 0x3f
    2880:	61 97       	sbiw	r28, 0x11	; 17
    2882:	25 eb       	ldi	r18, 0xB5	; 181
    2884:	62 96       	adiw	r28, 0x12	; 18
    2886:	2f af       	std	Y+63, r18	; 0x3f
    2888:	62 97       	sbiw	r28, 0x12	; 18
    288a:	f6 e0       	ldi	r31, 0x06	; 6
    288c:	63 96       	adiw	r28, 0x13	; 19
    288e:	ff af       	std	Y+63, r31	; 0x3f
    2890:	63 97       	sbiw	r28, 0x13	; 19
    2892:	2d e2       	ldi	r18, 0x2D	; 45
    2894:	2c 96       	adiw	r28, 0x0c	; 12
    2896:	2f af       	std	Y+63, r18	; 0x3f
    2898:	2c 97       	sbiw	r28, 0x0c	; 12
    289a:	f5 ea       	ldi	r31, 0xA5	; 165
    289c:	2d 96       	adiw	r28, 0x0d	; 13
    289e:	ff af       	std	Y+63, r31	; 0x3f
    28a0:	2d 97       	sbiw	r28, 0x0d	; 13
    28a2:	24 e9       	ldi	r18, 0x94	; 148
    28a4:	2e 96       	adiw	r28, 0x0e	; 14
    28a6:	2f af       	std	Y+63, r18	; 0x3f
    28a8:	2e 97       	sbiw	r28, 0x0e	; 14
    28aa:	f2 e0       	ldi	r31, 0x02	; 2
    28ac:	2f 96       	adiw	r28, 0x0f	; 15
    28ae:	ff af       	std	Y+63, r31	; 0x3f
    28b0:	2f 97       	sbiw	r28, 0x0f	; 15
    28b2:	2d e9       	ldi	r18, 0x9D	; 157
    28b4:	28 96       	adiw	r28, 0x08	; 8
    28b6:	2f af       	std	Y+63, r18	; 0x3f
    28b8:	28 97       	sbiw	r28, 0x08	; 8
    28ba:	f3 e7       	ldi	r31, 0x73	; 115
    28bc:	29 96       	adiw	r28, 0x09	; 9
    28be:	ff af       	std	Y+63, r31	; 0x3f
    28c0:	29 97       	sbiw	r28, 0x09	; 9
    28c2:	2e ec       	ldi	r18, 0xCE	; 206
    28c4:	2a 96       	adiw	r28, 0x0a	; 10
    28c6:	2f af       	std	Y+63, r18	; 0x3f
    28c8:	2a 97       	sbiw	r28, 0x0a	; 10
    28ca:	f9 e0       	ldi	r31, 0x09	; 9
    28cc:	2b 96       	adiw	r28, 0x0b	; 11
    28ce:	ff af       	std	Y+63, r31	; 0x3f
    28d0:	2b 97       	sbiw	r28, 0x0b	; 11
    28d2:	2d ed       	ldi	r18, 0xDD	; 221
    28d4:	24 96       	adiw	r28, 0x04	; 4
    28d6:	2f af       	std	Y+63, r18	; 0x3f
    28d8:	24 97       	sbiw	r28, 0x04	; 4
    28da:	fb e7       	ldi	r31, 0x7B	; 123
    28dc:	25 96       	adiw	r28, 0x05	; 5
    28de:	ff af       	std	Y+63, r31	; 0x3f
    28e0:	25 97       	sbiw	r28, 0x05	; 5
    28e2:	2f ee       	ldi	r18, 0xEF	; 239
    28e4:	26 96       	adiw	r28, 0x06	; 6
    28e6:	2f af       	std	Y+63, r18	; 0x3f
    28e8:	26 97       	sbiw	r28, 0x06	; 6
    28ea:	fd e0       	ldi	r31, 0x0D	; 13
    28ec:	27 96       	adiw	r28, 0x07	; 7
    28ee:	ff af       	std	Y+63, r31	; 0x3f
    28f0:	27 97       	sbiw	r28, 0x07	; 7
    28f2:	2d e5       	ldi	r18, 0x5D	; 93
    28f4:	2f af       	std	Y+63, r18	; 0x3f
    28f6:	fb e6       	ldi	r31, 0x6B	; 107
    28f8:	21 96       	adiw	r28, 0x01	; 1
    28fa:	ff af       	std	Y+63, r31	; 0x3f
    28fc:	21 97       	sbiw	r28, 0x01	; 1
    28fe:	2d ea       	ldi	r18, 0xAD	; 173
    2900:	22 96       	adiw	r28, 0x02	; 2
    2902:	2f af       	std	Y+63, r18	; 0x3f
    2904:	22 97       	sbiw	r28, 0x02	; 2
    2906:	f5 e0       	ldi	r31, 0x05	; 5
    2908:	23 96       	adiw	r28, 0x03	; 3
    290a:	ff af       	std	Y+63, r31	; 0x3f
    290c:	23 97       	sbiw	r28, 0x03	; 3
    290e:	2d eb       	ldi	r18, 0xBD	; 189
    2910:	2b af       	std	Y+59, r18	; 0x3b
    2912:	f7 ef       	ldi	r31, 0xF7	; 247
    2914:	fc af       	std	Y+60, r31	; 0x3c
    2916:	2e ed       	ldi	r18, 0xDE	; 222
    2918:	2d af       	std	Y+61, r18	; 0x3d
    291a:	fb e0       	ldi	r31, 0x0B	; 11
    291c:	fe af       	std	Y+62, r31	; 0x3e
    291e:	2d ef       	ldi	r18, 0xFD	; 253
    2920:	2f ab       	std	Y+55, r18	; 0x37
    2922:	ff ef       	ldi	r31, 0xFF	; 255
    2924:	f8 af       	std	Y+56, r31	; 0x38
    2926:	2f ef       	ldi	r18, 0xFF	; 255
    2928:	29 af       	std	Y+57, r18	; 0x39
    292a:	ff e0       	ldi	r31, 0x0F	; 15
    292c:	fa af       	std	Y+58, r31	; 0x3a
    292e:	2d e7       	ldi	r18, 0x7D	; 125
    2930:	2b ab       	std	Y+51, r18	; 0x33
    2932:	ff ee       	ldi	r31, 0xEF	; 239
    2934:	fc ab       	std	Y+52, r31	; 0x34
    2936:	2d eb       	ldi	r18, 0xBD	; 189
    2938:	2d ab       	std	Y+53, r18	; 0x35
    293a:	f7 e0       	ldi	r31, 0x07	; 7
    293c:	fe ab       	std	Y+54, r31	; 0x36
    293e:	2d e3       	ldi	r18, 0x3D	; 61
    2940:	2f a7       	std	Y+47, r18	; 0x2f
    2942:	f7 ee       	ldi	r31, 0xE7	; 231
    2944:	f8 ab       	std	Y+48, r31	; 0x30
    2946:	2c e9       	ldi	r18, 0x9C	; 156
    2948:	29 ab       	std	Y+49, r18	; 0x31
    294a:	f3 e0       	ldi	r31, 0x03	; 3
    294c:	fa ab       	std	Y+50, r31	; 0x32
    294e:	2d e1       	ldi	r18, 0x1D	; 29
    2950:	2b a7       	std	Y+43, r18	; 0x2b
    2952:	f3 e6       	ldi	r31, 0x63	; 99
    2954:	fc a7       	std	Y+44, r31	; 0x2c
    2956:	2c e8       	ldi	r18, 0x8C	; 140
    2958:	2d a7       	std	Y+45, r18	; 0x2d
    295a:	f1 e0       	ldi	r31, 0x01	; 1
    295c:	fe a7       	std	Y+46, r31	; 0x2e
    295e:	2d e0       	ldi	r18, 0x0D	; 13
    2960:	cd 51       	subi	r28, 0x1D	; 29
    2962:	df 4f       	sbci	r29, 0xFF	; 255
    2964:	28 83       	st	Y, r18
    2966:	c3 5e       	subi	r28, 0xE3	; 227
    2968:	d0 40       	sbci	r29, 0x00	; 0
    296a:	f1 e2       	ldi	r31, 0x21	; 33
    296c:	cc 51       	subi	r28, 0x1C	; 28
    296e:	df 4f       	sbci	r29, 0xFF	; 255
    2970:	f8 83       	st	Y, r31
    2972:	c4 5e       	subi	r28, 0xE4	; 228
    2974:	d0 40       	sbci	r29, 0x00	; 0
    2976:	24 e8       	ldi	r18, 0x84	; 132
    2978:	cb 51       	subi	r28, 0x1B	; 27
    297a:	df 4f       	sbci	r29, 0xFF	; 255
    297c:	28 83       	st	Y, r18
    297e:	c5 5e       	subi	r28, 0xE5	; 229
    2980:	d0 40       	sbci	r29, 0x00	; 0
    2982:	ca 51       	subi	r28, 0x1A	; 26
    2984:	df 4f       	sbci	r29, 0xFF	; 255
    2986:	18 82       	st	Y, r1
    2988:	c6 5e       	subi	r28, 0xE6	; 230
    298a:	d0 40       	sbci	r29, 0x00	; 0
    298c:	f3 e8       	ldi	r31, 0x83	; 131
    298e:	cd 59       	subi	r28, 0x9D	; 157
    2990:	de 4f       	sbci	r29, 0xFE	; 254
    2992:	f8 83       	st	Y, r31
    2994:	c3 56       	subi	r28, 0x63	; 99
    2996:	d1 40       	sbci	r29, 0x01	; 1
    2998:	20 e1       	ldi	r18, 0x10	; 16
    299a:	cc 59       	subi	r28, 0x9C	; 156
    299c:	de 4f       	sbci	r29, 0xFE	; 254
    299e:	28 83       	st	Y, r18
    29a0:	c4 56       	subi	r28, 0x64	; 100
    29a2:	d1 40       	sbci	r29, 0x01	; 1
    29a4:	f2 e4       	ldi	r31, 0x42	; 66
    29a6:	cb 59       	subi	r28, 0x9B	; 155
    29a8:	de 4f       	sbci	r29, 0xFE	; 254
    29aa:	f8 83       	st	Y, r31
    29ac:	c5 56       	subi	r28, 0x65	; 101
    29ae:	d1 40       	sbci	r29, 0x01	; 1
    29b0:	28 e0       	ldi	r18, 0x08	; 8
    29b2:	ca 59       	subi	r28, 0x9A	; 154
    29b4:	de 4f       	sbci	r29, 0xFE	; 254
    29b6:	28 83       	st	Y, r18
    29b8:	c6 56       	subi	r28, 0x66	; 102
    29ba:	d1 40       	sbci	r29, 0x01	; 1
    29bc:	f3 ec       	ldi	r31, 0xC3	; 195
    29be:	c1 5a       	subi	r28, 0xA1	; 161
    29c0:	de 4f       	sbci	r29, 0xFE	; 254
    29c2:	f8 83       	st	Y, r31
    29c4:	cf 55       	subi	r28, 0x5F	; 95
    29c6:	d1 40       	sbci	r29, 0x01	; 1
    29c8:	28 e1       	ldi	r18, 0x18	; 24
    29ca:	c0 5a       	subi	r28, 0xA0	; 160
    29cc:	de 4f       	sbci	r29, 0xFE	; 254
    29ce:	28 83       	st	Y, r18
    29d0:	c0 56       	subi	r28, 0x60	; 96
    29d2:	d1 40       	sbci	r29, 0x01	; 1
    29d4:	f3 e6       	ldi	r31, 0x63	; 99
    29d6:	cf 59       	subi	r28, 0x9F	; 159
    29d8:	de 4f       	sbci	r29, 0xFE	; 254
    29da:	f8 83       	st	Y, r31
    29dc:	c1 56       	subi	r28, 0x61	; 97
    29de:	d1 40       	sbci	r29, 0x01	; 1
    29e0:	2c e0       	ldi	r18, 0x0C	; 12
    29e2:	ce 59       	subi	r28, 0x9E	; 158
    29e4:	de 4f       	sbci	r29, 0xFE	; 254
    29e6:	28 83       	st	Y, r18
    29e8:	c2 56       	subi	r28, 0x62	; 98
    29ea:	d1 40       	sbci	r29, 0x01	; 1
    29ec:	f3 e4       	ldi	r31, 0x43	; 67
    29ee:	c5 5a       	subi	r28, 0xA5	; 165
    29f0:	de 4f       	sbci	r29, 0xFE	; 254
    29f2:	f8 83       	st	Y, r31
    29f4:	cb 55       	subi	r28, 0x5B	; 91
    29f6:	d1 40       	sbci	r29, 0x01	; 1
    29f8:	28 e0       	ldi	r18, 0x08	; 8
    29fa:	c4 5a       	subi	r28, 0xA4	; 164
    29fc:	de 4f       	sbci	r29, 0xFE	; 254
    29fe:	28 83       	st	Y, r18
    2a00:	cc 55       	subi	r28, 0x5C	; 92
    2a02:	d1 40       	sbci	r29, 0x01	; 1
    2a04:	f1 e2       	ldi	r31, 0x21	; 33
    2a06:	c3 5a       	subi	r28, 0xA3	; 163
    2a08:	de 4f       	sbci	r29, 0xFE	; 254
    2a0a:	f8 83       	st	Y, r31
    2a0c:	cd 55       	subi	r28, 0x5D	; 93
    2a0e:	d1 40       	sbci	r29, 0x01	; 1
    2a10:	24 e0       	ldi	r18, 0x04	; 4
    2a12:	c2 5a       	subi	r28, 0xA2	; 162
    2a14:	de 4f       	sbci	r29, 0xFE	; 254
    2a16:	28 83       	st	Y, r18
    2a18:	ce 55       	subi	r28, 0x5E	; 94
    2a1a:	d1 40       	sbci	r29, 0x01	; 1
    2a1c:	f3 ea       	ldi	r31, 0xA3	; 163
    2a1e:	c9 5a       	subi	r28, 0xA9	; 169
    2a20:	de 4f       	sbci	r29, 0xFE	; 254
    2a22:	f8 83       	st	Y, r31
    2a24:	c7 55       	subi	r28, 0x57	; 87
    2a26:	d1 40       	sbci	r29, 0x01	; 1
    2a28:	24 e9       	ldi	r18, 0x94	; 148
    2a2a:	c8 5a       	subi	r28, 0xA8	; 168
    2a2c:	de 4f       	sbci	r29, 0xFE	; 254
    2a2e:	28 83       	st	Y, r18
    2a30:	c8 55       	subi	r28, 0x58	; 88
    2a32:	d1 40       	sbci	r29, 0x01	; 1
    2a34:	f2 e5       	ldi	r31, 0x52	; 82
    2a36:	c7 5a       	subi	r28, 0xA7	; 167
    2a38:	de 4f       	sbci	r29, 0xFE	; 254
    2a3a:	f8 83       	st	Y, r31
    2a3c:	c9 55       	subi	r28, 0x59	; 89
    2a3e:	d1 40       	sbci	r29, 0x01	; 1
    2a40:	2a e0       	ldi	r18, 0x0A	; 10
    2a42:	c6 5a       	subi	r28, 0xA6	; 166
    2a44:	de 4f       	sbci	r29, 0xFE	; 254
    2a46:	28 83       	st	Y, r18
    2a48:	ca 55       	subi	r28, 0x5A	; 90
    2a4a:	d1 40       	sbci	r29, 0x01	; 1
    2a4c:	f3 ee       	ldi	r31, 0xE3	; 227
    2a4e:	cd 5a       	subi	r28, 0xAD	; 173
    2a50:	de 4f       	sbci	r29, 0xFE	; 254
    2a52:	f8 83       	st	Y, r31
    2a54:	c3 55       	subi	r28, 0x53	; 83
    2a56:	d1 40       	sbci	r29, 0x01	; 1
    2a58:	2c e9       	ldi	r18, 0x9C	; 156
    2a5a:	cc 5a       	subi	r28, 0xAC	; 172
    2a5c:	de 4f       	sbci	r29, 0xFE	; 254
    2a5e:	28 83       	st	Y, r18
    2a60:	c4 55       	subi	r28, 0x54	; 84
    2a62:	d1 40       	sbci	r29, 0x01	; 1
    2a64:	f3 e7       	ldi	r31, 0x73	; 115
    2a66:	cb 5a       	subi	r28, 0xAB	; 171
    2a68:	de 4f       	sbci	r29, 0xFE	; 254
    2a6a:	f8 83       	st	Y, r31
    2a6c:	c5 55       	subi	r28, 0x55	; 85
    2a6e:	d1 40       	sbci	r29, 0x01	; 1
    2a70:	2e e0       	ldi	r18, 0x0E	; 14
    2a72:	ca 5a       	subi	r28, 0xAA	; 170
    2a74:	de 4f       	sbci	r29, 0xFE	; 254
    2a76:	28 83       	st	Y, r18
    2a78:	c6 55       	subi	r28, 0x56	; 86
    2a7a:	d1 40       	sbci	r29, 0x01	; 1
    2a7c:	f3 e6       	ldi	r31, 0x63	; 99
    2a7e:	c1 5b       	subi	r28, 0xB1	; 177
    2a80:	de 4f       	sbci	r29, 0xFE	; 254
    2a82:	f8 83       	st	Y, r31
    2a84:	cf 54       	subi	r28, 0x4F	; 79
    2a86:	d1 40       	sbci	r29, 0x01	; 1
    2a88:	2c e8       	ldi	r18, 0x8C	; 140
    2a8a:	c0 5b       	subi	r28, 0xB0	; 176
    2a8c:	de 4f       	sbci	r29, 0xFE	; 254
    2a8e:	28 83       	st	Y, r18
    2a90:	c0 55       	subi	r28, 0x50	; 80
    2a92:	d1 40       	sbci	r29, 0x01	; 1
    2a94:	f1 e3       	ldi	r31, 0x31	; 49
    2a96:	cf 5a       	subi	r28, 0xAF	; 175
    2a98:	de 4f       	sbci	r29, 0xFE	; 254
    2a9a:	f8 83       	st	Y, r31
    2a9c:	c1 55       	subi	r28, 0x51	; 81
    2a9e:	d1 40       	sbci	r29, 0x01	; 1
    2aa0:	26 e0       	ldi	r18, 0x06	; 6
    2aa2:	ce 5a       	subi	r28, 0xAE	; 174
    2aa4:	de 4f       	sbci	r29, 0xFE	; 254
    2aa6:	28 83       	st	Y, r18
    2aa8:	c2 55       	subi	r28, 0x52	; 82
    2aaa:	d1 40       	sbci	r29, 0x01	; 1
    2aac:	f3 e2       	ldi	r31, 0x23	; 35
    2aae:	c5 5b       	subi	r28, 0xB5	; 181
    2ab0:	de 4f       	sbci	r29, 0xFE	; 254
    2ab2:	f8 83       	st	Y, r31
    2ab4:	cb 54       	subi	r28, 0x4B	; 75
    2ab6:	d1 40       	sbci	r29, 0x01	; 1
    2ab8:	24 e8       	ldi	r18, 0x84	; 132
    2aba:	c4 5b       	subi	r28, 0xB4	; 180
    2abc:	de 4f       	sbci	r29, 0xFE	; 254
    2abe:	28 83       	st	Y, r18
    2ac0:	cc 54       	subi	r28, 0x4C	; 76
    2ac2:	d1 40       	sbci	r29, 0x01	; 1
    2ac4:	f0 e1       	ldi	r31, 0x10	; 16
    2ac6:	c3 5b       	subi	r28, 0xB3	; 179
    2ac8:	de 4f       	sbci	r29, 0xFE	; 254
    2aca:	f8 83       	st	Y, r31
    2acc:	cd 54       	subi	r28, 0x4D	; 77
    2ace:	d1 40       	sbci	r29, 0x01	; 1
    2ad0:	22 e0       	ldi	r18, 0x02	; 2
    2ad2:	c2 5b       	subi	r28, 0xB2	; 178
    2ad4:	de 4f       	sbci	r29, 0xFE	; 254
    2ad6:	28 83       	st	Y, r18
    2ad8:	ce 54       	subi	r28, 0x4E	; 78
    2ada:	d1 40       	sbci	r29, 0x01	; 1
    2adc:	f3 e9       	ldi	r31, 0x93	; 147
    2ade:	c9 5b       	subi	r28, 0xB9	; 185
    2ae0:	de 4f       	sbci	r29, 0xFE	; 254
    2ae2:	f8 83       	st	Y, r31
    2ae4:	c7 54       	subi	r28, 0x47	; 71
    2ae6:	d1 40       	sbci	r29, 0x01	; 1
    2ae8:	22 e5       	ldi	r18, 0x52	; 82
    2aea:	c8 5b       	subi	r28, 0xB8	; 184
    2aec:	de 4f       	sbci	r29, 0xFE	; 254
    2aee:	28 83       	st	Y, r18
    2af0:	c8 54       	subi	r28, 0x48	; 72
    2af2:	d1 40       	sbci	r29, 0x01	; 1
    2af4:	fa e4       	ldi	r31, 0x4A	; 74
    2af6:	c7 5b       	subi	r28, 0xB7	; 183
    2af8:	de 4f       	sbci	r29, 0xFE	; 254
    2afa:	f8 83       	st	Y, r31
    2afc:	c9 54       	subi	r28, 0x49	; 73
    2afe:	d1 40       	sbci	r29, 0x01	; 1
    2b00:	29 e0       	ldi	r18, 0x09	; 9
    2b02:	c6 5b       	subi	r28, 0xB6	; 182
    2b04:	de 4f       	sbci	r29, 0xFE	; 254
    2b06:	28 83       	st	Y, r18
    2b08:	ca 54       	subi	r28, 0x4A	; 74
    2b0a:	d1 40       	sbci	r29, 0x01	; 1
    2b0c:	f3 ed       	ldi	r31, 0xD3	; 211
    2b0e:	cd 5b       	subi	r28, 0xBD	; 189
    2b10:	de 4f       	sbci	r29, 0xFE	; 254
    2b12:	f8 83       	st	Y, r31
    2b14:	c3 54       	subi	r28, 0x43	; 67
    2b16:	d1 40       	sbci	r29, 0x01	; 1
    2b18:	2a e5       	ldi	r18, 0x5A	; 90
    2b1a:	cc 5b       	subi	r28, 0xBC	; 188
    2b1c:	de 4f       	sbci	r29, 0xFE	; 254
    2b1e:	28 83       	st	Y, r18
    2b20:	c4 54       	subi	r28, 0x44	; 68
    2b22:	d1 40       	sbci	r29, 0x01	; 1
    2b24:	fb e6       	ldi	r31, 0x6B	; 107
    2b26:	cb 5b       	subi	r28, 0xBB	; 187
    2b28:	de 4f       	sbci	r29, 0xFE	; 254
    2b2a:	f8 83       	st	Y, r31
    2b2c:	c5 54       	subi	r28, 0x45	; 69
    2b2e:	d1 40       	sbci	r29, 0x01	; 1
    2b30:	2d e0       	ldi	r18, 0x0D	; 13
    2b32:	ca 5b       	subi	r28, 0xBA	; 186
    2b34:	de 4f       	sbci	r29, 0xFE	; 254
    2b36:	28 83       	st	Y, r18
    2b38:	c6 54       	subi	r28, 0x46	; 70
    2b3a:	d1 40       	sbci	r29, 0x01	; 1
    2b3c:	f3 e5       	ldi	r31, 0x53	; 83
    2b3e:	c1 5c       	subi	r28, 0xC1	; 193
    2b40:	de 4f       	sbci	r29, 0xFE	; 254
    2b42:	f8 83       	st	Y, r31
    2b44:	cf 53       	subi	r28, 0x3F	; 63
    2b46:	d1 40       	sbci	r29, 0x01	; 1
    2b48:	2a e4       	ldi	r18, 0x4A	; 74
    2b4a:	c0 5c       	subi	r28, 0xC0	; 192
    2b4c:	de 4f       	sbci	r29, 0xFE	; 254
    2b4e:	28 83       	st	Y, r18
    2b50:	c0 54       	subi	r28, 0x40	; 64
    2b52:	d1 40       	sbci	r29, 0x01	; 1
    2b54:	f9 e2       	ldi	r31, 0x29	; 41
    2b56:	cf 5b       	subi	r28, 0xBF	; 191
    2b58:	de 4f       	sbci	r29, 0xFE	; 254
    2b5a:	f8 83       	st	Y, r31
    2b5c:	c1 54       	subi	r28, 0x41	; 65
    2b5e:	d1 40       	sbci	r29, 0x01	; 1
    2b60:	25 e0       	ldi	r18, 0x05	; 5
    2b62:	ce 5b       	subi	r28, 0xBE	; 190
    2b64:	de 4f       	sbci	r29, 0xFE	; 254
    2b66:	28 83       	st	Y, r18
    2b68:	c2 54       	subi	r28, 0x42	; 66
    2b6a:	d1 40       	sbci	r29, 0x01	; 1
    2b6c:	f3 eb       	ldi	r31, 0xB3	; 179
    2b6e:	c5 5c       	subi	r28, 0xC5	; 197
    2b70:	de 4f       	sbci	r29, 0xFE	; 254
    2b72:	f8 83       	st	Y, r31
    2b74:	cb 53       	subi	r28, 0x3B	; 59
    2b76:	d1 40       	sbci	r29, 0x01	; 1
    2b78:	26 ed       	ldi	r18, 0xD6	; 214
    2b7a:	c4 5c       	subi	r28, 0xC4	; 196
    2b7c:	de 4f       	sbci	r29, 0xFE	; 254
    2b7e:	28 83       	st	Y, r18
    2b80:	cc 53       	subi	r28, 0x3C	; 60
    2b82:	d1 40       	sbci	r29, 0x01	; 1
    2b84:	fa e5       	ldi	r31, 0x5A	; 90
    2b86:	c3 5c       	subi	r28, 0xC3	; 195
    2b88:	de 4f       	sbci	r29, 0xFE	; 254
    2b8a:	f8 83       	st	Y, r31
    2b8c:	cd 53       	subi	r28, 0x3D	; 61
    2b8e:	d1 40       	sbci	r29, 0x01	; 1
    2b90:	2b e0       	ldi	r18, 0x0B	; 11
    2b92:	c2 5c       	subi	r28, 0xC2	; 194
    2b94:	de 4f       	sbci	r29, 0xFE	; 254
    2b96:	28 83       	st	Y, r18
    2b98:	ce 53       	subi	r28, 0x3E	; 62
    2b9a:	d1 40       	sbci	r29, 0x01	; 1
    2b9c:	f3 ef       	ldi	r31, 0xF3	; 243
    2b9e:	c9 5c       	subi	r28, 0xC9	; 201
    2ba0:	de 4f       	sbci	r29, 0xFE	; 254
    2ba2:	f8 83       	st	Y, r31
    2ba4:	c7 53       	subi	r28, 0x37	; 55
    2ba6:	d1 40       	sbci	r29, 0x01	; 1
    2ba8:	2e ed       	ldi	r18, 0xDE	; 222
    2baa:	c8 5c       	subi	r28, 0xC8	; 200
    2bac:	de 4f       	sbci	r29, 0xFE	; 254
    2bae:	28 83       	st	Y, r18
    2bb0:	c8 53       	subi	r28, 0x38	; 56
    2bb2:	d1 40       	sbci	r29, 0x01	; 1
    2bb4:	fb e7       	ldi	r31, 0x7B	; 123
    2bb6:	c7 5c       	subi	r28, 0xC7	; 199
    2bb8:	de 4f       	sbci	r29, 0xFE	; 254
    2bba:	f8 83       	st	Y, r31
    2bbc:	c9 53       	subi	r28, 0x39	; 57
    2bbe:	d1 40       	sbci	r29, 0x01	; 1
    2bc0:	2f e0       	ldi	r18, 0x0F	; 15
    2bc2:	c6 5c       	subi	r28, 0xC6	; 198
    2bc4:	de 4f       	sbci	r29, 0xFE	; 254
    2bc6:	28 83       	st	Y, r18
    2bc8:	ca 53       	subi	r28, 0x3A	; 58
    2bca:	d1 40       	sbci	r29, 0x01	; 1
    2bcc:	f3 e7       	ldi	r31, 0x73	; 115
    2bce:	cd 5c       	subi	r28, 0xCD	; 205
    2bd0:	de 4f       	sbci	r29, 0xFE	; 254
    2bd2:	f8 83       	st	Y, r31
    2bd4:	c3 53       	subi	r28, 0x33	; 51
    2bd6:	d1 40       	sbci	r29, 0x01	; 1
    2bd8:	2e ec       	ldi	r18, 0xCE	; 206
    2bda:	cc 5c       	subi	r28, 0xCC	; 204
    2bdc:	de 4f       	sbci	r29, 0xFE	; 254
    2bde:	28 83       	st	Y, r18
    2be0:	c4 53       	subi	r28, 0x34	; 52
    2be2:	d1 40       	sbci	r29, 0x01	; 1
    2be4:	f9 e3       	ldi	r31, 0x39	; 57
    2be6:	cb 5c       	subi	r28, 0xCB	; 203
    2be8:	de 4f       	sbci	r29, 0xFE	; 254
    2bea:	f8 83       	st	Y, r31
    2bec:	c5 53       	subi	r28, 0x35	; 53
    2bee:	d1 40       	sbci	r29, 0x01	; 1
    2bf0:	27 e0       	ldi	r18, 0x07	; 7
    2bf2:	ca 5c       	subi	r28, 0xCA	; 202
    2bf4:	de 4f       	sbci	r29, 0xFE	; 254
    2bf6:	28 83       	st	Y, r18
    2bf8:	c6 53       	subi	r28, 0x36	; 54
    2bfa:	d1 40       	sbci	r29, 0x01	; 1
    2bfc:	f3 e3       	ldi	r31, 0x33	; 51
    2bfe:	c1 5d       	subi	r28, 0xD1	; 209
    2c00:	de 4f       	sbci	r29, 0xFE	; 254
    2c02:	f8 83       	st	Y, r31
    2c04:	cf 52       	subi	r28, 0x2F	; 47
    2c06:	d1 40       	sbci	r29, 0x01	; 1
    2c08:	26 ec       	ldi	r18, 0xC6	; 198
    2c0a:	c0 5d       	subi	r28, 0xD0	; 208
    2c0c:	de 4f       	sbci	r29, 0xFE	; 254
    2c0e:	28 83       	st	Y, r18
    2c10:	c0 53       	subi	r28, 0x30	; 48
    2c12:	d1 40       	sbci	r29, 0x01	; 1
    2c14:	f8 e1       	ldi	r31, 0x18	; 24
    2c16:	cf 5c       	subi	r28, 0xCF	; 207
    2c18:	de 4f       	sbci	r29, 0xFE	; 254
    2c1a:	f8 83       	st	Y, r31
    2c1c:	c1 53       	subi	r28, 0x31	; 49
    2c1e:	d1 40       	sbci	r29, 0x01	; 1
    2c20:	23 e0       	ldi	r18, 0x03	; 3
    2c22:	ce 5c       	subi	r28, 0xCE	; 206
    2c24:	de 4f       	sbci	r29, 0xFE	; 254
    2c26:	28 83       	st	Y, r18
    2c28:	c2 53       	subi	r28, 0x32	; 50
    2c2a:	d1 40       	sbci	r29, 0x01	; 1
    2c2c:	f3 e1       	ldi	r31, 0x13	; 19
    2c2e:	c5 5d       	subi	r28, 0xD5	; 213
    2c30:	de 4f       	sbci	r29, 0xFE	; 254
    2c32:	f8 83       	st	Y, r31
    2c34:	cb 52       	subi	r28, 0x2B	; 43
    2c36:	d1 40       	sbci	r29, 0x01	; 1
    2c38:	22 e4       	ldi	r18, 0x42	; 66
    2c3a:	c4 5d       	subi	r28, 0xD4	; 212
    2c3c:	de 4f       	sbci	r29, 0xFE	; 254
    2c3e:	28 83       	st	Y, r18
    2c40:	cc 52       	subi	r28, 0x2C	; 44
    2c42:	d1 40       	sbci	r29, 0x01	; 1
    2c44:	f8 e0       	ldi	r31, 0x08	; 8
    2c46:	c3 5d       	subi	r28, 0xD3	; 211
    2c48:	de 4f       	sbci	r29, 0xFE	; 254
    2c4a:	f8 83       	st	Y, r31
    2c4c:	cd 52       	subi	r28, 0x2D	; 45
    2c4e:	d1 40       	sbci	r29, 0x01	; 1
    2c50:	21 e0       	ldi	r18, 0x01	; 1
    2c52:	c2 5d       	subi	r28, 0xD2	; 210
    2c54:	de 4f       	sbci	r29, 0xFE	; 254
    2c56:	28 83       	st	Y, r18
    2c58:	ce 52       	subi	r28, 0x2E	; 46
    2c5a:	d1 40       	sbci	r29, 0x01	; 1
    2c5c:	fb e8       	ldi	r31, 0x8B	; 139
    2c5e:	c9 5d       	subi	r28, 0xD9	; 217
    2c60:	de 4f       	sbci	r29, 0xFE	; 254
    2c62:	f8 83       	st	Y, r31
    2c64:	c7 52       	subi	r28, 0x27	; 39
    2c66:	d1 40       	sbci	r29, 0x01	; 1
    2c68:	21 e3       	ldi	r18, 0x31	; 49
    2c6a:	c8 5d       	subi	r28, 0xD8	; 216
    2c6c:	de 4f       	sbci	r29, 0xFE	; 254
    2c6e:	28 83       	st	Y, r18
    2c70:	c8 52       	subi	r28, 0x28	; 40
    2c72:	d1 40       	sbci	r29, 0x01	; 1
    2c74:	f6 ec       	ldi	r31, 0xC6	; 198
    2c76:	c7 5d       	subi	r28, 0xD7	; 215
    2c78:	de 4f       	sbci	r29, 0xFE	; 254
    2c7a:	f8 83       	st	Y, r31
    2c7c:	c9 52       	subi	r28, 0x29	; 41
    2c7e:	d1 40       	sbci	r29, 0x01	; 1
    2c80:	28 e0       	ldi	r18, 0x08	; 8
    2c82:	c6 5d       	subi	r28, 0xD6	; 214
    2c84:	de 4f       	sbci	r29, 0xFE	; 254
    2c86:	28 83       	st	Y, r18
    2c88:	ca 52       	subi	r28, 0x2A	; 42
    2c8a:	d1 40       	sbci	r29, 0x01	; 1
    2c8c:	fb ec       	ldi	r31, 0xCB	; 203
    2c8e:	cd 5d       	subi	r28, 0xDD	; 221
    2c90:	de 4f       	sbci	r29, 0xFE	; 254
    2c92:	f8 83       	st	Y, r31
    2c94:	c3 52       	subi	r28, 0x23	; 35
    2c96:	d1 40       	sbci	r29, 0x01	; 1
    2c98:	29 e3       	ldi	r18, 0x39	; 57
    2c9a:	cc 5d       	subi	r28, 0xDC	; 220
    2c9c:	de 4f       	sbci	r29, 0xFE	; 254
    2c9e:	28 83       	st	Y, r18
    2ca0:	c4 52       	subi	r28, 0x24	; 36
    2ca2:	d1 40       	sbci	r29, 0x01	; 1
    2ca4:	f7 ee       	ldi	r31, 0xE7	; 231
    2ca6:	cb 5d       	subi	r28, 0xDB	; 219
    2ca8:	de 4f       	sbci	r29, 0xFE	; 254
    2caa:	f8 83       	st	Y, r31
    2cac:	c5 52       	subi	r28, 0x25	; 37
    2cae:	d1 40       	sbci	r29, 0x01	; 1
    2cb0:	2c e0       	ldi	r18, 0x0C	; 12
    2cb2:	ca 5d       	subi	r28, 0xDA	; 218
    2cb4:	de 4f       	sbci	r29, 0xFE	; 254
    2cb6:	28 83       	st	Y, r18
    2cb8:	c6 52       	subi	r28, 0x26	; 38
    2cba:	d1 40       	sbci	r29, 0x01	; 1
    2cbc:	fb e4       	ldi	r31, 0x4B	; 75
    2cbe:	c1 5e       	subi	r28, 0xE1	; 225
    2cc0:	de 4f       	sbci	r29, 0xFE	; 254
    2cc2:	f8 83       	st	Y, r31
    2cc4:	cf 51       	subi	r28, 0x1F	; 31
    2cc6:	d1 40       	sbci	r29, 0x01	; 1
    2cc8:	29 e2       	ldi	r18, 0x29	; 41
    2cca:	c0 5e       	subi	r28, 0xE0	; 224
    2ccc:	de 4f       	sbci	r29, 0xFE	; 254
    2cce:	28 83       	st	Y, r18
    2cd0:	c0 52       	subi	r28, 0x20	; 32
    2cd2:	d1 40       	sbci	r29, 0x01	; 1
    2cd4:	f5 ea       	ldi	r31, 0xA5	; 165
    2cd6:	cf 5d       	subi	r28, 0xDF	; 223
    2cd8:	de 4f       	sbci	r29, 0xFE	; 254
    2cda:	f8 83       	st	Y, r31
    2cdc:	c1 52       	subi	r28, 0x21	; 33
    2cde:	d1 40       	sbci	r29, 0x01	; 1
    2ce0:	24 e0       	ldi	r18, 0x04	; 4
    2ce2:	ce 5d       	subi	r28, 0xDE	; 222
    2ce4:	de 4f       	sbci	r29, 0xFE	; 254
    2ce6:	28 83       	st	Y, r18
    2ce8:	c2 52       	subi	r28, 0x22	; 34
    2cea:	d1 40       	sbci	r29, 0x01	; 1
    2cec:	fb ea       	ldi	r31, 0xAB	; 171
    2cee:	c5 5e       	subi	r28, 0xE5	; 229
    2cf0:	de 4f       	sbci	r29, 0xFE	; 254
    2cf2:	f8 83       	st	Y, r31
    2cf4:	cb 51       	subi	r28, 0x1B	; 27
    2cf6:	d1 40       	sbci	r29, 0x01	; 1
    2cf8:	25 eb       	ldi	r18, 0xB5	; 181
    2cfa:	c4 5e       	subi	r28, 0xE4	; 228
    2cfc:	de 4f       	sbci	r29, 0xFE	; 254
    2cfe:	28 83       	st	Y, r18
    2d00:	cc 51       	subi	r28, 0x1C	; 28
    2d02:	d1 40       	sbci	r29, 0x01	; 1
    2d04:	f6 ed       	ldi	r31, 0xD6	; 214
    2d06:	c3 5e       	subi	r28, 0xE3	; 227
    2d08:	de 4f       	sbci	r29, 0xFE	; 254
    2d0a:	f8 83       	st	Y, r31
    2d0c:	cd 51       	subi	r28, 0x1D	; 29
    2d0e:	d1 40       	sbci	r29, 0x01	; 1
    2d10:	2a e0       	ldi	r18, 0x0A	; 10
    2d12:	c2 5e       	subi	r28, 0xE2	; 226
    2d14:	de 4f       	sbci	r29, 0xFE	; 254
    2d16:	28 83       	st	Y, r18
    2d18:	ce 51       	subi	r28, 0x1E	; 30
    2d1a:	d1 40       	sbci	r29, 0x01	; 1
    2d1c:	fb ee       	ldi	r31, 0xEB	; 235
    2d1e:	c9 5e       	subi	r28, 0xE9	; 233
    2d20:	de 4f       	sbci	r29, 0xFE	; 254
    2d22:	f8 83       	st	Y, r31
    2d24:	c7 51       	subi	r28, 0x17	; 23
    2d26:	d1 40       	sbci	r29, 0x01	; 1
    2d28:	2d eb       	ldi	r18, 0xBD	; 189
    2d2a:	c8 5e       	subi	r28, 0xE8	; 232
    2d2c:	de 4f       	sbci	r29, 0xFE	; 254
    2d2e:	28 83       	st	Y, r18
    2d30:	c8 51       	subi	r28, 0x18	; 24
    2d32:	d1 40       	sbci	r29, 0x01	; 1
    2d34:	f7 ef       	ldi	r31, 0xF7	; 247
    2d36:	c7 5e       	subi	r28, 0xE7	; 231
    2d38:	de 4f       	sbci	r29, 0xFE	; 254
    2d3a:	f8 83       	st	Y, r31
    2d3c:	c9 51       	subi	r28, 0x19	; 25
    2d3e:	d1 40       	sbci	r29, 0x01	; 1
    2d40:	2e e0       	ldi	r18, 0x0E	; 14
    2d42:	c6 5e       	subi	r28, 0xE6	; 230
    2d44:	de 4f       	sbci	r29, 0xFE	; 254
    2d46:	28 83       	st	Y, r18
    2d48:	ca 51       	subi	r28, 0x1A	; 26
    2d4a:	d1 40       	sbci	r29, 0x01	; 1
    2d4c:	fb e6       	ldi	r31, 0x6B	; 107
    2d4e:	cd 5e       	subi	r28, 0xED	; 237
    2d50:	de 4f       	sbci	r29, 0xFE	; 254
    2d52:	f8 83       	st	Y, r31
    2d54:	c3 51       	subi	r28, 0x13	; 19
    2d56:	d1 40       	sbci	r29, 0x01	; 1
    2d58:	2d ea       	ldi	r18, 0xAD	; 173
    2d5a:	cc 5e       	subi	r28, 0xEC	; 236
    2d5c:	de 4f       	sbci	r29, 0xFE	; 254
    2d5e:	28 83       	st	Y, r18
    2d60:	c4 51       	subi	r28, 0x14	; 20
    2d62:	d1 40       	sbci	r29, 0x01	; 1
    2d64:	f5 eb       	ldi	r31, 0xB5	; 181
    2d66:	cb 5e       	subi	r28, 0xEB	; 235
    2d68:	de 4f       	sbci	r29, 0xFE	; 254
    2d6a:	f8 83       	st	Y, r31
    2d6c:	c5 51       	subi	r28, 0x15	; 21
    2d6e:	d1 40       	sbci	r29, 0x01	; 1
    2d70:	26 e0       	ldi	r18, 0x06	; 6
    2d72:	ca 5e       	subi	r28, 0xEA	; 234
    2d74:	de 4f       	sbci	r29, 0xFE	; 254
    2d76:	28 83       	st	Y, r18
    2d78:	c6 51       	subi	r28, 0x16	; 22
    2d7a:	d1 40       	sbci	r29, 0x01	; 1
    2d7c:	fb e2       	ldi	r31, 0x2B	; 43
    2d7e:	c1 5f       	subi	r28, 0xF1	; 241
    2d80:	de 4f       	sbci	r29, 0xFE	; 254
    2d82:	f8 83       	st	Y, r31
    2d84:	cf 50       	subi	r28, 0x0F	; 15
    2d86:	d1 40       	sbci	r29, 0x01	; 1
    2d88:	25 ea       	ldi	r18, 0xA5	; 165
    2d8a:	c0 5f       	subi	r28, 0xF0	; 240
    2d8c:	de 4f       	sbci	r29, 0xFE	; 254
    2d8e:	28 83       	st	Y, r18
    2d90:	c0 51       	subi	r28, 0x10	; 16
    2d92:	d1 40       	sbci	r29, 0x01	; 1
    2d94:	f4 e9       	ldi	r31, 0x94	; 148
    2d96:	cf 5e       	subi	r28, 0xEF	; 239
    2d98:	de 4f       	sbci	r29, 0xFE	; 254
    2d9a:	f8 83       	st	Y, r31
    2d9c:	c1 51       	subi	r28, 0x11	; 17
    2d9e:	d1 40       	sbci	r29, 0x01	; 1
    2da0:	22 e0       	ldi	r18, 0x02	; 2
    2da2:	ce 5e       	subi	r28, 0xEE	; 238
    2da4:	de 4f       	sbci	r29, 0xFE	; 254
    2da6:	28 83       	st	Y, r18
    2da8:	c2 51       	subi	r28, 0x12	; 18
    2daa:	d1 40       	sbci	r29, 0x01	; 1
    2dac:	fb e9       	ldi	r31, 0x9B	; 155
    2dae:	c5 5f       	subi	r28, 0xF5	; 245
    2db0:	de 4f       	sbci	r29, 0xFE	; 254
    2db2:	f8 83       	st	Y, r31
    2db4:	cb 50       	subi	r28, 0x0B	; 11
    2db6:	d1 40       	sbci	r29, 0x01	; 1
    2db8:	23 e7       	ldi	r18, 0x73	; 115
    2dba:	c4 5f       	subi	r28, 0xF4	; 244
    2dbc:	de 4f       	sbci	r29, 0xFE	; 254
    2dbe:	28 83       	st	Y, r18
    2dc0:	cc 50       	subi	r28, 0x0C	; 12
    2dc2:	d1 40       	sbci	r29, 0x01	; 1
    2dc4:	fe ec       	ldi	r31, 0xCE	; 206
    2dc6:	c3 5f       	subi	r28, 0xF3	; 243
    2dc8:	de 4f       	sbci	r29, 0xFE	; 254
    2dca:	f8 83       	st	Y, r31
    2dcc:	cd 50       	subi	r28, 0x0D	; 13
    2dce:	d1 40       	sbci	r29, 0x01	; 1
    2dd0:	29 e0       	ldi	r18, 0x09	; 9
    2dd2:	c2 5f       	subi	r28, 0xF2	; 242
    2dd4:	de 4f       	sbci	r29, 0xFE	; 254
    2dd6:	28 83       	st	Y, r18
    2dd8:	ce 50       	subi	r28, 0x0E	; 14
    2dda:	d1 40       	sbci	r29, 0x01	; 1
    2ddc:	fb ed       	ldi	r31, 0xDB	; 219
    2dde:	c9 5f       	subi	r28, 0xF9	; 249
    2de0:	de 4f       	sbci	r29, 0xFE	; 254
    2de2:	f8 83       	st	Y, r31
    2de4:	c7 50       	subi	r28, 0x07	; 7
    2de6:	d1 40       	sbci	r29, 0x01	; 1
    2de8:	2b e7       	ldi	r18, 0x7B	; 123
    2dea:	c8 5f       	subi	r28, 0xF8	; 248
    2dec:	de 4f       	sbci	r29, 0xFE	; 254
    2dee:	28 83       	st	Y, r18
    2df0:	c8 50       	subi	r28, 0x08	; 8
    2df2:	d1 40       	sbci	r29, 0x01	; 1
    2df4:	ff ee       	ldi	r31, 0xEF	; 239
    2df6:	c7 5f       	subi	r28, 0xF7	; 247
    2df8:	de 4f       	sbci	r29, 0xFE	; 254
    2dfa:	f8 83       	st	Y, r31
    2dfc:	c9 50       	subi	r28, 0x09	; 9
    2dfe:	d1 40       	sbci	r29, 0x01	; 1
    2e00:	2d e0       	ldi	r18, 0x0D	; 13
    2e02:	c6 5f       	subi	r28, 0xF6	; 246
    2e04:	de 4f       	sbci	r29, 0xFE	; 254
    2e06:	28 83       	st	Y, r18
    2e08:	ca 50       	subi	r28, 0x0A	; 10
    2e0a:	d1 40       	sbci	r29, 0x01	; 1
    2e0c:	fb e5       	ldi	r31, 0x5B	; 91
    2e0e:	cd 5f       	subi	r28, 0xFD	; 253
    2e10:	de 4f       	sbci	r29, 0xFE	; 254
    2e12:	f8 83       	st	Y, r31
    2e14:	c3 50       	subi	r28, 0x03	; 3
    2e16:	d1 40       	sbci	r29, 0x01	; 1
    2e18:	2b e6       	ldi	r18, 0x6B	; 107
    2e1a:	cc 5f       	subi	r28, 0xFC	; 252
    2e1c:	de 4f       	sbci	r29, 0xFE	; 254
    2e1e:	28 83       	st	Y, r18
    2e20:	c4 50       	subi	r28, 0x04	; 4
    2e22:	d1 40       	sbci	r29, 0x01	; 1
    2e24:	fd ea       	ldi	r31, 0xAD	; 173
    2e26:	cb 5f       	subi	r28, 0xFB	; 251
    2e28:	de 4f       	sbci	r29, 0xFE	; 254
    2e2a:	f8 83       	st	Y, r31
    2e2c:	c5 50       	subi	r28, 0x05	; 5
    2e2e:	d1 40       	sbci	r29, 0x01	; 1
    2e30:	25 e0       	ldi	r18, 0x05	; 5
    2e32:	ca 5f       	subi	r28, 0xFA	; 250
    2e34:	de 4f       	sbci	r29, 0xFE	; 254
    2e36:	28 83       	st	Y, r18
    2e38:	c6 50       	subi	r28, 0x06	; 6
    2e3a:	d1 40       	sbci	r29, 0x01	; 1
    2e3c:	fb eb       	ldi	r31, 0xBB	; 187
    2e3e:	c1 50       	subi	r28, 0x01	; 1
    2e40:	df 4f       	sbci	r29, 0xFF	; 255
    2e42:	f8 83       	st	Y, r31
    2e44:	cf 5f       	subi	r28, 0xFF	; 255
    2e46:	d0 40       	sbci	r29, 0x00	; 0
    2e48:	27 ef       	ldi	r18, 0xF7	; 247
    2e4a:	c0 50       	subi	r28, 0x00	; 0
    2e4c:	df 4f       	sbci	r29, 0xFF	; 255
    2e4e:	28 83       	st	Y, r18
    2e50:	c0 50       	subi	r28, 0x00	; 0
    2e52:	d1 40       	sbci	r29, 0x01	; 1
    2e54:	fe ed       	ldi	r31, 0xDE	; 222
    2e56:	cf 5f       	subi	r28, 0xFF	; 255
    2e58:	de 4f       	sbci	r29, 0xFE	; 254
    2e5a:	f8 83       	st	Y, r31
    2e5c:	c1 50       	subi	r28, 0x01	; 1
    2e5e:	d1 40       	sbci	r29, 0x01	; 1
    2e60:	2b e0       	ldi	r18, 0x0B	; 11
    2e62:	ce 5f       	subi	r28, 0xFE	; 254
    2e64:	de 4f       	sbci	r29, 0xFE	; 254
    2e66:	28 83       	st	Y, r18
    2e68:	c2 50       	subi	r28, 0x02	; 2
    2e6a:	d1 40       	sbci	r29, 0x01	; 1
    2e6c:	fb ef       	ldi	r31, 0xFB	; 251
    2e6e:	c5 50       	subi	r28, 0x05	; 5
    2e70:	df 4f       	sbci	r29, 0xFF	; 255
    2e72:	f8 83       	st	Y, r31
    2e74:	cb 5f       	subi	r28, 0xFB	; 251
    2e76:	d0 40       	sbci	r29, 0x00	; 0
    2e78:	2f ef       	ldi	r18, 0xFF	; 255
    2e7a:	c4 50       	subi	r28, 0x04	; 4
    2e7c:	df 4f       	sbci	r29, 0xFF	; 255
    2e7e:	28 83       	st	Y, r18
    2e80:	cc 5f       	subi	r28, 0xFC	; 252
    2e82:	d0 40       	sbci	r29, 0x00	; 0
    2e84:	ff ef       	ldi	r31, 0xFF	; 255
    2e86:	c3 50       	subi	r28, 0x03	; 3
    2e88:	df 4f       	sbci	r29, 0xFF	; 255
    2e8a:	f8 83       	st	Y, r31
    2e8c:	cd 5f       	subi	r28, 0xFD	; 253
    2e8e:	d0 40       	sbci	r29, 0x00	; 0
    2e90:	2f e0       	ldi	r18, 0x0F	; 15
    2e92:	c2 50       	subi	r28, 0x02	; 2
    2e94:	df 4f       	sbci	r29, 0xFF	; 255
    2e96:	28 83       	st	Y, r18
    2e98:	ce 5f       	subi	r28, 0xFE	; 254
    2e9a:	d0 40       	sbci	r29, 0x00	; 0
    2e9c:	fb e7       	ldi	r31, 0x7B	; 123
    2e9e:	c9 50       	subi	r28, 0x09	; 9
    2ea0:	df 4f       	sbci	r29, 0xFF	; 255
    2ea2:	f8 83       	st	Y, r31
    2ea4:	c7 5f       	subi	r28, 0xF7	; 247
    2ea6:	d0 40       	sbci	r29, 0x00	; 0
    2ea8:	2f ee       	ldi	r18, 0xEF	; 239
    2eaa:	c8 50       	subi	r28, 0x08	; 8
    2eac:	df 4f       	sbci	r29, 0xFF	; 255
    2eae:	28 83       	st	Y, r18
    2eb0:	c8 5f       	subi	r28, 0xF8	; 248
    2eb2:	d0 40       	sbci	r29, 0x00	; 0
    2eb4:	fd eb       	ldi	r31, 0xBD	; 189
    2eb6:	c7 50       	subi	r28, 0x07	; 7
    2eb8:	df 4f       	sbci	r29, 0xFF	; 255
    2eba:	f8 83       	st	Y, r31
    2ebc:	c9 5f       	subi	r28, 0xF9	; 249
    2ebe:	d0 40       	sbci	r29, 0x00	; 0
    2ec0:	27 e0       	ldi	r18, 0x07	; 7
    2ec2:	c6 50       	subi	r28, 0x06	; 6
    2ec4:	df 4f       	sbci	r29, 0xFF	; 255
    2ec6:	28 83       	st	Y, r18
    2ec8:	ca 5f       	subi	r28, 0xFA	; 250
    2eca:	d0 40       	sbci	r29, 0x00	; 0
    2ecc:	fb e3       	ldi	r31, 0x3B	; 59
    2ece:	cd 50       	subi	r28, 0x0D	; 13
    2ed0:	df 4f       	sbci	r29, 0xFF	; 255
    2ed2:	f8 83       	st	Y, r31
    2ed4:	c3 5f       	subi	r28, 0xF3	; 243
    2ed6:	d0 40       	sbci	r29, 0x00	; 0
    2ed8:	27 ee       	ldi	r18, 0xE7	; 231
    2eda:	cc 50       	subi	r28, 0x0C	; 12
    2edc:	df 4f       	sbci	r29, 0xFF	; 255
    2ede:	28 83       	st	Y, r18
    2ee0:	c4 5f       	subi	r28, 0xF4	; 244
    2ee2:	d0 40       	sbci	r29, 0x00	; 0
    2ee4:	fc e9       	ldi	r31, 0x9C	; 156
    2ee6:	cb 50       	subi	r28, 0x0B	; 11
    2ee8:	df 4f       	sbci	r29, 0xFF	; 255
    2eea:	f8 83       	st	Y, r31
    2eec:	c5 5f       	subi	r28, 0xF5	; 245
    2eee:	d0 40       	sbci	r29, 0x00	; 0
    2ef0:	23 e0       	ldi	r18, 0x03	; 3
    2ef2:	ca 50       	subi	r28, 0x0A	; 10
    2ef4:	df 4f       	sbci	r29, 0xFF	; 255
    2ef6:	28 83       	st	Y, r18
    2ef8:	c6 5f       	subi	r28, 0xF6	; 246
    2efa:	d0 40       	sbci	r29, 0x00	; 0
    2efc:	fb e1       	ldi	r31, 0x1B	; 27
    2efe:	c1 51       	subi	r28, 0x11	; 17
    2f00:	df 4f       	sbci	r29, 0xFF	; 255
    2f02:	f8 83       	st	Y, r31
    2f04:	cf 5e       	subi	r28, 0xEF	; 239
    2f06:	d0 40       	sbci	r29, 0x00	; 0
    2f08:	23 e6       	ldi	r18, 0x63	; 99
    2f0a:	c0 51       	subi	r28, 0x10	; 16
    2f0c:	df 4f       	sbci	r29, 0xFF	; 255
    2f0e:	28 83       	st	Y, r18
    2f10:	c0 5f       	subi	r28, 0xF0	; 240
    2f12:	d0 40       	sbci	r29, 0x00	; 0
    2f14:	fc e8       	ldi	r31, 0x8C	; 140
    2f16:	cf 50       	subi	r28, 0x0F	; 15
    2f18:	df 4f       	sbci	r29, 0xFF	; 255
    2f1a:	f8 83       	st	Y, r31
    2f1c:	c1 5f       	subi	r28, 0xF1	; 241
    2f1e:	d0 40       	sbci	r29, 0x00	; 0
    2f20:	21 e0       	ldi	r18, 0x01	; 1
    2f22:	ce 50       	subi	r28, 0x0E	; 14
    2f24:	df 4f       	sbci	r29, 0xFF	; 255
    2f26:	28 83       	st	Y, r18
    2f28:	c2 5f       	subi	r28, 0xF2	; 242
    2f2a:	d0 40       	sbci	r29, 0x00	; 0
    2f2c:	fb e0       	ldi	r31, 0x0B	; 11
    2f2e:	c5 51       	subi	r28, 0x15	; 21
    2f30:	df 4f       	sbci	r29, 0xFF	; 255
    2f32:	f8 83       	st	Y, r31
    2f34:	cb 5e       	subi	r28, 0xEB	; 235
    2f36:	d0 40       	sbci	r29, 0x00	; 0
    2f38:	21 e2       	ldi	r18, 0x21	; 33
    2f3a:	c4 51       	subi	r28, 0x14	; 20
    2f3c:	df 4f       	sbci	r29, 0xFF	; 255
    2f3e:	28 83       	st	Y, r18
    2f40:	cc 5e       	subi	r28, 0xEC	; 236
    2f42:	d0 40       	sbci	r29, 0x00	; 0
    2f44:	f4 e8       	ldi	r31, 0x84	; 132
    2f46:	c3 51       	subi	r28, 0x13	; 19
    2f48:	df 4f       	sbci	r29, 0xFF	; 255
    2f4a:	f8 83       	st	Y, r31
    2f4c:	cd 5e       	subi	r28, 0xED	; 237
    2f4e:	d0 40       	sbci	r29, 0x00	; 0
    2f50:	c2 51       	subi	r28, 0x12	; 18
    2f52:	df 4f       	sbci	r29, 0xFF	; 255
    2f54:	18 82       	st	Y, r1
    2f56:	ce 5e       	subi	r28, 0xEE	; 238
    2f58:	d0 40       	sbci	r29, 0x00	; 0
    2f5a:	27 e8       	ldi	r18, 0x87	; 135
    2f5c:	cd 51       	subi	r28, 0x1D	; 29
    2f5e:	de 4f       	sbci	r29, 0xFE	; 254
    2f60:	28 83       	st	Y, r18
    2f62:	c3 5e       	subi	r28, 0xE3	; 227
    2f64:	d1 40       	sbci	r29, 0x01	; 1
    2f66:	f0 e1       	ldi	r31, 0x10	; 16
    2f68:	cc 51       	subi	r28, 0x1C	; 28
    2f6a:	de 4f       	sbci	r29, 0xFE	; 254
    2f6c:	f8 83       	st	Y, r31
    2f6e:	c4 5e       	subi	r28, 0xE4	; 228
    2f70:	d1 40       	sbci	r29, 0x01	; 1
    2f72:	22 e4       	ldi	r18, 0x42	; 66
    2f74:	cb 51       	subi	r28, 0x1B	; 27
    2f76:	de 4f       	sbci	r29, 0xFE	; 254
    2f78:	28 83       	st	Y, r18
    2f7a:	c5 5e       	subi	r28, 0xE5	; 229
    2f7c:	d1 40       	sbci	r29, 0x01	; 1
    2f7e:	f8 e0       	ldi	r31, 0x08	; 8
    2f80:	ca 51       	subi	r28, 0x1A	; 26
    2f82:	de 4f       	sbci	r29, 0xFE	; 254
    2f84:	f8 83       	st	Y, r31
    2f86:	c6 5e       	subi	r28, 0xE6	; 230
    2f88:	d1 40       	sbci	r29, 0x01	; 1
    2f8a:	27 ec       	ldi	r18, 0xC7	; 199
    2f8c:	c1 52       	subi	r28, 0x21	; 33
    2f8e:	de 4f       	sbci	r29, 0xFE	; 254
    2f90:	28 83       	st	Y, r18
    2f92:	cf 5d       	subi	r28, 0xDF	; 223
    2f94:	d1 40       	sbci	r29, 0x01	; 1
    2f96:	f8 e1       	ldi	r31, 0x18	; 24
    2f98:	c0 52       	subi	r28, 0x20	; 32
    2f9a:	de 4f       	sbci	r29, 0xFE	; 254
    2f9c:	f8 83       	st	Y, r31
    2f9e:	c0 5e       	subi	r28, 0xE0	; 224
    2fa0:	d1 40       	sbci	r29, 0x01	; 1
    2fa2:	23 e6       	ldi	r18, 0x63	; 99
    2fa4:	cf 51       	subi	r28, 0x1F	; 31
    2fa6:	de 4f       	sbci	r29, 0xFE	; 254
    2fa8:	28 83       	st	Y, r18
    2faa:	c1 5e       	subi	r28, 0xE1	; 225
    2fac:	d1 40       	sbci	r29, 0x01	; 1
    2fae:	fc e0       	ldi	r31, 0x0C	; 12
    2fb0:	ce 51       	subi	r28, 0x1E	; 30
    2fb2:	de 4f       	sbci	r29, 0xFE	; 254
    2fb4:	f8 83       	st	Y, r31
    2fb6:	c2 5e       	subi	r28, 0xE2	; 226
    2fb8:	d1 40       	sbci	r29, 0x01	; 1
    2fba:	27 e4       	ldi	r18, 0x47	; 71
    2fbc:	c5 52       	subi	r28, 0x25	; 37
    2fbe:	de 4f       	sbci	r29, 0xFE	; 254
    2fc0:	28 83       	st	Y, r18
    2fc2:	cb 5d       	subi	r28, 0xDB	; 219
    2fc4:	d1 40       	sbci	r29, 0x01	; 1
    2fc6:	f8 e0       	ldi	r31, 0x08	; 8
    2fc8:	c4 52       	subi	r28, 0x24	; 36
    2fca:	de 4f       	sbci	r29, 0xFE	; 254
    2fcc:	f8 83       	st	Y, r31
    2fce:	cc 5d       	subi	r28, 0xDC	; 220
    2fd0:	d1 40       	sbci	r29, 0x01	; 1
    2fd2:	21 e2       	ldi	r18, 0x21	; 33
    2fd4:	c3 52       	subi	r28, 0x23	; 35
    2fd6:	de 4f       	sbci	r29, 0xFE	; 254
    2fd8:	28 83       	st	Y, r18
    2fda:	cd 5d       	subi	r28, 0xDD	; 221
    2fdc:	d1 40       	sbci	r29, 0x01	; 1
    2fde:	f4 e0       	ldi	r31, 0x04	; 4
    2fe0:	c2 52       	subi	r28, 0x22	; 34
    2fe2:	de 4f       	sbci	r29, 0xFE	; 254
    2fe4:	f8 83       	st	Y, r31
    2fe6:	ce 5d       	subi	r28, 0xDE	; 222
    2fe8:	d1 40       	sbci	r29, 0x01	; 1
    2fea:	27 ea       	ldi	r18, 0xA7	; 167
    2fec:	c9 52       	subi	r28, 0x29	; 41
    2fee:	de 4f       	sbci	r29, 0xFE	; 254
    2ff0:	28 83       	st	Y, r18
    2ff2:	c7 5d       	subi	r28, 0xD7	; 215
    2ff4:	d1 40       	sbci	r29, 0x01	; 1
    2ff6:	f4 e9       	ldi	r31, 0x94	; 148
    2ff8:	c8 52       	subi	r28, 0x28	; 40
    2ffa:	de 4f       	sbci	r29, 0xFE	; 254
    2ffc:	f8 83       	st	Y, r31
    2ffe:	c8 5d       	subi	r28, 0xD8	; 216
    3000:	d1 40       	sbci	r29, 0x01	; 1
    3002:	22 e5       	ldi	r18, 0x52	; 82
    3004:	c7 52       	subi	r28, 0x27	; 39
    3006:	de 4f       	sbci	r29, 0xFE	; 254
    3008:	28 83       	st	Y, r18
    300a:	c9 5d       	subi	r28, 0xD9	; 217
    300c:	d1 40       	sbci	r29, 0x01	; 1
    300e:	fa e0       	ldi	r31, 0x0A	; 10
    3010:	c6 52       	subi	r28, 0x26	; 38
    3012:	de 4f       	sbci	r29, 0xFE	; 254
    3014:	f8 83       	st	Y, r31
    3016:	ca 5d       	subi	r28, 0xDA	; 218
    3018:	d1 40       	sbci	r29, 0x01	; 1
    301a:	27 ee       	ldi	r18, 0xE7	; 231
    301c:	cd 52       	subi	r28, 0x2D	; 45
    301e:	de 4f       	sbci	r29, 0xFE	; 254
    3020:	28 83       	st	Y, r18
    3022:	c3 5d       	subi	r28, 0xD3	; 211
    3024:	d1 40       	sbci	r29, 0x01	; 1
    3026:	fc e9       	ldi	r31, 0x9C	; 156
    3028:	cc 52       	subi	r28, 0x2C	; 44
    302a:	de 4f       	sbci	r29, 0xFE	; 254
    302c:	f8 83       	st	Y, r31
    302e:	c4 5d       	subi	r28, 0xD4	; 212
    3030:	d1 40       	sbci	r29, 0x01	; 1
    3032:	23 e7       	ldi	r18, 0x73	; 115
    3034:	cb 52       	subi	r28, 0x2B	; 43
    3036:	de 4f       	sbci	r29, 0xFE	; 254
    3038:	28 83       	st	Y, r18
    303a:	c5 5d       	subi	r28, 0xD5	; 213
    303c:	d1 40       	sbci	r29, 0x01	; 1
    303e:	fe e0       	ldi	r31, 0x0E	; 14
    3040:	ca 52       	subi	r28, 0x2A	; 42
    3042:	de 4f       	sbci	r29, 0xFE	; 254
    3044:	f8 83       	st	Y, r31
    3046:	c6 5d       	subi	r28, 0xD6	; 214
    3048:	d1 40       	sbci	r29, 0x01	; 1
    304a:	27 e6       	ldi	r18, 0x67	; 103
    304c:	c1 53       	subi	r28, 0x31	; 49
    304e:	de 4f       	sbci	r29, 0xFE	; 254
    3050:	28 83       	st	Y, r18
    3052:	cf 5c       	subi	r28, 0xCF	; 207
    3054:	d1 40       	sbci	r29, 0x01	; 1
    3056:	fc e8       	ldi	r31, 0x8C	; 140
    3058:	c0 53       	subi	r28, 0x30	; 48
    305a:	de 4f       	sbci	r29, 0xFE	; 254
    305c:	f8 83       	st	Y, r31
    305e:	c0 5d       	subi	r28, 0xD0	; 208
    3060:	d1 40       	sbci	r29, 0x01	; 1
    3062:	21 e3       	ldi	r18, 0x31	; 49
    3064:	cf 52       	subi	r28, 0x2F	; 47
    3066:	de 4f       	sbci	r29, 0xFE	; 254
    3068:	28 83       	st	Y, r18
    306a:	c1 5d       	subi	r28, 0xD1	; 209
    306c:	d1 40       	sbci	r29, 0x01	; 1
    306e:	f6 e0       	ldi	r31, 0x06	; 6
    3070:	ce 52       	subi	r28, 0x2E	; 46
    3072:	de 4f       	sbci	r29, 0xFE	; 254
    3074:	f8 83       	st	Y, r31
    3076:	c2 5d       	subi	r28, 0xD2	; 210
    3078:	d1 40       	sbci	r29, 0x01	; 1
    307a:	27 e2       	ldi	r18, 0x27	; 39
    307c:	c5 53       	subi	r28, 0x35	; 53
    307e:	de 4f       	sbci	r29, 0xFE	; 254
    3080:	28 83       	st	Y, r18
    3082:	cb 5c       	subi	r28, 0xCB	; 203
    3084:	d1 40       	sbci	r29, 0x01	; 1
    3086:	f4 e8       	ldi	r31, 0x84	; 132
    3088:	c4 53       	subi	r28, 0x34	; 52
    308a:	de 4f       	sbci	r29, 0xFE	; 254
    308c:	f8 83       	st	Y, r31
    308e:	cc 5c       	subi	r28, 0xCC	; 204
    3090:	d1 40       	sbci	r29, 0x01	; 1
    3092:	20 e1       	ldi	r18, 0x10	; 16
    3094:	c3 53       	subi	r28, 0x33	; 51
    3096:	de 4f       	sbci	r29, 0xFE	; 254
    3098:	28 83       	st	Y, r18
    309a:	cd 5c       	subi	r28, 0xCD	; 205
    309c:	d1 40       	sbci	r29, 0x01	; 1
    309e:	f2 e0       	ldi	r31, 0x02	; 2
    30a0:	c2 53       	subi	r28, 0x32	; 50
    30a2:	de 4f       	sbci	r29, 0xFE	; 254
    30a4:	f8 83       	st	Y, r31
    30a6:	ce 5c       	subi	r28, 0xCE	; 206
    30a8:	d1 40       	sbci	r29, 0x01	; 1
    30aa:	27 e9       	ldi	r18, 0x97	; 151
    30ac:	c9 53       	subi	r28, 0x39	; 57
    30ae:	de 4f       	sbci	r29, 0xFE	; 254
    30b0:	28 83       	st	Y, r18
    30b2:	c7 5c       	subi	r28, 0xC7	; 199
    30b4:	d1 40       	sbci	r29, 0x01	; 1
    30b6:	f2 e5       	ldi	r31, 0x52	; 82
    30b8:	c8 53       	subi	r28, 0x38	; 56
    30ba:	de 4f       	sbci	r29, 0xFE	; 254
    30bc:	f8 83       	st	Y, r31
    30be:	c8 5c       	subi	r28, 0xC8	; 200
    30c0:	d1 40       	sbci	r29, 0x01	; 1
    30c2:	2a e4       	ldi	r18, 0x4A	; 74
    30c4:	c7 53       	subi	r28, 0x37	; 55
    30c6:	de 4f       	sbci	r29, 0xFE	; 254
    30c8:	28 83       	st	Y, r18
    30ca:	c9 5c       	subi	r28, 0xC9	; 201
    30cc:	d1 40       	sbci	r29, 0x01	; 1
    30ce:	f9 e0       	ldi	r31, 0x09	; 9
    30d0:	c6 53       	subi	r28, 0x36	; 54
    30d2:	de 4f       	sbci	r29, 0xFE	; 254
    30d4:	f8 83       	st	Y, r31
    30d6:	ca 5c       	subi	r28, 0xCA	; 202
    30d8:	d1 40       	sbci	r29, 0x01	; 1
    30da:	27 ed       	ldi	r18, 0xD7	; 215
    30dc:	cd 53       	subi	r28, 0x3D	; 61
    30de:	de 4f       	sbci	r29, 0xFE	; 254
    30e0:	28 83       	st	Y, r18
    30e2:	c3 5c       	subi	r28, 0xC3	; 195
    30e4:	d1 40       	sbci	r29, 0x01	; 1
    30e6:	fa e5       	ldi	r31, 0x5A	; 90
    30e8:	cc 53       	subi	r28, 0x3C	; 60
    30ea:	de 4f       	sbci	r29, 0xFE	; 254
    30ec:	f8 83       	st	Y, r31
    30ee:	c4 5c       	subi	r28, 0xC4	; 196
    30f0:	d1 40       	sbci	r29, 0x01	; 1
    30f2:	2b e6       	ldi	r18, 0x6B	; 107
    30f4:	cb 53       	subi	r28, 0x3B	; 59
    30f6:	de 4f       	sbci	r29, 0xFE	; 254
    30f8:	28 83       	st	Y, r18
    30fa:	c5 5c       	subi	r28, 0xC5	; 197
    30fc:	d1 40       	sbci	r29, 0x01	; 1
    30fe:	fd e0       	ldi	r31, 0x0D	; 13
    3100:	ca 53       	subi	r28, 0x3A	; 58
    3102:	de 4f       	sbci	r29, 0xFE	; 254
    3104:	f8 83       	st	Y, r31
    3106:	c6 5c       	subi	r28, 0xC6	; 198
    3108:	d1 40       	sbci	r29, 0x01	; 1
    310a:	27 e5       	ldi	r18, 0x57	; 87
    310c:	c1 54       	subi	r28, 0x41	; 65
    310e:	de 4f       	sbci	r29, 0xFE	; 254
    3110:	28 83       	st	Y, r18
    3112:	cf 5b       	subi	r28, 0xBF	; 191
    3114:	d1 40       	sbci	r29, 0x01	; 1
    3116:	fa e4       	ldi	r31, 0x4A	; 74
    3118:	c0 54       	subi	r28, 0x40	; 64
    311a:	de 4f       	sbci	r29, 0xFE	; 254
    311c:	f8 83       	st	Y, r31
    311e:	c0 5c       	subi	r28, 0xC0	; 192
    3120:	d1 40       	sbci	r29, 0x01	; 1
    3122:	29 e2       	ldi	r18, 0x29	; 41
    3124:	cf 53       	subi	r28, 0x3F	; 63
    3126:	de 4f       	sbci	r29, 0xFE	; 254
    3128:	28 83       	st	Y, r18
    312a:	c1 5c       	subi	r28, 0xC1	; 193
    312c:	d1 40       	sbci	r29, 0x01	; 1
    312e:	f5 e0       	ldi	r31, 0x05	; 5
    3130:	ce 53       	subi	r28, 0x3E	; 62
    3132:	de 4f       	sbci	r29, 0xFE	; 254
    3134:	f8 83       	st	Y, r31
    3136:	c2 5c       	subi	r28, 0xC2	; 194
    3138:	d1 40       	sbci	r29, 0x01	; 1
    313a:	27 eb       	ldi	r18, 0xB7	; 183
    313c:	c5 54       	subi	r28, 0x45	; 69
    313e:	de 4f       	sbci	r29, 0xFE	; 254
    3140:	28 83       	st	Y, r18
    3142:	cb 5b       	subi	r28, 0xBB	; 187
    3144:	d1 40       	sbci	r29, 0x01	; 1
    3146:	f6 ed       	ldi	r31, 0xD6	; 214
    3148:	c4 54       	subi	r28, 0x44	; 68
    314a:	de 4f       	sbci	r29, 0xFE	; 254
    314c:	f8 83       	st	Y, r31
    314e:	cc 5b       	subi	r28, 0xBC	; 188
    3150:	d1 40       	sbci	r29, 0x01	; 1
    3152:	2a e5       	ldi	r18, 0x5A	; 90
    3154:	c3 54       	subi	r28, 0x43	; 67
    3156:	de 4f       	sbci	r29, 0xFE	; 254
    3158:	28 83       	st	Y, r18
    315a:	cd 5b       	subi	r28, 0xBD	; 189
    315c:	d1 40       	sbci	r29, 0x01	; 1
    315e:	fb e0       	ldi	r31, 0x0B	; 11
    3160:	c2 54       	subi	r28, 0x42	; 66
    3162:	de 4f       	sbci	r29, 0xFE	; 254
    3164:	f8 83       	st	Y, r31
    3166:	ce 5b       	subi	r28, 0xBE	; 190
    3168:	d1 40       	sbci	r29, 0x01	; 1
    316a:	27 ef       	ldi	r18, 0xF7	; 247
    316c:	c9 54       	subi	r28, 0x49	; 73
    316e:	de 4f       	sbci	r29, 0xFE	; 254
    3170:	28 83       	st	Y, r18
    3172:	c7 5b       	subi	r28, 0xB7	; 183
    3174:	d1 40       	sbci	r29, 0x01	; 1
    3176:	fe ed       	ldi	r31, 0xDE	; 222
    3178:	c8 54       	subi	r28, 0x48	; 72
    317a:	de 4f       	sbci	r29, 0xFE	; 254
    317c:	f8 83       	st	Y, r31
    317e:	c8 5b       	subi	r28, 0xB8	; 184
    3180:	d1 40       	sbci	r29, 0x01	; 1
    3182:	2b e7       	ldi	r18, 0x7B	; 123
    3184:	c7 54       	subi	r28, 0x47	; 71
    3186:	de 4f       	sbci	r29, 0xFE	; 254
    3188:	28 83       	st	Y, r18
    318a:	c9 5b       	subi	r28, 0xB9	; 185
    318c:	d1 40       	sbci	r29, 0x01	; 1
    318e:	ff e0       	ldi	r31, 0x0F	; 15
    3190:	c6 54       	subi	r28, 0x46	; 70
    3192:	de 4f       	sbci	r29, 0xFE	; 254
    3194:	f8 83       	st	Y, r31
    3196:	ca 5b       	subi	r28, 0xBA	; 186
    3198:	d1 40       	sbci	r29, 0x01	; 1
    319a:	27 e7       	ldi	r18, 0x77	; 119
    319c:	cd 54       	subi	r28, 0x4D	; 77
    319e:	de 4f       	sbci	r29, 0xFE	; 254
    31a0:	28 83       	st	Y, r18
    31a2:	c3 5b       	subi	r28, 0xB3	; 179
    31a4:	d1 40       	sbci	r29, 0x01	; 1
    31a6:	fe ec       	ldi	r31, 0xCE	; 206
    31a8:	cc 54       	subi	r28, 0x4C	; 76
    31aa:	de 4f       	sbci	r29, 0xFE	; 254
    31ac:	f8 83       	st	Y, r31
    31ae:	c4 5b       	subi	r28, 0xB4	; 180
    31b0:	d1 40       	sbci	r29, 0x01	; 1
    31b2:	29 e3       	ldi	r18, 0x39	; 57
    31b4:	cb 54       	subi	r28, 0x4B	; 75
    31b6:	de 4f       	sbci	r29, 0xFE	; 254
    31b8:	28 83       	st	Y, r18
    31ba:	c5 5b       	subi	r28, 0xB5	; 181
    31bc:	d1 40       	sbci	r29, 0x01	; 1
    31be:	f7 e0       	ldi	r31, 0x07	; 7
    31c0:	ca 54       	subi	r28, 0x4A	; 74
    31c2:	de 4f       	sbci	r29, 0xFE	; 254
    31c4:	f8 83       	st	Y, r31
    31c6:	c6 5b       	subi	r28, 0xB6	; 182
    31c8:	d1 40       	sbci	r29, 0x01	; 1
    31ca:	27 e3       	ldi	r18, 0x37	; 55
    31cc:	c1 55       	subi	r28, 0x51	; 81
    31ce:	de 4f       	sbci	r29, 0xFE	; 254
    31d0:	28 83       	st	Y, r18
    31d2:	cf 5a       	subi	r28, 0xAF	; 175
    31d4:	d1 40       	sbci	r29, 0x01	; 1
    31d6:	f6 ec       	ldi	r31, 0xC6	; 198
    31d8:	c0 55       	subi	r28, 0x50	; 80
    31da:	de 4f       	sbci	r29, 0xFE	; 254
    31dc:	f8 83       	st	Y, r31
    31de:	c0 5b       	subi	r28, 0xB0	; 176
    31e0:	d1 40       	sbci	r29, 0x01	; 1
    31e2:	28 e1       	ldi	r18, 0x18	; 24
    31e4:	cf 54       	subi	r28, 0x4F	; 79
    31e6:	de 4f       	sbci	r29, 0xFE	; 254
    31e8:	28 83       	st	Y, r18
    31ea:	c1 5b       	subi	r28, 0xB1	; 177
    31ec:	d1 40       	sbci	r29, 0x01	; 1
    31ee:	f3 e0       	ldi	r31, 0x03	; 3
    31f0:	ce 54       	subi	r28, 0x4E	; 78
    31f2:	de 4f       	sbci	r29, 0xFE	; 254
    31f4:	f8 83       	st	Y, r31
    31f6:	c2 5b       	subi	r28, 0xB2	; 178
    31f8:	d1 40       	sbci	r29, 0x01	; 1
    31fa:	27 e1       	ldi	r18, 0x17	; 23
    31fc:	c5 55       	subi	r28, 0x55	; 85
    31fe:	de 4f       	sbci	r29, 0xFE	; 254
    3200:	28 83       	st	Y, r18
    3202:	cb 5a       	subi	r28, 0xAB	; 171
    3204:	d1 40       	sbci	r29, 0x01	; 1
    3206:	f2 e4       	ldi	r31, 0x42	; 66
    3208:	c4 55       	subi	r28, 0x54	; 84
    320a:	de 4f       	sbci	r29, 0xFE	; 254
    320c:	f8 83       	st	Y, r31
    320e:	cc 5a       	subi	r28, 0xAC	; 172
    3210:	d1 40       	sbci	r29, 0x01	; 1
    3212:	28 e0       	ldi	r18, 0x08	; 8
    3214:	c3 55       	subi	r28, 0x53	; 83
    3216:	de 4f       	sbci	r29, 0xFE	; 254
    3218:	28 83       	st	Y, r18
    321a:	cd 5a       	subi	r28, 0xAD	; 173
    321c:	d1 40       	sbci	r29, 0x01	; 1
    321e:	f1 e0       	ldi	r31, 0x01	; 1
    3220:	c2 55       	subi	r28, 0x52	; 82
    3222:	de 4f       	sbci	r29, 0xFE	; 254
    3224:	f8 83       	st	Y, r31
    3226:	ce 5a       	subi	r28, 0xAE	; 174
    3228:	d1 40       	sbci	r29, 0x01	; 1
    322a:	2f e8       	ldi	r18, 0x8F	; 143
    322c:	c9 55       	subi	r28, 0x59	; 89
    322e:	de 4f       	sbci	r29, 0xFE	; 254
    3230:	28 83       	st	Y, r18
    3232:	c7 5a       	subi	r28, 0xA7	; 167
    3234:	d1 40       	sbci	r29, 0x01	; 1
    3236:	f1 e3       	ldi	r31, 0x31	; 49
    3238:	c8 55       	subi	r28, 0x58	; 88
    323a:	de 4f       	sbci	r29, 0xFE	; 254
    323c:	f8 83       	st	Y, r31
    323e:	c8 5a       	subi	r28, 0xA8	; 168
    3240:	d1 40       	sbci	r29, 0x01	; 1
    3242:	26 ec       	ldi	r18, 0xC6	; 198
    3244:	c7 55       	subi	r28, 0x57	; 87
    3246:	de 4f       	sbci	r29, 0xFE	; 254
    3248:	28 83       	st	Y, r18
    324a:	c9 5a       	subi	r28, 0xA9	; 169
    324c:	d1 40       	sbci	r29, 0x01	; 1
    324e:	f8 e0       	ldi	r31, 0x08	; 8
    3250:	c6 55       	subi	r28, 0x56	; 86
    3252:	de 4f       	sbci	r29, 0xFE	; 254
    3254:	f8 83       	st	Y, r31
    3256:	ca 5a       	subi	r28, 0xAA	; 170
    3258:	d1 40       	sbci	r29, 0x01	; 1
    325a:	2f ec       	ldi	r18, 0xCF	; 207
    325c:	cd 55       	subi	r28, 0x5D	; 93
    325e:	de 4f       	sbci	r29, 0xFE	; 254
    3260:	28 83       	st	Y, r18
    3262:	c3 5a       	subi	r28, 0xA3	; 163
    3264:	d1 40       	sbci	r29, 0x01	; 1
    3266:	f9 e3       	ldi	r31, 0x39	; 57
    3268:	cc 55       	subi	r28, 0x5C	; 92
    326a:	de 4f       	sbci	r29, 0xFE	; 254
    326c:	f8 83       	st	Y, r31
    326e:	c4 5a       	subi	r28, 0xA4	; 164
    3270:	d1 40       	sbci	r29, 0x01	; 1
    3272:	27 ee       	ldi	r18, 0xE7	; 231
    3274:	cb 55       	subi	r28, 0x5B	; 91
    3276:	de 4f       	sbci	r29, 0xFE	; 254
    3278:	28 83       	st	Y, r18
    327a:	c5 5a       	subi	r28, 0xA5	; 165
    327c:	d1 40       	sbci	r29, 0x01	; 1
    327e:	fc e0       	ldi	r31, 0x0C	; 12
    3280:	ca 55       	subi	r28, 0x5A	; 90
    3282:	de 4f       	sbci	r29, 0xFE	; 254
    3284:	f8 83       	st	Y, r31
    3286:	c6 5a       	subi	r28, 0xA6	; 166
    3288:	d1 40       	sbci	r29, 0x01	; 1
    328a:	2f e4       	ldi	r18, 0x4F	; 79
    328c:	c1 56       	subi	r28, 0x61	; 97
    328e:	de 4f       	sbci	r29, 0xFE	; 254
    3290:	28 83       	st	Y, r18
    3292:	cf 59       	subi	r28, 0x9F	; 159
    3294:	d1 40       	sbci	r29, 0x01	; 1
    3296:	f9 e2       	ldi	r31, 0x29	; 41
    3298:	c0 56       	subi	r28, 0x60	; 96
    329a:	de 4f       	sbci	r29, 0xFE	; 254
    329c:	f8 83       	st	Y, r31
    329e:	c0 5a       	subi	r28, 0xA0	; 160
    32a0:	d1 40       	sbci	r29, 0x01	; 1
    32a2:	25 ea       	ldi	r18, 0xA5	; 165
    32a4:	cf 55       	subi	r28, 0x5F	; 95
    32a6:	de 4f       	sbci	r29, 0xFE	; 254
    32a8:	28 83       	st	Y, r18
    32aa:	c1 5a       	subi	r28, 0xA1	; 161
    32ac:	d1 40       	sbci	r29, 0x01	; 1
    32ae:	f4 e0       	ldi	r31, 0x04	; 4
    32b0:	ce 55       	subi	r28, 0x5E	; 94
    32b2:	de 4f       	sbci	r29, 0xFE	; 254
    32b4:	f8 83       	st	Y, r31
    32b6:	c2 5a       	subi	r28, 0xA2	; 162
    32b8:	d1 40       	sbci	r29, 0x01	; 1
    32ba:	2f ea       	ldi	r18, 0xAF	; 175
    32bc:	c5 56       	subi	r28, 0x65	; 101
    32be:	de 4f       	sbci	r29, 0xFE	; 254
    32c0:	28 83       	st	Y, r18
    32c2:	cb 59       	subi	r28, 0x9B	; 155
    32c4:	d1 40       	sbci	r29, 0x01	; 1
    32c6:	f5 eb       	ldi	r31, 0xB5	; 181
    32c8:	c4 56       	subi	r28, 0x64	; 100
    32ca:	de 4f       	sbci	r29, 0xFE	; 254
    32cc:	f8 83       	st	Y, r31
    32ce:	cc 59       	subi	r28, 0x9C	; 156
    32d0:	d1 40       	sbci	r29, 0x01	; 1
    32d2:	26 ed       	ldi	r18, 0xD6	; 214
    32d4:	c3 56       	subi	r28, 0x63	; 99
    32d6:	de 4f       	sbci	r29, 0xFE	; 254
    32d8:	28 83       	st	Y, r18
    32da:	cd 59       	subi	r28, 0x9D	; 157
    32dc:	d1 40       	sbci	r29, 0x01	; 1
    32de:	fa e0       	ldi	r31, 0x0A	; 10
    32e0:	c2 56       	subi	r28, 0x62	; 98
    32e2:	de 4f       	sbci	r29, 0xFE	; 254
    32e4:	f8 83       	st	Y, r31
    32e6:	ce 59       	subi	r28, 0x9E	; 158
    32e8:	d1 40       	sbci	r29, 0x01	; 1
    32ea:	2f ee       	ldi	r18, 0xEF	; 239
    32ec:	c9 56       	subi	r28, 0x69	; 105
    32ee:	de 4f       	sbci	r29, 0xFE	; 254
    32f0:	28 83       	st	Y, r18
    32f2:	c7 59       	subi	r28, 0x97	; 151
    32f4:	d1 40       	sbci	r29, 0x01	; 1
    32f6:	fd eb       	ldi	r31, 0xBD	; 189
    32f8:	c8 56       	subi	r28, 0x68	; 104
    32fa:	de 4f       	sbci	r29, 0xFE	; 254
    32fc:	f8 83       	st	Y, r31
    32fe:	c8 59       	subi	r28, 0x98	; 152
    3300:	d1 40       	sbci	r29, 0x01	; 1
    3302:	27 ef       	ldi	r18, 0xF7	; 247
    3304:	c7 56       	subi	r28, 0x67	; 103
    3306:	de 4f       	sbci	r29, 0xFE	; 254
    3308:	28 83       	st	Y, r18
    330a:	c9 59       	subi	r28, 0x99	; 153
    330c:	d1 40       	sbci	r29, 0x01	; 1
    330e:	fe e0       	ldi	r31, 0x0E	; 14
    3310:	c6 56       	subi	r28, 0x66	; 102
    3312:	de 4f       	sbci	r29, 0xFE	; 254
    3314:	f8 83       	st	Y, r31
    3316:	ca 59       	subi	r28, 0x9A	; 154
    3318:	d1 40       	sbci	r29, 0x01	; 1
    331a:	2f e6       	ldi	r18, 0x6F	; 111
    331c:	cd 56       	subi	r28, 0x6D	; 109
    331e:	de 4f       	sbci	r29, 0xFE	; 254
    3320:	28 83       	st	Y, r18
    3322:	c3 59       	subi	r28, 0x93	; 147
    3324:	d1 40       	sbci	r29, 0x01	; 1
    3326:	fd ea       	ldi	r31, 0xAD	; 173
    3328:	cc 56       	subi	r28, 0x6C	; 108
    332a:	de 4f       	sbci	r29, 0xFE	; 254
    332c:	f8 83       	st	Y, r31
    332e:	c4 59       	subi	r28, 0x94	; 148
    3330:	d1 40       	sbci	r29, 0x01	; 1
    3332:	25 eb       	ldi	r18, 0xB5	; 181
    3334:	cb 56       	subi	r28, 0x6B	; 107
    3336:	de 4f       	sbci	r29, 0xFE	; 254
    3338:	28 83       	st	Y, r18
    333a:	c5 59       	subi	r28, 0x95	; 149
    333c:	d1 40       	sbci	r29, 0x01	; 1
    333e:	f6 e0       	ldi	r31, 0x06	; 6
    3340:	ca 56       	subi	r28, 0x6A	; 106
    3342:	de 4f       	sbci	r29, 0xFE	; 254
    3344:	f8 83       	st	Y, r31
    3346:	c6 59       	subi	r28, 0x96	; 150
    3348:	d1 40       	sbci	r29, 0x01	; 1
    334a:	2f e2       	ldi	r18, 0x2F	; 47
    334c:	c1 57       	subi	r28, 0x71	; 113
    334e:	de 4f       	sbci	r29, 0xFE	; 254
    3350:	28 83       	st	Y, r18
    3352:	cf 58       	subi	r28, 0x8F	; 143
    3354:	d1 40       	sbci	r29, 0x01	; 1
    3356:	f5 ea       	ldi	r31, 0xA5	; 165
    3358:	c0 57       	subi	r28, 0x70	; 112
    335a:	de 4f       	sbci	r29, 0xFE	; 254
    335c:	f8 83       	st	Y, r31
    335e:	c0 59       	subi	r28, 0x90	; 144
    3360:	d1 40       	sbci	r29, 0x01	; 1
    3362:	24 e9       	ldi	r18, 0x94	; 148
    3364:	cf 56       	subi	r28, 0x6F	; 111
    3366:	de 4f       	sbci	r29, 0xFE	; 254
    3368:	28 83       	st	Y, r18
    336a:	c1 59       	subi	r28, 0x91	; 145
    336c:	d1 40       	sbci	r29, 0x01	; 1
    336e:	f2 e0       	ldi	r31, 0x02	; 2
    3370:	ce 56       	subi	r28, 0x6E	; 110
    3372:	de 4f       	sbci	r29, 0xFE	; 254
    3374:	f8 83       	st	Y, r31
    3376:	c2 59       	subi	r28, 0x92	; 146
    3378:	d1 40       	sbci	r29, 0x01	; 1
    337a:	2f e9       	ldi	r18, 0x9F	; 159
    337c:	c5 57       	subi	r28, 0x75	; 117
    337e:	de 4f       	sbci	r29, 0xFE	; 254
    3380:	28 83       	st	Y, r18
    3382:	cb 58       	subi	r28, 0x8B	; 139
    3384:	d1 40       	sbci	r29, 0x01	; 1
    3386:	f3 e7       	ldi	r31, 0x73	; 115
    3388:	c4 57       	subi	r28, 0x74	; 116
    338a:	de 4f       	sbci	r29, 0xFE	; 254
    338c:	f8 83       	st	Y, r31
    338e:	cc 58       	subi	r28, 0x8C	; 140
    3390:	d1 40       	sbci	r29, 0x01	; 1
    3392:	2e ec       	ldi	r18, 0xCE	; 206
    3394:	c3 57       	subi	r28, 0x73	; 115
    3396:	de 4f       	sbci	r29, 0xFE	; 254
    3398:	28 83       	st	Y, r18
    339a:	cd 58       	subi	r28, 0x8D	; 141
    339c:	d1 40       	sbci	r29, 0x01	; 1
    339e:	f9 e0       	ldi	r31, 0x09	; 9
    33a0:	c2 57       	subi	r28, 0x72	; 114
    33a2:	de 4f       	sbci	r29, 0xFE	; 254
    33a4:	f8 83       	st	Y, r31
    33a6:	ce 58       	subi	r28, 0x8E	; 142
    33a8:	d1 40       	sbci	r29, 0x01	; 1
    33aa:	2f ed       	ldi	r18, 0xDF	; 223
    33ac:	c9 57       	subi	r28, 0x79	; 121
    33ae:	de 4f       	sbci	r29, 0xFE	; 254
    33b0:	28 83       	st	Y, r18
    33b2:	c7 58       	subi	r28, 0x87	; 135
    33b4:	d1 40       	sbci	r29, 0x01	; 1
    33b6:	fb e7       	ldi	r31, 0x7B	; 123
    33b8:	c8 57       	subi	r28, 0x78	; 120
    33ba:	de 4f       	sbci	r29, 0xFE	; 254
    33bc:	f8 83       	st	Y, r31
    33be:	c8 58       	subi	r28, 0x88	; 136
    33c0:	d1 40       	sbci	r29, 0x01	; 1
    33c2:	2f ee       	ldi	r18, 0xEF	; 239
    33c4:	c7 57       	subi	r28, 0x77	; 119
    33c6:	de 4f       	sbci	r29, 0xFE	; 254
    33c8:	28 83       	st	Y, r18
    33ca:	c9 58       	subi	r28, 0x89	; 137
    33cc:	d1 40       	sbci	r29, 0x01	; 1
    33ce:	fd e0       	ldi	r31, 0x0D	; 13
    33d0:	c6 57       	subi	r28, 0x76	; 118
    33d2:	de 4f       	sbci	r29, 0xFE	; 254
    33d4:	f8 83       	st	Y, r31
    33d6:	ca 58       	subi	r28, 0x8A	; 138
    33d8:	d1 40       	sbci	r29, 0x01	; 1
    33da:	2f e5       	ldi	r18, 0x5F	; 95
    33dc:	cd 57       	subi	r28, 0x7D	; 125
    33de:	de 4f       	sbci	r29, 0xFE	; 254
    33e0:	28 83       	st	Y, r18
    33e2:	c3 58       	subi	r28, 0x83	; 131
    33e4:	d1 40       	sbci	r29, 0x01	; 1
    33e6:	fb e6       	ldi	r31, 0x6B	; 107
    33e8:	cc 57       	subi	r28, 0x7C	; 124
    33ea:	de 4f       	sbci	r29, 0xFE	; 254
    33ec:	f8 83       	st	Y, r31
    33ee:	c4 58       	subi	r28, 0x84	; 132
    33f0:	d1 40       	sbci	r29, 0x01	; 1
    33f2:	2d ea       	ldi	r18, 0xAD	; 173
    33f4:	cb 57       	subi	r28, 0x7B	; 123
    33f6:	de 4f       	sbci	r29, 0xFE	; 254
    33f8:	28 83       	st	Y, r18
    33fa:	c5 58       	subi	r28, 0x85	; 133
    33fc:	d1 40       	sbci	r29, 0x01	; 1
    33fe:	f5 e0       	ldi	r31, 0x05	; 5
    3400:	ca 57       	subi	r28, 0x7A	; 122
    3402:	de 4f       	sbci	r29, 0xFE	; 254
    3404:	f8 83       	st	Y, r31
    3406:	c6 58       	subi	r28, 0x86	; 134
    3408:	d1 40       	sbci	r29, 0x01	; 1
    340a:	2f eb       	ldi	r18, 0xBF	; 191
    340c:	c1 58       	subi	r28, 0x81	; 129
    340e:	de 4f       	sbci	r29, 0xFE	; 254
    3410:	28 83       	st	Y, r18
    3412:	cf 57       	subi	r28, 0x7F	; 127
    3414:	d1 40       	sbci	r29, 0x01	; 1
    3416:	f7 ef       	ldi	r31, 0xF7	; 247
    3418:	c0 58       	subi	r28, 0x80	; 128
    341a:	de 4f       	sbci	r29, 0xFE	; 254
    341c:	f8 83       	st	Y, r31
    341e:	c0 58       	subi	r28, 0x80	; 128
    3420:	d1 40       	sbci	r29, 0x01	; 1
    3422:	2e ed       	ldi	r18, 0xDE	; 222
    3424:	cf 57       	subi	r28, 0x7F	; 127
    3426:	de 4f       	sbci	r29, 0xFE	; 254
    3428:	28 83       	st	Y, r18
    342a:	c1 58       	subi	r28, 0x81	; 129
    342c:	d1 40       	sbci	r29, 0x01	; 1
    342e:	fb e0       	ldi	r31, 0x0B	; 11
    3430:	ce 57       	subi	r28, 0x7E	; 126
    3432:	de 4f       	sbci	r29, 0xFE	; 254
    3434:	f8 83       	st	Y, r31
    3436:	c2 58       	subi	r28, 0x82	; 130
    3438:	d1 40       	sbci	r29, 0x01	; 1
    343a:	2f ef       	ldi	r18, 0xFF	; 255
    343c:	c5 58       	subi	r28, 0x85	; 133
    343e:	de 4f       	sbci	r29, 0xFE	; 254
    3440:	28 83       	st	Y, r18
    3442:	cb 57       	subi	r28, 0x7B	; 123
    3444:	d1 40       	sbci	r29, 0x01	; 1
    3446:	ff ef       	ldi	r31, 0xFF	; 255
    3448:	c4 58       	subi	r28, 0x84	; 132
    344a:	de 4f       	sbci	r29, 0xFE	; 254
    344c:	f8 83       	st	Y, r31
    344e:	cc 57       	subi	r28, 0x7C	; 124
    3450:	d1 40       	sbci	r29, 0x01	; 1
    3452:	c3 58       	subi	r28, 0x83	; 131
    3454:	de 4f       	sbci	r29, 0xFE	; 254
    3456:	28 83       	st	Y, r18
    3458:	cd 57       	subi	r28, 0x7D	; 125
    345a:	d1 40       	sbci	r29, 0x01	; 1
    345c:	ff e0       	ldi	r31, 0x0F	; 15
    345e:	c2 58       	subi	r28, 0x82	; 130
    3460:	de 4f       	sbci	r29, 0xFE	; 254
    3462:	f8 83       	st	Y, r31
    3464:	ce 57       	subi	r28, 0x7E	; 126
    3466:	d1 40       	sbci	r29, 0x01	; 1
    3468:	2f e7       	ldi	r18, 0x7F	; 127
    346a:	c9 58       	subi	r28, 0x89	; 137
    346c:	de 4f       	sbci	r29, 0xFE	; 254
    346e:	28 83       	st	Y, r18
    3470:	c7 57       	subi	r28, 0x77	; 119
    3472:	d1 40       	sbci	r29, 0x01	; 1
    3474:	ff ee       	ldi	r31, 0xEF	; 239
    3476:	c8 58       	subi	r28, 0x88	; 136
    3478:	de 4f       	sbci	r29, 0xFE	; 254
    347a:	f8 83       	st	Y, r31
    347c:	c8 57       	subi	r28, 0x78	; 120
    347e:	d1 40       	sbci	r29, 0x01	; 1
    3480:	2d eb       	ldi	r18, 0xBD	; 189
    3482:	c7 58       	subi	r28, 0x87	; 135
    3484:	de 4f       	sbci	r29, 0xFE	; 254
    3486:	28 83       	st	Y, r18
    3488:	c9 57       	subi	r28, 0x79	; 121
    348a:	d1 40       	sbci	r29, 0x01	; 1
    348c:	f7 e0       	ldi	r31, 0x07	; 7
    348e:	c6 58       	subi	r28, 0x86	; 134
    3490:	de 4f       	sbci	r29, 0xFE	; 254
    3492:	f8 83       	st	Y, r31
    3494:	ca 57       	subi	r28, 0x7A	; 122
    3496:	d1 40       	sbci	r29, 0x01	; 1
    3498:	2f e3       	ldi	r18, 0x3F	; 63
    349a:	cd 58       	subi	r28, 0x8D	; 141
    349c:	de 4f       	sbci	r29, 0xFE	; 254
    349e:	28 83       	st	Y, r18
    34a0:	c3 57       	subi	r28, 0x73	; 115
    34a2:	d1 40       	sbci	r29, 0x01	; 1
    34a4:	f7 ee       	ldi	r31, 0xE7	; 231
    34a6:	cc 58       	subi	r28, 0x8C	; 140
    34a8:	de 4f       	sbci	r29, 0xFE	; 254
    34aa:	f8 83       	st	Y, r31
    34ac:	c4 57       	subi	r28, 0x74	; 116
    34ae:	d1 40       	sbci	r29, 0x01	; 1
    34b0:	2c e9       	ldi	r18, 0x9C	; 156
    34b2:	cb 58       	subi	r28, 0x8B	; 139
    34b4:	de 4f       	sbci	r29, 0xFE	; 254
    34b6:	28 83       	st	Y, r18
    34b8:	c5 57       	subi	r28, 0x75	; 117
    34ba:	d1 40       	sbci	r29, 0x01	; 1
    34bc:	f3 e0       	ldi	r31, 0x03	; 3
    34be:	ca 58       	subi	r28, 0x8A	; 138
    34c0:	de 4f       	sbci	r29, 0xFE	; 254
    34c2:	f8 83       	st	Y, r31
    34c4:	c6 57       	subi	r28, 0x76	; 118
    34c6:	d1 40       	sbci	r29, 0x01	; 1
    34c8:	2f e1       	ldi	r18, 0x1F	; 31
    34ca:	c1 59       	subi	r28, 0x91	; 145
    34cc:	de 4f       	sbci	r29, 0xFE	; 254
    34ce:	28 83       	st	Y, r18
    34d0:	cf 56       	subi	r28, 0x6F	; 111
    34d2:	d1 40       	sbci	r29, 0x01	; 1
    34d4:	f3 e6       	ldi	r31, 0x63	; 99
    34d6:	c0 59       	subi	r28, 0x90	; 144
    34d8:	de 4f       	sbci	r29, 0xFE	; 254
    34da:	f8 83       	st	Y, r31
    34dc:	c0 57       	subi	r28, 0x70	; 112
    34de:	d1 40       	sbci	r29, 0x01	; 1
    34e0:	2c e8       	ldi	r18, 0x8C	; 140
    34e2:	cf 58       	subi	r28, 0x8F	; 143
    34e4:	de 4f       	sbci	r29, 0xFE	; 254
    34e6:	28 83       	st	Y, r18
    34e8:	c1 57       	subi	r28, 0x71	; 113
    34ea:	d1 40       	sbci	r29, 0x01	; 1
    34ec:	f1 e0       	ldi	r31, 0x01	; 1
    34ee:	ce 58       	subi	r28, 0x8E	; 142
    34f0:	de 4f       	sbci	r29, 0xFE	; 254
    34f2:	f8 83       	st	Y, r31
    34f4:	c2 57       	subi	r28, 0x72	; 114
    34f6:	d1 40       	sbci	r29, 0x01	; 1
    34f8:	2f e0       	ldi	r18, 0x0F	; 15
    34fa:	c5 59       	subi	r28, 0x95	; 149
    34fc:	de 4f       	sbci	r29, 0xFE	; 254
    34fe:	28 83       	st	Y, r18
    3500:	cb 56       	subi	r28, 0x6B	; 107
    3502:	d1 40       	sbci	r29, 0x01	; 1
    3504:	f1 e2       	ldi	r31, 0x21	; 33
    3506:	c4 59       	subi	r28, 0x94	; 148
    3508:	de 4f       	sbci	r29, 0xFE	; 254
    350a:	f8 83       	st	Y, r31
    350c:	cc 56       	subi	r28, 0x6C	; 108
    350e:	d1 40       	sbci	r29, 0x01	; 1
    3510:	24 e8       	ldi	r18, 0x84	; 132
    3512:	c3 59       	subi	r28, 0x93	; 147
    3514:	de 4f       	sbci	r29, 0xFE	; 254
    3516:	28 83       	st	Y, r18
    3518:	cd 56       	subi	r28, 0x6D	; 109
    351a:	d1 40       	sbci	r29, 0x01	; 1
    351c:	c2 59       	subi	r28, 0x92	; 146
    351e:	de 4f       	sbci	r29, 0xFE	; 254
    3520:	18 82       	st	Y, r1
    3522:	ce 56       	subi	r28, 0x6E	; 110
    3524:	d1 40       	sbci	r29, 0x01	; 1
    3526:	f1 e8       	ldi	r31, 0x81	; 129
    3528:	c1 52       	subi	r28, 0x21	; 33
    352a:	df 4f       	sbci	r29, 0xFF	; 255
    352c:	f8 83       	st	Y, r31
    352e:	cf 5d       	subi	r28, 0xDF	; 223
    3530:	d0 40       	sbci	r29, 0x00	; 0
    3532:	20 e1       	ldi	r18, 0x10	; 16
    3534:	c0 52       	subi	r28, 0x20	; 32
    3536:	df 4f       	sbci	r29, 0xFF	; 255
    3538:	28 83       	st	Y, r18
    353a:	c0 5e       	subi	r28, 0xE0	; 224
    353c:	d0 40       	sbci	r29, 0x00	; 0
    353e:	f2 e4       	ldi	r31, 0x42	; 66
    3540:	cf 51       	subi	r28, 0x1F	; 31
    3542:	df 4f       	sbci	r29, 0xFF	; 255
    3544:	f8 83       	st	Y, r31
    3546:	c1 5e       	subi	r28, 0xE1	; 225
    3548:	d0 40       	sbci	r29, 0x00	; 0
    354a:	28 e0       	ldi	r18, 0x08	; 8
    354c:	ce 51       	subi	r28, 0x1E	; 30
    354e:	df 4f       	sbci	r29, 0xFF	; 255
    3550:	28 83       	st	Y, r18
    3552:	c2 5e       	subi	r28, 0xE2	; 226
    3554:	d0 40       	sbci	r29, 0x00	; 0
    3556:	f1 ec       	ldi	r31, 0xC1	; 193
    3558:	c5 52       	subi	r28, 0x25	; 37
    355a:	df 4f       	sbci	r29, 0xFF	; 255
    355c:	f8 83       	st	Y, r31
    355e:	cb 5d       	subi	r28, 0xDB	; 219
    3560:	d0 40       	sbci	r29, 0x00	; 0
    3562:	28 e1       	ldi	r18, 0x18	; 24
    3564:	c4 52       	subi	r28, 0x24	; 36
    3566:	df 4f       	sbci	r29, 0xFF	; 255
    3568:	28 83       	st	Y, r18
    356a:	cc 5d       	subi	r28, 0xDC	; 220
    356c:	d0 40       	sbci	r29, 0x00	; 0
    356e:	f3 e6       	ldi	r31, 0x63	; 99
    3570:	c3 52       	subi	r28, 0x23	; 35
    3572:	df 4f       	sbci	r29, 0xFF	; 255
    3574:	f8 83       	st	Y, r31
    3576:	cd 5d       	subi	r28, 0xDD	; 221
    3578:	d0 40       	sbci	r29, 0x00	; 0
    357a:	2c e0       	ldi	r18, 0x0C	; 12
    357c:	c2 52       	subi	r28, 0x22	; 34
    357e:	df 4f       	sbci	r29, 0xFF	; 255
    3580:	28 83       	st	Y, r18
    3582:	ce 5d       	subi	r28, 0xDE	; 222
    3584:	d0 40       	sbci	r29, 0x00	; 0
    3586:	f1 e4       	ldi	r31, 0x41	; 65
    3588:	c9 52       	subi	r28, 0x29	; 41
    358a:	df 4f       	sbci	r29, 0xFF	; 255
    358c:	f8 83       	st	Y, r31
    358e:	c7 5d       	subi	r28, 0xD7	; 215
    3590:	d0 40       	sbci	r29, 0x00	; 0
    3592:	28 e0       	ldi	r18, 0x08	; 8
    3594:	c8 52       	subi	r28, 0x28	; 40
    3596:	df 4f       	sbci	r29, 0xFF	; 255
    3598:	28 83       	st	Y, r18
    359a:	c8 5d       	subi	r28, 0xD8	; 216
    359c:	d0 40       	sbci	r29, 0x00	; 0
    359e:	f1 e2       	ldi	r31, 0x21	; 33
    35a0:	c7 52       	subi	r28, 0x27	; 39
    35a2:	df 4f       	sbci	r29, 0xFF	; 255
    35a4:	f8 83       	st	Y, r31
    35a6:	c9 5d       	subi	r28, 0xD9	; 217
    35a8:	d0 40       	sbci	r29, 0x00	; 0
    35aa:	24 e0       	ldi	r18, 0x04	; 4
    35ac:	c6 52       	subi	r28, 0x26	; 38
    35ae:	df 4f       	sbci	r29, 0xFF	; 255
    35b0:	28 83       	st	Y, r18
    35b2:	ca 5d       	subi	r28, 0xDA	; 218
    35b4:	d0 40       	sbci	r29, 0x00	; 0
    35b6:	f1 ea       	ldi	r31, 0xA1	; 161
    35b8:	cd 52       	subi	r28, 0x2D	; 45
    35ba:	df 4f       	sbci	r29, 0xFF	; 255
    35bc:	f8 83       	st	Y, r31
    35be:	c3 5d       	subi	r28, 0xD3	; 211
    35c0:	d0 40       	sbci	r29, 0x00	; 0
    35c2:	24 e9       	ldi	r18, 0x94	; 148
    35c4:	cc 52       	subi	r28, 0x2C	; 44
    35c6:	df 4f       	sbci	r29, 0xFF	; 255
    35c8:	28 83       	st	Y, r18
    35ca:	c4 5d       	subi	r28, 0xD4	; 212
    35cc:	d0 40       	sbci	r29, 0x00	; 0
    35ce:	f2 e5       	ldi	r31, 0x52	; 82
    35d0:	cb 52       	subi	r28, 0x2B	; 43
    35d2:	df 4f       	sbci	r29, 0xFF	; 255
    35d4:	f8 83       	st	Y, r31
    35d6:	c5 5d       	subi	r28, 0xD5	; 213
    35d8:	d0 40       	sbci	r29, 0x00	; 0
    35da:	2a e0       	ldi	r18, 0x0A	; 10
    35dc:	ca 52       	subi	r28, 0x2A	; 42
    35de:	df 4f       	sbci	r29, 0xFF	; 255
    35e0:	28 83       	st	Y, r18
    35e2:	c6 5d       	subi	r28, 0xD6	; 214
    35e4:	d0 40       	sbci	r29, 0x00	; 0
    35e6:	f1 ee       	ldi	r31, 0xE1	; 225
    35e8:	c1 53       	subi	r28, 0x31	; 49
    35ea:	df 4f       	sbci	r29, 0xFF	; 255
    35ec:	f8 83       	st	Y, r31
    35ee:	cf 5c       	subi	r28, 0xCF	; 207
    35f0:	d0 40       	sbci	r29, 0x00	; 0
    35f2:	2c e9       	ldi	r18, 0x9C	; 156
    35f4:	c0 53       	subi	r28, 0x30	; 48
    35f6:	df 4f       	sbci	r29, 0xFF	; 255
    35f8:	28 83       	st	Y, r18
    35fa:	c0 5d       	subi	r28, 0xD0	; 208
    35fc:	d0 40       	sbci	r29, 0x00	; 0
    35fe:	f3 e7       	ldi	r31, 0x73	; 115
    3600:	cf 52       	subi	r28, 0x2F	; 47
    3602:	df 4f       	sbci	r29, 0xFF	; 255
    3604:	f8 83       	st	Y, r31
    3606:	c1 5d       	subi	r28, 0xD1	; 209
    3608:	d0 40       	sbci	r29, 0x00	; 0
    360a:	2e e0       	ldi	r18, 0x0E	; 14
    360c:	ce 52       	subi	r28, 0x2E	; 46
    360e:	df 4f       	sbci	r29, 0xFF	; 255
    3610:	28 83       	st	Y, r18
    3612:	c2 5d       	subi	r28, 0xD2	; 210
    3614:	d0 40       	sbci	r29, 0x00	; 0
    3616:	f1 e6       	ldi	r31, 0x61	; 97
    3618:	c5 53       	subi	r28, 0x35	; 53
    361a:	df 4f       	sbci	r29, 0xFF	; 255
    361c:	f8 83       	st	Y, r31
    361e:	cb 5c       	subi	r28, 0xCB	; 203
    3620:	d0 40       	sbci	r29, 0x00	; 0
    3622:	2c e8       	ldi	r18, 0x8C	; 140
    3624:	c4 53       	subi	r28, 0x34	; 52
    3626:	df 4f       	sbci	r29, 0xFF	; 255
    3628:	28 83       	st	Y, r18
    362a:	cc 5c       	subi	r28, 0xCC	; 204
    362c:	d0 40       	sbci	r29, 0x00	; 0
    362e:	f1 e3       	ldi	r31, 0x31	; 49
    3630:	c3 53       	subi	r28, 0x33	; 51
    3632:	df 4f       	sbci	r29, 0xFF	; 255
    3634:	f8 83       	st	Y, r31
    3636:	cd 5c       	subi	r28, 0xCD	; 205
    3638:	d0 40       	sbci	r29, 0x00	; 0
    363a:	26 e0       	ldi	r18, 0x06	; 6
    363c:	c2 53       	subi	r28, 0x32	; 50
    363e:	df 4f       	sbci	r29, 0xFF	; 255
    3640:	28 83       	st	Y, r18
    3642:	ce 5c       	subi	r28, 0xCE	; 206
    3644:	d0 40       	sbci	r29, 0x00	; 0
    3646:	f1 e2       	ldi	r31, 0x21	; 33
    3648:	c9 53       	subi	r28, 0x39	; 57
    364a:	df 4f       	sbci	r29, 0xFF	; 255
    364c:	f8 83       	st	Y, r31
    364e:	c7 5c       	subi	r28, 0xC7	; 199
    3650:	d0 40       	sbci	r29, 0x00	; 0
    3652:	24 e8       	ldi	r18, 0x84	; 132
    3654:	c8 53       	subi	r28, 0x38	; 56
    3656:	df 4f       	sbci	r29, 0xFF	; 255
    3658:	28 83       	st	Y, r18
    365a:	c8 5c       	subi	r28, 0xC8	; 200
    365c:	d0 40       	sbci	r29, 0x00	; 0
    365e:	f0 e1       	ldi	r31, 0x10	; 16
    3660:	c7 53       	subi	r28, 0x37	; 55
    3662:	df 4f       	sbci	r29, 0xFF	; 255
    3664:	f8 83       	st	Y, r31
    3666:	c9 5c       	subi	r28, 0xC9	; 201
    3668:	d0 40       	sbci	r29, 0x00	; 0
    366a:	22 e0       	ldi	r18, 0x02	; 2
    366c:	c6 53       	subi	r28, 0x36	; 54
    366e:	df 4f       	sbci	r29, 0xFF	; 255
    3670:	28 83       	st	Y, r18
    3672:	ca 5c       	subi	r28, 0xCA	; 202
    3674:	d0 40       	sbci	r29, 0x00	; 0
    3676:	f1 e9       	ldi	r31, 0x91	; 145
    3678:	cd 53       	subi	r28, 0x3D	; 61
    367a:	df 4f       	sbci	r29, 0xFF	; 255
    367c:	f8 83       	st	Y, r31
    367e:	c3 5c       	subi	r28, 0xC3	; 195
    3680:	d0 40       	sbci	r29, 0x00	; 0
    3682:	22 e5       	ldi	r18, 0x52	; 82
    3684:	cc 53       	subi	r28, 0x3C	; 60
    3686:	df 4f       	sbci	r29, 0xFF	; 255
    3688:	28 83       	st	Y, r18
    368a:	c4 5c       	subi	r28, 0xC4	; 196
    368c:	d0 40       	sbci	r29, 0x00	; 0
    368e:	fa e4       	ldi	r31, 0x4A	; 74
    3690:	cb 53       	subi	r28, 0x3B	; 59
    3692:	df 4f       	sbci	r29, 0xFF	; 255
    3694:	f8 83       	st	Y, r31
    3696:	c5 5c       	subi	r28, 0xC5	; 197
    3698:	d0 40       	sbci	r29, 0x00	; 0
    369a:	29 e0       	ldi	r18, 0x09	; 9
    369c:	ca 53       	subi	r28, 0x3A	; 58
    369e:	df 4f       	sbci	r29, 0xFF	; 255
    36a0:	28 83       	st	Y, r18
    36a2:	c6 5c       	subi	r28, 0xC6	; 198
    36a4:	d0 40       	sbci	r29, 0x00	; 0
    36a6:	f1 ed       	ldi	r31, 0xD1	; 209
    36a8:	c1 54       	subi	r28, 0x41	; 65
    36aa:	df 4f       	sbci	r29, 0xFF	; 255
    36ac:	f8 83       	st	Y, r31
    36ae:	cf 5b       	subi	r28, 0xBF	; 191
    36b0:	d0 40       	sbci	r29, 0x00	; 0
    36b2:	2a e5       	ldi	r18, 0x5A	; 90
    36b4:	c0 54       	subi	r28, 0x40	; 64
    36b6:	df 4f       	sbci	r29, 0xFF	; 255
    36b8:	28 83       	st	Y, r18
    36ba:	c0 5c       	subi	r28, 0xC0	; 192
    36bc:	d0 40       	sbci	r29, 0x00	; 0
    36be:	fb e6       	ldi	r31, 0x6B	; 107
    36c0:	cf 53       	subi	r28, 0x3F	; 63
    36c2:	df 4f       	sbci	r29, 0xFF	; 255
    36c4:	f8 83       	st	Y, r31
    36c6:	c1 5c       	subi	r28, 0xC1	; 193
    36c8:	d0 40       	sbci	r29, 0x00	; 0
    36ca:	2d e0       	ldi	r18, 0x0D	; 13
    36cc:	ce 53       	subi	r28, 0x3E	; 62
    36ce:	df 4f       	sbci	r29, 0xFF	; 255
    36d0:	28 83       	st	Y, r18
    36d2:	c2 5c       	subi	r28, 0xC2	; 194
    36d4:	d0 40       	sbci	r29, 0x00	; 0
    36d6:	f1 e5       	ldi	r31, 0x51	; 81
    36d8:	c5 54       	subi	r28, 0x45	; 69
    36da:	df 4f       	sbci	r29, 0xFF	; 255
    36dc:	f8 83       	st	Y, r31
    36de:	cb 5b       	subi	r28, 0xBB	; 187
    36e0:	d0 40       	sbci	r29, 0x00	; 0
    36e2:	2a e4       	ldi	r18, 0x4A	; 74
    36e4:	c4 54       	subi	r28, 0x44	; 68
    36e6:	df 4f       	sbci	r29, 0xFF	; 255
    36e8:	28 83       	st	Y, r18
    36ea:	cc 5b       	subi	r28, 0xBC	; 188
    36ec:	d0 40       	sbci	r29, 0x00	; 0
    36ee:	f9 e2       	ldi	r31, 0x29	; 41
    36f0:	c3 54       	subi	r28, 0x43	; 67
    36f2:	df 4f       	sbci	r29, 0xFF	; 255
    36f4:	f8 83       	st	Y, r31
    36f6:	cd 5b       	subi	r28, 0xBD	; 189
    36f8:	d0 40       	sbci	r29, 0x00	; 0
    36fa:	25 e0       	ldi	r18, 0x05	; 5
    36fc:	c2 54       	subi	r28, 0x42	; 66
    36fe:	df 4f       	sbci	r29, 0xFF	; 255
    3700:	28 83       	st	Y, r18
    3702:	ce 5b       	subi	r28, 0xBE	; 190
    3704:	d0 40       	sbci	r29, 0x00	; 0
    3706:	f1 eb       	ldi	r31, 0xB1	; 177
    3708:	c9 54       	subi	r28, 0x49	; 73
    370a:	df 4f       	sbci	r29, 0xFF	; 255
    370c:	f8 83       	st	Y, r31
    370e:	c7 5b       	subi	r28, 0xB7	; 183
    3710:	d0 40       	sbci	r29, 0x00	; 0
    3712:	26 ed       	ldi	r18, 0xD6	; 214
    3714:	c8 54       	subi	r28, 0x48	; 72
    3716:	df 4f       	sbci	r29, 0xFF	; 255
    3718:	28 83       	st	Y, r18
    371a:	c8 5b       	subi	r28, 0xB8	; 184
    371c:	d0 40       	sbci	r29, 0x00	; 0
    371e:	fa e5       	ldi	r31, 0x5A	; 90
    3720:	c7 54       	subi	r28, 0x47	; 71
    3722:	df 4f       	sbci	r29, 0xFF	; 255
    3724:	f8 83       	st	Y, r31
    3726:	c9 5b       	subi	r28, 0xB9	; 185
    3728:	d0 40       	sbci	r29, 0x00	; 0
    372a:	2b e0       	ldi	r18, 0x0B	; 11
    372c:	c6 54       	subi	r28, 0x46	; 70
    372e:	df 4f       	sbci	r29, 0xFF	; 255
    3730:	28 83       	st	Y, r18
    3732:	ca 5b       	subi	r28, 0xBA	; 186
    3734:	d0 40       	sbci	r29, 0x00	; 0
    3736:	f1 ef       	ldi	r31, 0xF1	; 241
    3738:	cd 54       	subi	r28, 0x4D	; 77
    373a:	df 4f       	sbci	r29, 0xFF	; 255
    373c:	f8 83       	st	Y, r31
    373e:	c3 5b       	subi	r28, 0xB3	; 179
    3740:	d0 40       	sbci	r29, 0x00	; 0
    3742:	2e ed       	ldi	r18, 0xDE	; 222
    3744:	cc 54       	subi	r28, 0x4C	; 76
    3746:	df 4f       	sbci	r29, 0xFF	; 255
    3748:	28 83       	st	Y, r18
    374a:	c4 5b       	subi	r28, 0xB4	; 180
    374c:	d0 40       	sbci	r29, 0x00	; 0
    374e:	fb e7       	ldi	r31, 0x7B	; 123
    3750:	cb 54       	subi	r28, 0x4B	; 75
    3752:	df 4f       	sbci	r29, 0xFF	; 255
    3754:	f8 83       	st	Y, r31
    3756:	c5 5b       	subi	r28, 0xB5	; 181
    3758:	d0 40       	sbci	r29, 0x00	; 0
    375a:	2f e0       	ldi	r18, 0x0F	; 15
    375c:	ca 54       	subi	r28, 0x4A	; 74
    375e:	df 4f       	sbci	r29, 0xFF	; 255
    3760:	28 83       	st	Y, r18
    3762:	c6 5b       	subi	r28, 0xB6	; 182
    3764:	d0 40       	sbci	r29, 0x00	; 0
    3766:	f1 e7       	ldi	r31, 0x71	; 113
    3768:	c1 55       	subi	r28, 0x51	; 81
    376a:	df 4f       	sbci	r29, 0xFF	; 255
    376c:	f8 83       	st	Y, r31
    376e:	cf 5a       	subi	r28, 0xAF	; 175
    3770:	d0 40       	sbci	r29, 0x00	; 0
    3772:	2e ec       	ldi	r18, 0xCE	; 206
    3774:	c0 55       	subi	r28, 0x50	; 80
    3776:	df 4f       	sbci	r29, 0xFF	; 255
    3778:	28 83       	st	Y, r18
    377a:	c0 5b       	subi	r28, 0xB0	; 176
    377c:	d0 40       	sbci	r29, 0x00	; 0
    377e:	f9 e3       	ldi	r31, 0x39	; 57
    3780:	cf 54       	subi	r28, 0x4F	; 79
    3782:	df 4f       	sbci	r29, 0xFF	; 255
    3784:	f8 83       	st	Y, r31
    3786:	c1 5b       	subi	r28, 0xB1	; 177
    3788:	d0 40       	sbci	r29, 0x00	; 0
    378a:	27 e0       	ldi	r18, 0x07	; 7
    378c:	ce 54       	subi	r28, 0x4E	; 78
    378e:	df 4f       	sbci	r29, 0xFF	; 255
    3790:	28 83       	st	Y, r18
    3792:	c2 5b       	subi	r28, 0xB2	; 178
    3794:	d0 40       	sbci	r29, 0x00	; 0
    3796:	f1 e3       	ldi	r31, 0x31	; 49
    3798:	c5 55       	subi	r28, 0x55	; 85
    379a:	df 4f       	sbci	r29, 0xFF	; 255
    379c:	f8 83       	st	Y, r31
    379e:	cb 5a       	subi	r28, 0xAB	; 171
    37a0:	d0 40       	sbci	r29, 0x00	; 0
    37a2:	26 ec       	ldi	r18, 0xC6	; 198
    37a4:	c4 55       	subi	r28, 0x54	; 84
    37a6:	df 4f       	sbci	r29, 0xFF	; 255
    37a8:	28 83       	st	Y, r18
    37aa:	cc 5a       	subi	r28, 0xAC	; 172
    37ac:	d0 40       	sbci	r29, 0x00	; 0
    37ae:	f8 e1       	ldi	r31, 0x18	; 24
    37b0:	c3 55       	subi	r28, 0x53	; 83
    37b2:	df 4f       	sbci	r29, 0xFF	; 255
    37b4:	f8 83       	st	Y, r31
    37b6:	cd 5a       	subi	r28, 0xAD	; 173
    37b8:	d0 40       	sbci	r29, 0x00	; 0
    37ba:	23 e0       	ldi	r18, 0x03	; 3
    37bc:	c2 55       	subi	r28, 0x52	; 82
    37be:	df 4f       	sbci	r29, 0xFF	; 255
    37c0:	28 83       	st	Y, r18
    37c2:	ce 5a       	subi	r28, 0xAE	; 174
    37c4:	d0 40       	sbci	r29, 0x00	; 0
    37c6:	f1 e1       	ldi	r31, 0x11	; 17
    37c8:	c9 55       	subi	r28, 0x59	; 89
    37ca:	df 4f       	sbci	r29, 0xFF	; 255
    37cc:	f8 83       	st	Y, r31
    37ce:	c7 5a       	subi	r28, 0xA7	; 167
    37d0:	d0 40       	sbci	r29, 0x00	; 0
    37d2:	22 e4       	ldi	r18, 0x42	; 66
    37d4:	c8 55       	subi	r28, 0x58	; 88
    37d6:	df 4f       	sbci	r29, 0xFF	; 255
    37d8:	28 83       	st	Y, r18
    37da:	c8 5a       	subi	r28, 0xA8	; 168
    37dc:	d0 40       	sbci	r29, 0x00	; 0
    37de:	f8 e0       	ldi	r31, 0x08	; 8
    37e0:	c7 55       	subi	r28, 0x57	; 87
    37e2:	df 4f       	sbci	r29, 0xFF	; 255
    37e4:	f8 83       	st	Y, r31
    37e6:	c9 5a       	subi	r28, 0xA9	; 169
    37e8:	d0 40       	sbci	r29, 0x00	; 0
    37ea:	21 e0       	ldi	r18, 0x01	; 1
    37ec:	c6 55       	subi	r28, 0x56	; 86
    37ee:	df 4f       	sbci	r29, 0xFF	; 255
    37f0:	28 83       	st	Y, r18
    37f2:	ca 5a       	subi	r28, 0xAA	; 170
    37f4:	d0 40       	sbci	r29, 0x00	; 0
    37f6:	f9 e8       	ldi	r31, 0x89	; 137
    37f8:	cd 55       	subi	r28, 0x5D	; 93
    37fa:	df 4f       	sbci	r29, 0xFF	; 255
    37fc:	f8 83       	st	Y, r31
    37fe:	c3 5a       	subi	r28, 0xA3	; 163
    3800:	d0 40       	sbci	r29, 0x00	; 0
    3802:	21 e3       	ldi	r18, 0x31	; 49
    3804:	cc 55       	subi	r28, 0x5C	; 92
    3806:	df 4f       	sbci	r29, 0xFF	; 255
    3808:	28 83       	st	Y, r18
    380a:	c4 5a       	subi	r28, 0xA4	; 164
    380c:	d0 40       	sbci	r29, 0x00	; 0
    380e:	f6 ec       	ldi	r31, 0xC6	; 198
    3810:	cb 55       	subi	r28, 0x5B	; 91
    3812:	df 4f       	sbci	r29, 0xFF	; 255
    3814:	f8 83       	st	Y, r31
    3816:	c5 5a       	subi	r28, 0xA5	; 165
    3818:	d0 40       	sbci	r29, 0x00	; 0
    381a:	28 e0       	ldi	r18, 0x08	; 8
    381c:	ca 55       	subi	r28, 0x5A	; 90
    381e:	df 4f       	sbci	r29, 0xFF	; 255
    3820:	28 83       	st	Y, r18
    3822:	c6 5a       	subi	r28, 0xA6	; 166
    3824:	d0 40       	sbci	r29, 0x00	; 0
    3826:	f9 ec       	ldi	r31, 0xC9	; 201
    3828:	c1 56       	subi	r28, 0x61	; 97
    382a:	df 4f       	sbci	r29, 0xFF	; 255
    382c:	f8 83       	st	Y, r31
    382e:	cf 59       	subi	r28, 0x9F	; 159
    3830:	d0 40       	sbci	r29, 0x00	; 0
    3832:	29 e3       	ldi	r18, 0x39	; 57
    3834:	c0 56       	subi	r28, 0x60	; 96
    3836:	df 4f       	sbci	r29, 0xFF	; 255
    3838:	28 83       	st	Y, r18
    383a:	c0 5a       	subi	r28, 0xA0	; 160
    383c:	d0 40       	sbci	r29, 0x00	; 0
    383e:	f7 ee       	ldi	r31, 0xE7	; 231
    3840:	cf 55       	subi	r28, 0x5F	; 95
    3842:	df 4f       	sbci	r29, 0xFF	; 255
    3844:	f8 83       	st	Y, r31
    3846:	c1 5a       	subi	r28, 0xA1	; 161
    3848:	d0 40       	sbci	r29, 0x00	; 0
    384a:	2c e0       	ldi	r18, 0x0C	; 12
    384c:	ce 55       	subi	r28, 0x5E	; 94
    384e:	df 4f       	sbci	r29, 0xFF	; 255
    3850:	28 83       	st	Y, r18
    3852:	c2 5a       	subi	r28, 0xA2	; 162
    3854:	d0 40       	sbci	r29, 0x00	; 0
    3856:	f9 e4       	ldi	r31, 0x49	; 73
    3858:	c5 56       	subi	r28, 0x65	; 101
    385a:	df 4f       	sbci	r29, 0xFF	; 255
    385c:	f8 83       	st	Y, r31
    385e:	cb 59       	subi	r28, 0x9B	; 155
    3860:	d0 40       	sbci	r29, 0x00	; 0
    3862:	29 e2       	ldi	r18, 0x29	; 41
    3864:	c4 56       	subi	r28, 0x64	; 100
    3866:	df 4f       	sbci	r29, 0xFF	; 255
    3868:	28 83       	st	Y, r18
    386a:	cc 59       	subi	r28, 0x9C	; 156
    386c:	d0 40       	sbci	r29, 0x00	; 0
    386e:	f5 ea       	ldi	r31, 0xA5	; 165
    3870:	c3 56       	subi	r28, 0x63	; 99
    3872:	df 4f       	sbci	r29, 0xFF	; 255
    3874:	f8 83       	st	Y, r31
    3876:	cd 59       	subi	r28, 0x9D	; 157
    3878:	d0 40       	sbci	r29, 0x00	; 0
    387a:	24 e0       	ldi	r18, 0x04	; 4
    387c:	c2 56       	subi	r28, 0x62	; 98
    387e:	df 4f       	sbci	r29, 0xFF	; 255
    3880:	28 83       	st	Y, r18
    3882:	ce 59       	subi	r28, 0x9E	; 158
    3884:	d0 40       	sbci	r29, 0x00	; 0
    3886:	f9 ea       	ldi	r31, 0xA9	; 169
    3888:	c9 56       	subi	r28, 0x69	; 105
    388a:	df 4f       	sbci	r29, 0xFF	; 255
    388c:	f8 83       	st	Y, r31
    388e:	c7 59       	subi	r28, 0x97	; 151
    3890:	d0 40       	sbci	r29, 0x00	; 0
    3892:	25 eb       	ldi	r18, 0xB5	; 181
    3894:	c8 56       	subi	r28, 0x68	; 104
    3896:	df 4f       	sbci	r29, 0xFF	; 255
    3898:	28 83       	st	Y, r18
    389a:	c8 59       	subi	r28, 0x98	; 152
    389c:	d0 40       	sbci	r29, 0x00	; 0
    389e:	f6 ed       	ldi	r31, 0xD6	; 214
    38a0:	c7 56       	subi	r28, 0x67	; 103
    38a2:	df 4f       	sbci	r29, 0xFF	; 255
    38a4:	f8 83       	st	Y, r31
    38a6:	c9 59       	subi	r28, 0x99	; 153
    38a8:	d0 40       	sbci	r29, 0x00	; 0
    38aa:	2a e0       	ldi	r18, 0x0A	; 10
    38ac:	c6 56       	subi	r28, 0x66	; 102
    38ae:	df 4f       	sbci	r29, 0xFF	; 255
    38b0:	28 83       	st	Y, r18
    38b2:	ca 59       	subi	r28, 0x9A	; 154
    38b4:	d0 40       	sbci	r29, 0x00	; 0
    38b6:	f9 ee       	ldi	r31, 0xE9	; 233
    38b8:	cd 56       	subi	r28, 0x6D	; 109
    38ba:	df 4f       	sbci	r29, 0xFF	; 255
    38bc:	f8 83       	st	Y, r31
    38be:	c3 59       	subi	r28, 0x93	; 147
    38c0:	d0 40       	sbci	r29, 0x00	; 0
    38c2:	2d eb       	ldi	r18, 0xBD	; 189
    38c4:	cc 56       	subi	r28, 0x6C	; 108
    38c6:	df 4f       	sbci	r29, 0xFF	; 255
    38c8:	28 83       	st	Y, r18
    38ca:	c4 59       	subi	r28, 0x94	; 148
    38cc:	d0 40       	sbci	r29, 0x00	; 0
    38ce:	f7 ef       	ldi	r31, 0xF7	; 247
    38d0:	cb 56       	subi	r28, 0x6B	; 107
    38d2:	df 4f       	sbci	r29, 0xFF	; 255
    38d4:	f8 83       	st	Y, r31
    38d6:	c5 59       	subi	r28, 0x95	; 149
    38d8:	d0 40       	sbci	r29, 0x00	; 0
    38da:	2e e0       	ldi	r18, 0x0E	; 14
    38dc:	ca 56       	subi	r28, 0x6A	; 106
    38de:	df 4f       	sbci	r29, 0xFF	; 255
    38e0:	28 83       	st	Y, r18
    38e2:	c6 59       	subi	r28, 0x96	; 150
    38e4:	d0 40       	sbci	r29, 0x00	; 0
    38e6:	f9 e6       	ldi	r31, 0x69	; 105
    38e8:	c1 57       	subi	r28, 0x71	; 113
    38ea:	df 4f       	sbci	r29, 0xFF	; 255
    38ec:	f8 83       	st	Y, r31
    38ee:	cf 58       	subi	r28, 0x8F	; 143
    38f0:	d0 40       	sbci	r29, 0x00	; 0
    38f2:	2d ea       	ldi	r18, 0xAD	; 173
    38f4:	c0 57       	subi	r28, 0x70	; 112
    38f6:	df 4f       	sbci	r29, 0xFF	; 255
    38f8:	28 83       	st	Y, r18
    38fa:	c0 59       	subi	r28, 0x90	; 144
    38fc:	d0 40       	sbci	r29, 0x00	; 0
    38fe:	f5 eb       	ldi	r31, 0xB5	; 181
    3900:	cf 56       	subi	r28, 0x6F	; 111
    3902:	df 4f       	sbci	r29, 0xFF	; 255
    3904:	f8 83       	st	Y, r31
    3906:	c1 59       	subi	r28, 0x91	; 145
    3908:	d0 40       	sbci	r29, 0x00	; 0
    390a:	26 e0       	ldi	r18, 0x06	; 6
    390c:	ce 56       	subi	r28, 0x6E	; 110
    390e:	df 4f       	sbci	r29, 0xFF	; 255
    3910:	28 83       	st	Y, r18
    3912:	c2 59       	subi	r28, 0x92	; 146
    3914:	d0 40       	sbci	r29, 0x00	; 0
    3916:	f9 e2       	ldi	r31, 0x29	; 41
    3918:	c5 57       	subi	r28, 0x75	; 117
    391a:	df 4f       	sbci	r29, 0xFF	; 255
    391c:	f8 83       	st	Y, r31
    391e:	cb 58       	subi	r28, 0x8B	; 139
    3920:	d0 40       	sbci	r29, 0x00	; 0
    3922:	25 ea       	ldi	r18, 0xA5	; 165
    3924:	c4 57       	subi	r28, 0x74	; 116
    3926:	df 4f       	sbci	r29, 0xFF	; 255
    3928:	28 83       	st	Y, r18
    392a:	cc 58       	subi	r28, 0x8C	; 140
    392c:	d0 40       	sbci	r29, 0x00	; 0
    392e:	f4 e9       	ldi	r31, 0x94	; 148
    3930:	c3 57       	subi	r28, 0x73	; 115
    3932:	df 4f       	sbci	r29, 0xFF	; 255
    3934:	f8 83       	st	Y, r31
    3936:	cd 58       	subi	r28, 0x8D	; 141
    3938:	d0 40       	sbci	r29, 0x00	; 0
    393a:	22 e0       	ldi	r18, 0x02	; 2
    393c:	c2 57       	subi	r28, 0x72	; 114
    393e:	df 4f       	sbci	r29, 0xFF	; 255
    3940:	28 83       	st	Y, r18
    3942:	ce 58       	subi	r28, 0x8E	; 142
    3944:	d0 40       	sbci	r29, 0x00	; 0
    3946:	f9 e9       	ldi	r31, 0x99	; 153
    3948:	c9 57       	subi	r28, 0x79	; 121
    394a:	df 4f       	sbci	r29, 0xFF	; 255
    394c:	f8 83       	st	Y, r31
    394e:	c7 58       	subi	r28, 0x87	; 135
    3950:	d0 40       	sbci	r29, 0x00	; 0
    3952:	23 e7       	ldi	r18, 0x73	; 115
    3954:	c8 57       	subi	r28, 0x78	; 120
    3956:	df 4f       	sbci	r29, 0xFF	; 255
    3958:	28 83       	st	Y, r18
    395a:	c8 58       	subi	r28, 0x88	; 136
    395c:	d0 40       	sbci	r29, 0x00	; 0
    395e:	fe ec       	ldi	r31, 0xCE	; 206
    3960:	c7 57       	subi	r28, 0x77	; 119
    3962:	df 4f       	sbci	r29, 0xFF	; 255
    3964:	f8 83       	st	Y, r31
    3966:	c9 58       	subi	r28, 0x89	; 137
    3968:	d0 40       	sbci	r29, 0x00	; 0
    396a:	29 e0       	ldi	r18, 0x09	; 9
    396c:	c6 57       	subi	r28, 0x76	; 118
    396e:	df 4f       	sbci	r29, 0xFF	; 255
    3970:	28 83       	st	Y, r18
    3972:	ca 58       	subi	r28, 0x8A	; 138
    3974:	d0 40       	sbci	r29, 0x00	; 0
    3976:	f9 ed       	ldi	r31, 0xD9	; 217
    3978:	cd 57       	subi	r28, 0x7D	; 125
    397a:	df 4f       	sbci	r29, 0xFF	; 255
    397c:	f8 83       	st	Y, r31
    397e:	c3 58       	subi	r28, 0x83	; 131
    3980:	d0 40       	sbci	r29, 0x00	; 0
    3982:	2b e7       	ldi	r18, 0x7B	; 123
    3984:	cc 57       	subi	r28, 0x7C	; 124
    3986:	df 4f       	sbci	r29, 0xFF	; 255
    3988:	28 83       	st	Y, r18
    398a:	c4 58       	subi	r28, 0x84	; 132
    398c:	d0 40       	sbci	r29, 0x00	; 0
    398e:	ff ee       	ldi	r31, 0xEF	; 239
    3990:	cb 57       	subi	r28, 0x7B	; 123
    3992:	df 4f       	sbci	r29, 0xFF	; 255
    3994:	f8 83       	st	Y, r31
    3996:	c5 58       	subi	r28, 0x85	; 133
    3998:	d0 40       	sbci	r29, 0x00	; 0
    399a:	2d e0       	ldi	r18, 0x0D	; 13
    399c:	ca 57       	subi	r28, 0x7A	; 122
    399e:	df 4f       	sbci	r29, 0xFF	; 255
    39a0:	28 83       	st	Y, r18
    39a2:	c6 58       	subi	r28, 0x86	; 134
    39a4:	d0 40       	sbci	r29, 0x00	; 0
    39a6:	f9 e5       	ldi	r31, 0x59	; 89
    39a8:	c1 58       	subi	r28, 0x81	; 129
    39aa:	df 4f       	sbci	r29, 0xFF	; 255
    39ac:	f8 83       	st	Y, r31
    39ae:	cf 57       	subi	r28, 0x7F	; 127
    39b0:	d0 40       	sbci	r29, 0x00	; 0
    39b2:	2b e6       	ldi	r18, 0x6B	; 107
    39b4:	c0 58       	subi	r28, 0x80	; 128
    39b6:	df 4f       	sbci	r29, 0xFF	; 255
    39b8:	28 83       	st	Y, r18
    39ba:	c0 58       	subi	r28, 0x80	; 128
    39bc:	d0 40       	sbci	r29, 0x00	; 0
    39be:	fd ea       	ldi	r31, 0xAD	; 173
    39c0:	cf 57       	subi	r28, 0x7F	; 127
    39c2:	df 4f       	sbci	r29, 0xFF	; 255
    39c4:	f8 83       	st	Y, r31
    39c6:	c1 58       	subi	r28, 0x81	; 129
    39c8:	d0 40       	sbci	r29, 0x00	; 0
    39ca:	25 e0       	ldi	r18, 0x05	; 5
    39cc:	ce 57       	subi	r28, 0x7E	; 126
    39ce:	df 4f       	sbci	r29, 0xFF	; 255
    39d0:	28 83       	st	Y, r18
    39d2:	c2 58       	subi	r28, 0x82	; 130
    39d4:	d0 40       	sbci	r29, 0x00	; 0
    39d6:	f9 eb       	ldi	r31, 0xB9	; 185
    39d8:	ec 96       	adiw	r28, 0x3c	; 60
    39da:	ff af       	std	Y+63, r31	; 0x3f
    39dc:	ec 97       	sbiw	r28, 0x3c	; 60
    39de:	27 ef       	ldi	r18, 0xF7	; 247
    39e0:	ed 96       	adiw	r28, 0x3d	; 61
    39e2:	2f af       	std	Y+63, r18	; 0x3f
    39e4:	ed 97       	sbiw	r28, 0x3d	; 61
    39e6:	fe ed       	ldi	r31, 0xDE	; 222
    39e8:	ee 96       	adiw	r28, 0x3e	; 62
    39ea:	ff af       	std	Y+63, r31	; 0x3f
    39ec:	ee 97       	sbiw	r28, 0x3e	; 62
    39ee:	2b e0       	ldi	r18, 0x0B	; 11
    39f0:	ef 96       	adiw	r28, 0x3f	; 63
    39f2:	2f af       	std	Y+63, r18	; 0x3f
    39f4:	ef 97       	sbiw	r28, 0x3f	; 63
    39f6:	f9 ef       	ldi	r31, 0xF9	; 249
    39f8:	e8 96       	adiw	r28, 0x38	; 56
    39fa:	ff af       	std	Y+63, r31	; 0x3f
    39fc:	e8 97       	sbiw	r28, 0x38	; 56
    39fe:	2f ef       	ldi	r18, 0xFF	; 255
    3a00:	e9 96       	adiw	r28, 0x39	; 57
    3a02:	2f af       	std	Y+63, r18	; 0x3f
    3a04:	e9 97       	sbiw	r28, 0x39	; 57
    3a06:	ff ef       	ldi	r31, 0xFF	; 255
    3a08:	ea 96       	adiw	r28, 0x3a	; 58
    3a0a:	ff af       	std	Y+63, r31	; 0x3f
    3a0c:	ea 97       	sbiw	r28, 0x3a	; 58
    3a0e:	2f e0       	ldi	r18, 0x0F	; 15
    3a10:	eb 96       	adiw	r28, 0x3b	; 59
    3a12:	2f af       	std	Y+63, r18	; 0x3f
    3a14:	eb 97       	sbiw	r28, 0x3b	; 59
    3a16:	f9 e7       	ldi	r31, 0x79	; 121
    3a18:	e4 96       	adiw	r28, 0x34	; 52
    3a1a:	ff af       	std	Y+63, r31	; 0x3f
    3a1c:	e4 97       	sbiw	r28, 0x34	; 52
    3a1e:	2f ee       	ldi	r18, 0xEF	; 239
    3a20:	e5 96       	adiw	r28, 0x35	; 53
    3a22:	2f af       	std	Y+63, r18	; 0x3f
    3a24:	e5 97       	sbiw	r28, 0x35	; 53
    3a26:	fd eb       	ldi	r31, 0xBD	; 189
    3a28:	e6 96       	adiw	r28, 0x36	; 54
    3a2a:	ff af       	std	Y+63, r31	; 0x3f
    3a2c:	e6 97       	sbiw	r28, 0x36	; 54
    3a2e:	27 e0       	ldi	r18, 0x07	; 7
    3a30:	e7 96       	adiw	r28, 0x37	; 55
    3a32:	2f af       	std	Y+63, r18	; 0x3f
    3a34:	e7 97       	sbiw	r28, 0x37	; 55
    3a36:	f9 e3       	ldi	r31, 0x39	; 57
    3a38:	e0 96       	adiw	r28, 0x30	; 48
    3a3a:	ff af       	std	Y+63, r31	; 0x3f
    3a3c:	e0 97       	sbiw	r28, 0x30	; 48
    3a3e:	27 ee       	ldi	r18, 0xE7	; 231
    3a40:	e1 96       	adiw	r28, 0x31	; 49
    3a42:	2f af       	std	Y+63, r18	; 0x3f
    3a44:	e1 97       	sbiw	r28, 0x31	; 49
    3a46:	fc e9       	ldi	r31, 0x9C	; 156
    3a48:	e2 96       	adiw	r28, 0x32	; 50
    3a4a:	ff af       	std	Y+63, r31	; 0x3f
    3a4c:	e2 97       	sbiw	r28, 0x32	; 50
    3a4e:	23 e0       	ldi	r18, 0x03	; 3
    3a50:	e3 96       	adiw	r28, 0x33	; 51
    3a52:	2f af       	std	Y+63, r18	; 0x3f
    3a54:	e3 97       	sbiw	r28, 0x33	; 51
    3a56:	f9 e1       	ldi	r31, 0x19	; 25
    3a58:	ac 96       	adiw	r28, 0x2c	; 44
    3a5a:	ff af       	std	Y+63, r31	; 0x3f
    3a5c:	ac 97       	sbiw	r28, 0x2c	; 44
    3a5e:	23 e6       	ldi	r18, 0x63	; 99
    3a60:	ad 96       	adiw	r28, 0x2d	; 45
    3a62:	2f af       	std	Y+63, r18	; 0x3f
    3a64:	ad 97       	sbiw	r28, 0x2d	; 45
    3a66:	fc e8       	ldi	r31, 0x8C	; 140
    3a68:	ae 96       	adiw	r28, 0x2e	; 46
    3a6a:	ff af       	std	Y+63, r31	; 0x3f
    3a6c:	ae 97       	sbiw	r28, 0x2e	; 46
    3a6e:	21 e0       	ldi	r18, 0x01	; 1
    3a70:	af 96       	adiw	r28, 0x2f	; 47
    3a72:	2f af       	std	Y+63, r18	; 0x3f
    3a74:	af 97       	sbiw	r28, 0x2f	; 47
    3a76:	f9 e0       	ldi	r31, 0x09	; 9
    3a78:	fb 87       	std	Y+11, r31	; 0x0b
    3a7a:	21 e2       	ldi	r18, 0x21	; 33
    3a7c:	2c 87       	std	Y+12, r18	; 0x0c
    3a7e:	f4 e8       	ldi	r31, 0x84	; 132
    3a80:	fd 87       	std	Y+13, r31	; 0x0d
    3a82:	1e 86       	std	Y+14, r1	; 0x0e
    3a84:	27 e0       	ldi	r18, 0x07	; 7
    3a86:	c9 59       	subi	r28, 0x99	; 153
    3a88:	de 4f       	sbci	r29, 0xFE	; 254
    3a8a:	28 83       	st	Y, r18
    3a8c:	c7 56       	subi	r28, 0x67	; 103
    3a8e:	d1 40       	sbci	r29, 0x01	; 1
    3a90:	c8 59       	subi	r28, 0x98	; 152
    3a92:	de 4f       	sbci	r29, 0xFE	; 254
    3a94:	18 82       	st	Y, r1
    3a96:	c8 56       	subi	r28, 0x68	; 104
    3a98:	d1 40       	sbci	r29, 0x01	; 1
    3a9a:	c7 59       	subi	r28, 0x97	; 151
    3a9c:	de 4f       	sbci	r29, 0xFE	; 254
    3a9e:	18 82       	st	Y, r1
    3aa0:	c9 56       	subi	r28, 0x69	; 105
    3aa2:	d1 40       	sbci	r29, 0x01	; 1
    3aa4:	c6 59       	subi	r28, 0x96	; 150
    3aa6:	de 4f       	sbci	r29, 0xFE	; 254
    3aa8:	18 82       	st	Y, r1
    3aaa:	ca 56       	subi	r28, 0x6A	; 106
    3aac:	d1 40       	sbci	r29, 0x01	; 1
    3aae:	f3 e0       	ldi	r31, 0x03	; 3
    3ab0:	c9 51       	subi	r28, 0x19	; 25
    3ab2:	df 4f       	sbci	r29, 0xFF	; 255
    3ab4:	f8 83       	st	Y, r31
    3ab6:	c7 5e       	subi	r28, 0xE7	; 231
    3ab8:	d0 40       	sbci	r29, 0x00	; 0
    3aba:	c8 51       	subi	r28, 0x18	; 24
    3abc:	df 4f       	sbci	r29, 0xFF	; 255
    3abe:	18 82       	st	Y, r1
    3ac0:	c8 5e       	subi	r28, 0xE8	; 232
    3ac2:	d0 40       	sbci	r29, 0x00	; 0
    3ac4:	c7 51       	subi	r28, 0x17	; 23
    3ac6:	df 4f       	sbci	r29, 0xFF	; 255
    3ac8:	18 82       	st	Y, r1
    3aca:	c9 5e       	subi	r28, 0xE9	; 233
    3acc:	d0 40       	sbci	r29, 0x00	; 0
    3ace:	c6 51       	subi	r28, 0x16	; 22
    3ad0:	df 4f       	sbci	r29, 0xFF	; 255
    3ad2:	18 82       	st	Y, r1
    3ad4:	ca 5e       	subi	r28, 0xEA	; 234
    3ad6:	d0 40       	sbci	r29, 0x00	; 0
    3ad8:	15 e0       	ldi	r17, 0x05	; 5
    3ada:	b0 e0       	ldi	r27, 0x00	; 0
    3adc:	a0 e0       	ldi	r26, 0x00	; 0
    3ade:	f0 e0       	ldi	r31, 0x00	; 0
    3ae0:	21 e0       	ldi	r18, 0x01	; 1
    3ae2:	a8 96       	adiw	r28, 0x28	; 40
    3ae4:	2f af       	std	Y+63, r18	; 0x3f
    3ae6:	a8 97       	sbiw	r28, 0x28	; 40
    3ae8:	a9 96       	adiw	r28, 0x29	; 41
    3aea:	1f ae       	std	Y+63, r1	; 0x3f
    3aec:	a9 97       	sbiw	r28, 0x29	; 41
    3aee:	aa 96       	adiw	r28, 0x2a	; 42
    3af0:	1f ae       	std	Y+63, r1	; 0x3f
    3af2:	aa 97       	sbiw	r28, 0x2a	; 42
    3af4:	ab 96       	adiw	r28, 0x2b	; 43
    3af6:	1f ae       	std	Y+63, r1	; 0x3f
    3af8:	ab 97       	sbiw	r28, 0x2b	; 43
    3afa:	0c 94 74 0f 	jmp	0x1ee8	; 0x1ee8 <SetSensorConfig+0x1524>
    3afe:	cd 51       	subi	r28, 0x1D	; 29
    3b00:	df 4f       	sbci	r29, 0xFF	; 255
    3b02:	28 81       	ld	r18, Y
    3b04:	c3 5e       	subi	r28, 0xE3	; 227
    3b06:	d0 40       	sbci	r29, 0x00	; 0
    3b08:	2b 87       	std	Y+11, r18	; 0x0b
    3b0a:	cc 51       	subi	r28, 0x1C	; 28
    3b0c:	df 4f       	sbci	r29, 0xFF	; 255
    3b0e:	28 81       	ld	r18, Y
    3b10:	c4 5e       	subi	r28, 0xE4	; 228
    3b12:	d0 40       	sbci	r29, 0x00	; 0
    3b14:	2c 87       	std	Y+12, r18	; 0x0c
    3b16:	cb 51       	subi	r28, 0x1B	; 27
    3b18:	df 4f       	sbci	r29, 0xFF	; 255
    3b1a:	28 81       	ld	r18, Y
    3b1c:	c5 5e       	subi	r28, 0xE5	; 229
    3b1e:	d0 40       	sbci	r29, 0x00	; 0
    3b20:	2d 87       	std	Y+13, r18	; 0x0d
    3b22:	ca 51       	subi	r28, 0x1A	; 26
    3b24:	df 4f       	sbci	r29, 0xFF	; 255
    3b26:	28 81       	ld	r18, Y
    3b28:	c6 5e       	subi	r28, 0xE6	; 230
    3b2a:	d0 40       	sbci	r29, 0x00	; 0
    3b2c:	2e 87       	std	Y+14, r18	; 0x0e
    3b2e:	0c 94 6d 12 	jmp	0x24da	; 0x24da <SetSensorConfig+0x1b16>
    3b32:	cd 59       	subi	r28, 0x9D	; 157
    3b34:	de 4f       	sbci	r29, 0xFE	; 254
    3b36:	48 81       	ld	r20, Y
    3b38:	c3 56       	subi	r28, 0x63	; 99
    3b3a:	d1 40       	sbci	r29, 0x01	; 1
    3b3c:	cc 59       	subi	r28, 0x9C	; 156
    3b3e:	de 4f       	sbci	r29, 0xFE	; 254
    3b40:	38 81       	ld	r19, Y
    3b42:	c4 56       	subi	r28, 0x64	; 100
    3b44:	d1 40       	sbci	r29, 0x01	; 1
    3b46:	cb 59       	subi	r28, 0x9B	; 155
    3b48:	de 4f       	sbci	r29, 0xFE	; 254
    3b4a:	88 81       	ld	r24, Y
    3b4c:	c5 56       	subi	r28, 0x65	; 101
    3b4e:	d1 40       	sbci	r29, 0x01	; 1
    3b50:	ca 59       	subi	r28, 0x9A	; 154
    3b52:	de 4f       	sbci	r29, 0xFE	; 254
    3b54:	98 81       	ld	r25, Y
    3b56:	c6 56       	subi	r28, 0x66	; 102
    3b58:	d1 40       	sbci	r29, 0x01	; 1
    3b5a:	c1 5a       	subi	r28, 0xA1	; 161
    3b5c:	de 4f       	sbci	r29, 0xFE	; 254
    3b5e:	68 81       	ld	r22, Y
    3b60:	cf 55       	subi	r28, 0x5F	; 95
    3b62:	d1 40       	sbci	r29, 0x01	; 1
    3b64:	c0 5a       	subi	r28, 0xA0	; 160
    3b66:	de 4f       	sbci	r29, 0xFE	; 254
    3b68:	78 81       	ld	r23, Y
    3b6a:	c0 56       	subi	r28, 0x60	; 96
    3b6c:	d1 40       	sbci	r29, 0x01	; 1
    3b6e:	cf 59       	subi	r28, 0x9F	; 159
    3b70:	de 4f       	sbci	r29, 0xFE	; 254
    3b72:	b8 80       	ld	r11, Y
    3b74:	c1 56       	subi	r28, 0x61	; 97
    3b76:	d1 40       	sbci	r29, 0x01	; 1
    3b78:	ce 59       	subi	r28, 0x9E	; 158
    3b7a:	de 4f       	sbci	r29, 0xFE	; 254
    3b7c:	c8 80       	ld	r12, Y
    3b7e:	c2 56       	subi	r28, 0x62	; 98
    3b80:	d1 40       	sbci	r29, 0x01	; 1
    3b82:	c5 5a       	subi	r28, 0xA5	; 165
    3b84:	de 4f       	sbci	r29, 0xFE	; 254
    3b86:	58 81       	ld	r21, Y
    3b88:	cb 55       	subi	r28, 0x5B	; 91
    3b8a:	d1 40       	sbci	r29, 0x01	; 1
    3b8c:	5f 83       	std	Y+7, r21	; 0x07
    3b8e:	c4 5a       	subi	r28, 0xA4	; 164
    3b90:	de 4f       	sbci	r29, 0xFE	; 254
    3b92:	f8 81       	ld	r31, Y
    3b94:	cc 55       	subi	r28, 0x5C	; 92
    3b96:	d1 40       	sbci	r29, 0x01	; 1
    3b98:	f8 87       	std	Y+8, r31	; 0x08
    3b9a:	c3 5a       	subi	r28, 0xA3	; 163
    3b9c:	de 4f       	sbci	r29, 0xFE	; 254
    3b9e:	28 81       	ld	r18, Y
    3ba0:	cd 55       	subi	r28, 0x5D	; 93
    3ba2:	d1 40       	sbci	r29, 0x01	; 1
    3ba4:	29 87       	std	Y+9, r18	; 0x09
    3ba6:	c2 5a       	subi	r28, 0xA2	; 162
    3ba8:	de 4f       	sbci	r29, 0xFE	; 254
    3baa:	58 81       	ld	r21, Y
    3bac:	ce 55       	subi	r28, 0x5E	; 94
    3bae:	d1 40       	sbci	r29, 0x01	; 1
    3bb0:	5a 87       	std	Y+10, r21	; 0x0a
    3bb2:	c9 5a       	subi	r28, 0xA9	; 169
    3bb4:	de 4f       	sbci	r29, 0xFE	; 254
    3bb6:	28 80       	ld	r2, Y
    3bb8:	c7 55       	subi	r28, 0x57	; 87
    3bba:	d1 40       	sbci	r29, 0x01	; 1
    3bbc:	c8 5a       	subi	r28, 0xA8	; 168
    3bbe:	de 4f       	sbci	r29, 0xFE	; 254
    3bc0:	38 80       	ld	r3, Y
    3bc2:	c8 55       	subi	r28, 0x58	; 88
    3bc4:	d1 40       	sbci	r29, 0x01	; 1
    3bc6:	c7 5a       	subi	r28, 0xA7	; 167
    3bc8:	de 4f       	sbci	r29, 0xFE	; 254
    3bca:	48 80       	ld	r4, Y
    3bcc:	c9 55       	subi	r28, 0x59	; 89
    3bce:	d1 40       	sbci	r29, 0x01	; 1
    3bd0:	c6 5a       	subi	r28, 0xA6	; 166
    3bd2:	de 4f       	sbci	r29, 0xFE	; 254
    3bd4:	58 80       	ld	r5, Y
    3bd6:	ca 55       	subi	r28, 0x5A	; 90
    3bd8:	d1 40       	sbci	r29, 0x01	; 1
    3bda:	cd 5a       	subi	r28, 0xAD	; 173
    3bdc:	de 4f       	sbci	r29, 0xFE	; 254
    3bde:	68 80       	ld	r6, Y
    3be0:	c3 55       	subi	r28, 0x53	; 83
    3be2:	d1 40       	sbci	r29, 0x01	; 1
    3be4:	cc 5a       	subi	r28, 0xAC	; 172
    3be6:	de 4f       	sbci	r29, 0xFE	; 254
    3be8:	78 80       	ld	r7, Y
    3bea:	c4 55       	subi	r28, 0x54	; 84
    3bec:	d1 40       	sbci	r29, 0x01	; 1
    3bee:	cb 5a       	subi	r28, 0xAB	; 171
    3bf0:	de 4f       	sbci	r29, 0xFE	; 254
    3bf2:	88 80       	ld	r8, Y
    3bf4:	c5 55       	subi	r28, 0x55	; 85
    3bf6:	d1 40       	sbci	r29, 0x01	; 1
    3bf8:	ca 5a       	subi	r28, 0xAA	; 170
    3bfa:	de 4f       	sbci	r29, 0xFE	; 254
    3bfc:	98 80       	ld	r9, Y
    3bfe:	c6 55       	subi	r28, 0x56	; 86
    3c00:	d1 40       	sbci	r29, 0x01	; 1
    3c02:	c1 5b       	subi	r28, 0xB1	; 177
    3c04:	de 4f       	sbci	r29, 0xFE	; 254
    3c06:	e8 81       	ld	r30, Y
    3c08:	cf 54       	subi	r28, 0x4F	; 79
    3c0a:	d1 40       	sbci	r29, 0x01	; 1
    3c0c:	c0 5b       	subi	r28, 0xB0	; 176
    3c0e:	de 4f       	sbci	r29, 0xFE	; 254
    3c10:	58 81       	ld	r21, Y
    3c12:	c0 55       	subi	r28, 0x50	; 80
    3c14:	d1 40       	sbci	r29, 0x01	; 1
    3c16:	cf 5a       	subi	r28, 0xAF	; 175
    3c18:	de 4f       	sbci	r29, 0xFE	; 254
    3c1a:	a8 80       	ld	r10, Y
    3c1c:	c1 55       	subi	r28, 0x51	; 81
    3c1e:	d1 40       	sbci	r29, 0x01	; 1
    3c20:	ce 5a       	subi	r28, 0xAE	; 174
    3c22:	de 4f       	sbci	r29, 0xFE	; 254
    3c24:	f8 81       	ld	r31, Y
    3c26:	c2 55       	subi	r28, 0x52	; 82
    3c28:	d1 40       	sbci	r29, 0x01	; 1
    3c2a:	fe 83       	std	Y+6, r31	; 0x06
    3c2c:	c5 5b       	subi	r28, 0xB5	; 181
    3c2e:	de 4f       	sbci	r29, 0xFE	; 254
    3c30:	28 81       	ld	r18, Y
    3c32:	cb 54       	subi	r28, 0x4B	; 75
    3c34:	d1 40       	sbci	r29, 0x01	; 1
    3c36:	2f a3       	std	Y+39, r18	; 0x27
    3c38:	c4 5b       	subi	r28, 0xB4	; 180
    3c3a:	de 4f       	sbci	r29, 0xFE	; 254
    3c3c:	f8 81       	ld	r31, Y
    3c3e:	cc 54       	subi	r28, 0x4C	; 76
    3c40:	d1 40       	sbci	r29, 0x01	; 1
    3c42:	f8 a7       	std	Y+40, r31	; 0x28
    3c44:	c3 5b       	subi	r28, 0xB3	; 179
    3c46:	de 4f       	sbci	r29, 0xFE	; 254
    3c48:	28 81       	ld	r18, Y
    3c4a:	cd 54       	subi	r28, 0x4D	; 77
    3c4c:	d1 40       	sbci	r29, 0x01	; 1
    3c4e:	29 a7       	std	Y+41, r18	; 0x29
    3c50:	c2 5b       	subi	r28, 0xB2	; 178
    3c52:	de 4f       	sbci	r29, 0xFE	; 254
    3c54:	f8 81       	ld	r31, Y
    3c56:	ce 54       	subi	r28, 0x4E	; 78
    3c58:	d1 40       	sbci	r29, 0x01	; 1
    3c5a:	fa a7       	std	Y+42, r31	; 0x2a
    3c5c:	c9 5b       	subi	r28, 0xB9	; 185
    3c5e:	de 4f       	sbci	r29, 0xFE	; 254
    3c60:	08 81       	ld	r16, Y
    3c62:	c7 54       	subi	r28, 0x47	; 71
    3c64:	d1 40       	sbci	r29, 0x01	; 1
    3c66:	c8 5b       	subi	r28, 0xB8	; 184
    3c68:	de 4f       	sbci	r29, 0xFE	; 254
    3c6a:	f8 80       	ld	r15, Y
    3c6c:	c8 54       	subi	r28, 0x48	; 72
    3c6e:	d1 40       	sbci	r29, 0x01	; 1
    3c70:	c7 5b       	subi	r28, 0xB7	; 183
    3c72:	de 4f       	sbci	r29, 0xFE	; 254
    3c74:	e8 80       	ld	r14, Y
    3c76:	c9 54       	subi	r28, 0x49	; 73
    3c78:	d1 40       	sbci	r29, 0x01	; 1
    3c7a:	c6 5b       	subi	r28, 0xB6	; 182
    3c7c:	de 4f       	sbci	r29, 0xFE	; 254
    3c7e:	d8 80       	ld	r13, Y
    3c80:	ca 54       	subi	r28, 0x4A	; 74
    3c82:	d1 40       	sbci	r29, 0x01	; 1
    3c84:	cd 5b       	subi	r28, 0xBD	; 189
    3c86:	de 4f       	sbci	r29, 0xFE	; 254
    3c88:	28 81       	ld	r18, Y
    3c8a:	c3 54       	subi	r28, 0x43	; 67
    3c8c:	d1 40       	sbci	r29, 0x01	; 1
    3c8e:	2b a3       	std	Y+35, r18	; 0x23
    3c90:	cc 5b       	subi	r28, 0xBC	; 188
    3c92:	de 4f       	sbci	r29, 0xFE	; 254
    3c94:	f8 81       	ld	r31, Y
    3c96:	c4 54       	subi	r28, 0x44	; 68
    3c98:	d1 40       	sbci	r29, 0x01	; 1
    3c9a:	fc a3       	std	Y+36, r31	; 0x24
    3c9c:	cb 5b       	subi	r28, 0xBB	; 187
    3c9e:	de 4f       	sbci	r29, 0xFE	; 254
    3ca0:	28 81       	ld	r18, Y
    3ca2:	c5 54       	subi	r28, 0x45	; 69
    3ca4:	d1 40       	sbci	r29, 0x01	; 1
    3ca6:	2d a3       	std	Y+37, r18	; 0x25
    3ca8:	ca 5b       	subi	r28, 0xBA	; 186
    3caa:	de 4f       	sbci	r29, 0xFE	; 254
    3cac:	f8 81       	ld	r31, Y
    3cae:	c6 54       	subi	r28, 0x46	; 70
    3cb0:	d1 40       	sbci	r29, 0x01	; 1
    3cb2:	fe a3       	std	Y+38, r31	; 0x26
    3cb4:	c1 5c       	subi	r28, 0xC1	; 193
    3cb6:	de 4f       	sbci	r29, 0xFE	; 254
    3cb8:	28 81       	ld	r18, Y
    3cba:	cf 53       	subi	r28, 0x3F	; 63
    3cbc:	d1 40       	sbci	r29, 0x01	; 1
    3cbe:	2f 8f       	std	Y+31, r18	; 0x1f
    3cc0:	c0 5c       	subi	r28, 0xC0	; 192
    3cc2:	de 4f       	sbci	r29, 0xFE	; 254
    3cc4:	f8 81       	ld	r31, Y
    3cc6:	c0 54       	subi	r28, 0x40	; 64
    3cc8:	d1 40       	sbci	r29, 0x01	; 1
    3cca:	f8 a3       	std	Y+32, r31	; 0x20
    3ccc:	cf 5b       	subi	r28, 0xBF	; 191
    3cce:	de 4f       	sbci	r29, 0xFE	; 254
    3cd0:	28 81       	ld	r18, Y
    3cd2:	c1 54       	subi	r28, 0x41	; 65
    3cd4:	d1 40       	sbci	r29, 0x01	; 1
    3cd6:	29 a3       	std	Y+33, r18	; 0x21
    3cd8:	ce 5b       	subi	r28, 0xBE	; 190
    3cda:	de 4f       	sbci	r29, 0xFE	; 254
    3cdc:	f8 81       	ld	r31, Y
    3cde:	c2 54       	subi	r28, 0x42	; 66
    3ce0:	d1 40       	sbci	r29, 0x01	; 1
    3ce2:	fa a3       	std	Y+34, r31	; 0x22
    3ce4:	c5 5c       	subi	r28, 0xC5	; 197
    3ce6:	de 4f       	sbci	r29, 0xFE	; 254
    3ce8:	28 81       	ld	r18, Y
    3cea:	cb 53       	subi	r28, 0x3B	; 59
    3cec:	d1 40       	sbci	r29, 0x01	; 1
    3cee:	2b 8f       	std	Y+27, r18	; 0x1b
    3cf0:	c4 5c       	subi	r28, 0xC4	; 196
    3cf2:	de 4f       	sbci	r29, 0xFE	; 254
    3cf4:	f8 81       	ld	r31, Y
    3cf6:	cc 53       	subi	r28, 0x3C	; 60
    3cf8:	d1 40       	sbci	r29, 0x01	; 1
    3cfa:	fc 8f       	std	Y+28, r31	; 0x1c
    3cfc:	c3 5c       	subi	r28, 0xC3	; 195
    3cfe:	de 4f       	sbci	r29, 0xFE	; 254
    3d00:	28 81       	ld	r18, Y
    3d02:	cd 53       	subi	r28, 0x3D	; 61
    3d04:	d1 40       	sbci	r29, 0x01	; 1
    3d06:	2d 8f       	std	Y+29, r18	; 0x1d
    3d08:	c2 5c       	subi	r28, 0xC2	; 194
    3d0a:	de 4f       	sbci	r29, 0xFE	; 254
    3d0c:	f8 81       	ld	r31, Y
    3d0e:	ce 53       	subi	r28, 0x3E	; 62
    3d10:	d1 40       	sbci	r29, 0x01	; 1
    3d12:	fe 8f       	std	Y+30, r31	; 0x1e
    3d14:	c9 5c       	subi	r28, 0xC9	; 201
    3d16:	de 4f       	sbci	r29, 0xFE	; 254
    3d18:	28 81       	ld	r18, Y
    3d1a:	c7 53       	subi	r28, 0x37	; 55
    3d1c:	d1 40       	sbci	r29, 0x01	; 1
    3d1e:	2f 8b       	std	Y+23, r18	; 0x17
    3d20:	c8 5c       	subi	r28, 0xC8	; 200
    3d22:	de 4f       	sbci	r29, 0xFE	; 254
    3d24:	f8 81       	ld	r31, Y
    3d26:	c8 53       	subi	r28, 0x38	; 56
    3d28:	d1 40       	sbci	r29, 0x01	; 1
    3d2a:	f8 8f       	std	Y+24, r31	; 0x18
    3d2c:	c7 5c       	subi	r28, 0xC7	; 199
    3d2e:	de 4f       	sbci	r29, 0xFE	; 254
    3d30:	28 81       	ld	r18, Y
    3d32:	c9 53       	subi	r28, 0x39	; 57
    3d34:	d1 40       	sbci	r29, 0x01	; 1
    3d36:	29 8f       	std	Y+25, r18	; 0x19
    3d38:	c6 5c       	subi	r28, 0xC6	; 198
    3d3a:	de 4f       	sbci	r29, 0xFE	; 254
    3d3c:	f8 81       	ld	r31, Y
    3d3e:	ca 53       	subi	r28, 0x3A	; 58
    3d40:	d1 40       	sbci	r29, 0x01	; 1
    3d42:	fa 8f       	std	Y+26, r31	; 0x1a
    3d44:	cd 5c       	subi	r28, 0xCD	; 205
    3d46:	de 4f       	sbci	r29, 0xFE	; 254
    3d48:	28 81       	ld	r18, Y
    3d4a:	c3 53       	subi	r28, 0x33	; 51
    3d4c:	d1 40       	sbci	r29, 0x01	; 1
    3d4e:	2b 8b       	std	Y+19, r18	; 0x13
    3d50:	cc 5c       	subi	r28, 0xCC	; 204
    3d52:	de 4f       	sbci	r29, 0xFE	; 254
    3d54:	f8 81       	ld	r31, Y
    3d56:	c4 53       	subi	r28, 0x34	; 52
    3d58:	d1 40       	sbci	r29, 0x01	; 1
    3d5a:	fc 8b       	std	Y+20, r31	; 0x14
    3d5c:	cb 5c       	subi	r28, 0xCB	; 203
    3d5e:	de 4f       	sbci	r29, 0xFE	; 254
    3d60:	28 81       	ld	r18, Y
    3d62:	c5 53       	subi	r28, 0x35	; 53
    3d64:	d1 40       	sbci	r29, 0x01	; 1
    3d66:	2d 8b       	std	Y+21, r18	; 0x15
    3d68:	ca 5c       	subi	r28, 0xCA	; 202
    3d6a:	de 4f       	sbci	r29, 0xFE	; 254
    3d6c:	f8 81       	ld	r31, Y
    3d6e:	c6 53       	subi	r28, 0x36	; 54
    3d70:	d1 40       	sbci	r29, 0x01	; 1
    3d72:	fe 8b       	std	Y+22, r31	; 0x16
    3d74:	c1 5d       	subi	r28, 0xD1	; 209
    3d76:	de 4f       	sbci	r29, 0xFE	; 254
    3d78:	28 81       	ld	r18, Y
    3d7a:	cf 52       	subi	r28, 0x2F	; 47
    3d7c:	d1 40       	sbci	r29, 0x01	; 1
    3d7e:	2f 87       	std	Y+15, r18	; 0x0f
    3d80:	c0 5d       	subi	r28, 0xD0	; 208
    3d82:	de 4f       	sbci	r29, 0xFE	; 254
    3d84:	f8 81       	ld	r31, Y
    3d86:	c0 53       	subi	r28, 0x30	; 48
    3d88:	d1 40       	sbci	r29, 0x01	; 1
    3d8a:	f8 8b       	std	Y+16, r31	; 0x10
    3d8c:	cf 5c       	subi	r28, 0xCF	; 207
    3d8e:	de 4f       	sbci	r29, 0xFE	; 254
    3d90:	28 81       	ld	r18, Y
    3d92:	c1 53       	subi	r28, 0x31	; 49
    3d94:	d1 40       	sbci	r29, 0x01	; 1
    3d96:	29 8b       	std	Y+17, r18	; 0x11
    3d98:	ce 5c       	subi	r28, 0xCE	; 206
    3d9a:	de 4f       	sbci	r29, 0xFE	; 254
    3d9c:	f8 81       	ld	r31, Y
    3d9e:	c2 53       	subi	r28, 0x32	; 50
    3da0:	d1 40       	sbci	r29, 0x01	; 1
    3da2:	fa 8b       	std	Y+18, r31	; 0x12
    3da4:	c5 5d       	subi	r28, 0xD5	; 213
    3da6:	de 4f       	sbci	r29, 0xFE	; 254
    3da8:	28 81       	ld	r18, Y
    3daa:	cb 52       	subi	r28, 0x2B	; 43
    3dac:	d1 40       	sbci	r29, 0x01	; 1
    3dae:	2a 83       	std	Y+2, r18	; 0x02
    3db0:	c4 5d       	subi	r28, 0xD4	; 212
    3db2:	de 4f       	sbci	r29, 0xFE	; 254
    3db4:	f8 81       	ld	r31, Y
    3db6:	cc 52       	subi	r28, 0x2C	; 44
    3db8:	d1 40       	sbci	r29, 0x01	; 1
    3dba:	fb 83       	std	Y+3, r31	; 0x03
    3dbc:	c3 5d       	subi	r28, 0xD3	; 211
    3dbe:	de 4f       	sbci	r29, 0xFE	; 254
    3dc0:	28 81       	ld	r18, Y
    3dc2:	cd 52       	subi	r28, 0x2D	; 45
    3dc4:	d1 40       	sbci	r29, 0x01	; 1
    3dc6:	2c 83       	std	Y+4, r18	; 0x04
    3dc8:	c2 5d       	subi	r28, 0xD2	; 210
    3dca:	de 4f       	sbci	r29, 0xFE	; 254
    3dcc:	f8 81       	ld	r31, Y
    3dce:	ce 52       	subi	r28, 0x2E	; 46
    3dd0:	d1 40       	sbci	r29, 0x01	; 1
    3dd2:	fd 83       	std	Y+5, r31	; 0x05
    3dd4:	c9 5d       	subi	r28, 0xD9	; 217
    3dd6:	de 4f       	sbci	r29, 0xFE	; 254
    3dd8:	28 81       	ld	r18, Y
    3dda:	c7 52       	subi	r28, 0x27	; 39
    3ddc:	d1 40       	sbci	r29, 0x01	; 1
    3dde:	a4 96       	adiw	r28, 0x24	; 36
    3de0:	2f af       	std	Y+63, r18	; 0x3f
    3de2:	a4 97       	sbiw	r28, 0x24	; 36
    3de4:	c8 5d       	subi	r28, 0xD8	; 216
    3de6:	de 4f       	sbci	r29, 0xFE	; 254
    3de8:	f8 81       	ld	r31, Y
    3dea:	c8 52       	subi	r28, 0x28	; 40
    3dec:	d1 40       	sbci	r29, 0x01	; 1
    3dee:	a5 96       	adiw	r28, 0x25	; 37
    3df0:	ff af       	std	Y+63, r31	; 0x3f
    3df2:	a5 97       	sbiw	r28, 0x25	; 37
    3df4:	c7 5d       	subi	r28, 0xD7	; 215
    3df6:	de 4f       	sbci	r29, 0xFE	; 254
    3df8:	28 81       	ld	r18, Y
    3dfa:	c9 52       	subi	r28, 0x29	; 41
    3dfc:	d1 40       	sbci	r29, 0x01	; 1
    3dfe:	a6 96       	adiw	r28, 0x26	; 38
    3e00:	2f af       	std	Y+63, r18	; 0x3f
    3e02:	a6 97       	sbiw	r28, 0x26	; 38
    3e04:	c6 5d       	subi	r28, 0xD6	; 214
    3e06:	de 4f       	sbci	r29, 0xFE	; 254
    3e08:	f8 81       	ld	r31, Y
    3e0a:	ca 52       	subi	r28, 0x2A	; 42
    3e0c:	d1 40       	sbci	r29, 0x01	; 1
    3e0e:	a7 96       	adiw	r28, 0x27	; 39
    3e10:	ff af       	std	Y+63, r31	; 0x3f
    3e12:	a7 97       	sbiw	r28, 0x27	; 39
    3e14:	cd 5d       	subi	r28, 0xDD	; 221
    3e16:	de 4f       	sbci	r29, 0xFE	; 254
    3e18:	28 81       	ld	r18, Y
    3e1a:	c3 52       	subi	r28, 0x23	; 35
    3e1c:	d1 40       	sbci	r29, 0x01	; 1
    3e1e:	a0 96       	adiw	r28, 0x20	; 32
    3e20:	2f af       	std	Y+63, r18	; 0x3f
    3e22:	a0 97       	sbiw	r28, 0x20	; 32
    3e24:	cc 5d       	subi	r28, 0xDC	; 220
    3e26:	de 4f       	sbci	r29, 0xFE	; 254
    3e28:	f8 81       	ld	r31, Y
    3e2a:	c4 52       	subi	r28, 0x24	; 36
    3e2c:	d1 40       	sbci	r29, 0x01	; 1
    3e2e:	a1 96       	adiw	r28, 0x21	; 33
    3e30:	ff af       	std	Y+63, r31	; 0x3f
    3e32:	a1 97       	sbiw	r28, 0x21	; 33
    3e34:	cb 5d       	subi	r28, 0xDB	; 219
    3e36:	de 4f       	sbci	r29, 0xFE	; 254
    3e38:	28 81       	ld	r18, Y
    3e3a:	c5 52       	subi	r28, 0x25	; 37
    3e3c:	d1 40       	sbci	r29, 0x01	; 1
    3e3e:	a2 96       	adiw	r28, 0x22	; 34
    3e40:	2f af       	std	Y+63, r18	; 0x3f
    3e42:	a2 97       	sbiw	r28, 0x22	; 34
    3e44:	ca 5d       	subi	r28, 0xDA	; 218
    3e46:	de 4f       	sbci	r29, 0xFE	; 254
    3e48:	f8 81       	ld	r31, Y
    3e4a:	c6 52       	subi	r28, 0x26	; 38
    3e4c:	d1 40       	sbci	r29, 0x01	; 1
    3e4e:	a3 96       	adiw	r28, 0x23	; 35
    3e50:	ff af       	std	Y+63, r31	; 0x3f
    3e52:	a3 97       	sbiw	r28, 0x23	; 35
    3e54:	c1 5e       	subi	r28, 0xE1	; 225
    3e56:	de 4f       	sbci	r29, 0xFE	; 254
    3e58:	28 81       	ld	r18, Y
    3e5a:	cf 51       	subi	r28, 0x1F	; 31
    3e5c:	d1 40       	sbci	r29, 0x01	; 1
    3e5e:	6c 96       	adiw	r28, 0x1c	; 28
    3e60:	2f af       	std	Y+63, r18	; 0x3f
    3e62:	6c 97       	sbiw	r28, 0x1c	; 28
    3e64:	c0 5e       	subi	r28, 0xE0	; 224
    3e66:	de 4f       	sbci	r29, 0xFE	; 254
    3e68:	f8 81       	ld	r31, Y
    3e6a:	c0 52       	subi	r28, 0x20	; 32
    3e6c:	d1 40       	sbci	r29, 0x01	; 1
    3e6e:	6d 96       	adiw	r28, 0x1d	; 29
    3e70:	ff af       	std	Y+63, r31	; 0x3f
    3e72:	6d 97       	sbiw	r28, 0x1d	; 29
    3e74:	cf 5d       	subi	r28, 0xDF	; 223
    3e76:	de 4f       	sbci	r29, 0xFE	; 254
    3e78:	28 81       	ld	r18, Y
    3e7a:	c1 52       	subi	r28, 0x21	; 33
    3e7c:	d1 40       	sbci	r29, 0x01	; 1
    3e7e:	6e 96       	adiw	r28, 0x1e	; 30
    3e80:	2f af       	std	Y+63, r18	; 0x3f
    3e82:	6e 97       	sbiw	r28, 0x1e	; 30
    3e84:	ce 5d       	subi	r28, 0xDE	; 222
    3e86:	de 4f       	sbci	r29, 0xFE	; 254
    3e88:	f8 81       	ld	r31, Y
    3e8a:	c2 52       	subi	r28, 0x22	; 34
    3e8c:	d1 40       	sbci	r29, 0x01	; 1
    3e8e:	6f 96       	adiw	r28, 0x1f	; 31
    3e90:	ff af       	std	Y+63, r31	; 0x3f
    3e92:	6f 97       	sbiw	r28, 0x1f	; 31
    3e94:	c5 5e       	subi	r28, 0xE5	; 229
    3e96:	de 4f       	sbci	r29, 0xFE	; 254
    3e98:	28 81       	ld	r18, Y
    3e9a:	cb 51       	subi	r28, 0x1B	; 27
    3e9c:	d1 40       	sbci	r29, 0x01	; 1
    3e9e:	68 96       	adiw	r28, 0x18	; 24
    3ea0:	2f af       	std	Y+63, r18	; 0x3f
    3ea2:	68 97       	sbiw	r28, 0x18	; 24
    3ea4:	c4 5e       	subi	r28, 0xE4	; 228
    3ea6:	de 4f       	sbci	r29, 0xFE	; 254
    3ea8:	f8 81       	ld	r31, Y
    3eaa:	cc 51       	subi	r28, 0x1C	; 28
    3eac:	d1 40       	sbci	r29, 0x01	; 1
    3eae:	69 96       	adiw	r28, 0x19	; 25
    3eb0:	ff af       	std	Y+63, r31	; 0x3f
    3eb2:	69 97       	sbiw	r28, 0x19	; 25
    3eb4:	c3 5e       	subi	r28, 0xE3	; 227
    3eb6:	de 4f       	sbci	r29, 0xFE	; 254
    3eb8:	28 81       	ld	r18, Y
    3eba:	cd 51       	subi	r28, 0x1D	; 29
    3ebc:	d1 40       	sbci	r29, 0x01	; 1
    3ebe:	6a 96       	adiw	r28, 0x1a	; 26
    3ec0:	2f af       	std	Y+63, r18	; 0x3f
    3ec2:	6a 97       	sbiw	r28, 0x1a	; 26
    3ec4:	c2 5e       	subi	r28, 0xE2	; 226
    3ec6:	de 4f       	sbci	r29, 0xFE	; 254
    3ec8:	f8 81       	ld	r31, Y
    3eca:	ce 51       	subi	r28, 0x1E	; 30
    3ecc:	d1 40       	sbci	r29, 0x01	; 1
    3ece:	6b 96       	adiw	r28, 0x1b	; 27
    3ed0:	ff af       	std	Y+63, r31	; 0x3f
    3ed2:	6b 97       	sbiw	r28, 0x1b	; 27
    3ed4:	c9 5e       	subi	r28, 0xE9	; 233
    3ed6:	de 4f       	sbci	r29, 0xFE	; 254
    3ed8:	28 81       	ld	r18, Y
    3eda:	c7 51       	subi	r28, 0x17	; 23
    3edc:	d1 40       	sbci	r29, 0x01	; 1
    3ede:	64 96       	adiw	r28, 0x14	; 20
    3ee0:	2f af       	std	Y+63, r18	; 0x3f
    3ee2:	64 97       	sbiw	r28, 0x14	; 20
    3ee4:	c8 5e       	subi	r28, 0xE8	; 232
    3ee6:	de 4f       	sbci	r29, 0xFE	; 254
    3ee8:	f8 81       	ld	r31, Y
    3eea:	c8 51       	subi	r28, 0x18	; 24
    3eec:	d1 40       	sbci	r29, 0x01	; 1
    3eee:	65 96       	adiw	r28, 0x15	; 21
    3ef0:	ff af       	std	Y+63, r31	; 0x3f
    3ef2:	65 97       	sbiw	r28, 0x15	; 21
    3ef4:	c7 5e       	subi	r28, 0xE7	; 231
    3ef6:	de 4f       	sbci	r29, 0xFE	; 254
    3ef8:	28 81       	ld	r18, Y
    3efa:	c9 51       	subi	r28, 0x19	; 25
    3efc:	d1 40       	sbci	r29, 0x01	; 1
    3efe:	66 96       	adiw	r28, 0x16	; 22
    3f00:	2f af       	std	Y+63, r18	; 0x3f
    3f02:	66 97       	sbiw	r28, 0x16	; 22
    3f04:	c6 5e       	subi	r28, 0xE6	; 230
    3f06:	de 4f       	sbci	r29, 0xFE	; 254
    3f08:	f8 81       	ld	r31, Y
    3f0a:	ca 51       	subi	r28, 0x1A	; 26
    3f0c:	d1 40       	sbci	r29, 0x01	; 1
    3f0e:	67 96       	adiw	r28, 0x17	; 23
    3f10:	ff af       	std	Y+63, r31	; 0x3f
    3f12:	67 97       	sbiw	r28, 0x17	; 23
    3f14:	cd 5e       	subi	r28, 0xED	; 237
    3f16:	de 4f       	sbci	r29, 0xFE	; 254
    3f18:	28 81       	ld	r18, Y
    3f1a:	c3 51       	subi	r28, 0x13	; 19
    3f1c:	d1 40       	sbci	r29, 0x01	; 1
    3f1e:	60 96       	adiw	r28, 0x10	; 16
    3f20:	2f af       	std	Y+63, r18	; 0x3f
    3f22:	60 97       	sbiw	r28, 0x10	; 16
    3f24:	cc 5e       	subi	r28, 0xEC	; 236
    3f26:	de 4f       	sbci	r29, 0xFE	; 254
    3f28:	f8 81       	ld	r31, Y
    3f2a:	c4 51       	subi	r28, 0x14	; 20
    3f2c:	d1 40       	sbci	r29, 0x01	; 1
    3f2e:	61 96       	adiw	r28, 0x11	; 17
    3f30:	ff af       	std	Y+63, r31	; 0x3f
    3f32:	61 97       	sbiw	r28, 0x11	; 17
    3f34:	cb 5e       	subi	r28, 0xEB	; 235
    3f36:	de 4f       	sbci	r29, 0xFE	; 254
    3f38:	28 81       	ld	r18, Y
    3f3a:	c5 51       	subi	r28, 0x15	; 21
    3f3c:	d1 40       	sbci	r29, 0x01	; 1
    3f3e:	62 96       	adiw	r28, 0x12	; 18
    3f40:	2f af       	std	Y+63, r18	; 0x3f
    3f42:	62 97       	sbiw	r28, 0x12	; 18
    3f44:	ca 5e       	subi	r28, 0xEA	; 234
    3f46:	de 4f       	sbci	r29, 0xFE	; 254
    3f48:	f8 81       	ld	r31, Y
    3f4a:	c6 51       	subi	r28, 0x16	; 22
    3f4c:	d1 40       	sbci	r29, 0x01	; 1
    3f4e:	63 96       	adiw	r28, 0x13	; 19
    3f50:	ff af       	std	Y+63, r31	; 0x3f
    3f52:	63 97       	sbiw	r28, 0x13	; 19
    3f54:	c1 5f       	subi	r28, 0xF1	; 241
    3f56:	de 4f       	sbci	r29, 0xFE	; 254
    3f58:	28 81       	ld	r18, Y
    3f5a:	cf 50       	subi	r28, 0x0F	; 15
    3f5c:	d1 40       	sbci	r29, 0x01	; 1
    3f5e:	2c 96       	adiw	r28, 0x0c	; 12
    3f60:	2f af       	std	Y+63, r18	; 0x3f
    3f62:	2c 97       	sbiw	r28, 0x0c	; 12
    3f64:	c0 5f       	subi	r28, 0xF0	; 240
    3f66:	de 4f       	sbci	r29, 0xFE	; 254
    3f68:	f8 81       	ld	r31, Y
    3f6a:	c0 51       	subi	r28, 0x10	; 16
    3f6c:	d1 40       	sbci	r29, 0x01	; 1
    3f6e:	2d 96       	adiw	r28, 0x0d	; 13
    3f70:	ff af       	std	Y+63, r31	; 0x3f
    3f72:	2d 97       	sbiw	r28, 0x0d	; 13
    3f74:	cf 5e       	subi	r28, 0xEF	; 239
    3f76:	de 4f       	sbci	r29, 0xFE	; 254
    3f78:	28 81       	ld	r18, Y
    3f7a:	c1 51       	subi	r28, 0x11	; 17
    3f7c:	d1 40       	sbci	r29, 0x01	; 1
    3f7e:	2e 96       	adiw	r28, 0x0e	; 14
    3f80:	2f af       	std	Y+63, r18	; 0x3f
    3f82:	2e 97       	sbiw	r28, 0x0e	; 14
    3f84:	ce 5e       	subi	r28, 0xEE	; 238
    3f86:	de 4f       	sbci	r29, 0xFE	; 254
    3f88:	f8 81       	ld	r31, Y
    3f8a:	c2 51       	subi	r28, 0x12	; 18
    3f8c:	d1 40       	sbci	r29, 0x01	; 1
    3f8e:	2f 96       	adiw	r28, 0x0f	; 15
    3f90:	ff af       	std	Y+63, r31	; 0x3f
    3f92:	2f 97       	sbiw	r28, 0x0f	; 15
    3f94:	c5 5f       	subi	r28, 0xF5	; 245
    3f96:	de 4f       	sbci	r29, 0xFE	; 254
    3f98:	28 81       	ld	r18, Y
    3f9a:	cb 50       	subi	r28, 0x0B	; 11
    3f9c:	d1 40       	sbci	r29, 0x01	; 1
    3f9e:	28 96       	adiw	r28, 0x08	; 8
    3fa0:	2f af       	std	Y+63, r18	; 0x3f
    3fa2:	28 97       	sbiw	r28, 0x08	; 8
    3fa4:	c4 5f       	subi	r28, 0xF4	; 244
    3fa6:	de 4f       	sbci	r29, 0xFE	; 254
    3fa8:	f8 81       	ld	r31, Y
    3faa:	cc 50       	subi	r28, 0x0C	; 12
    3fac:	d1 40       	sbci	r29, 0x01	; 1
    3fae:	29 96       	adiw	r28, 0x09	; 9
    3fb0:	ff af       	std	Y+63, r31	; 0x3f
    3fb2:	29 97       	sbiw	r28, 0x09	; 9
    3fb4:	c3 5f       	subi	r28, 0xF3	; 243
    3fb6:	de 4f       	sbci	r29, 0xFE	; 254
    3fb8:	28 81       	ld	r18, Y
    3fba:	cd 50       	subi	r28, 0x0D	; 13
    3fbc:	d1 40       	sbci	r29, 0x01	; 1
    3fbe:	2a 96       	adiw	r28, 0x0a	; 10
    3fc0:	2f af       	std	Y+63, r18	; 0x3f
    3fc2:	2a 97       	sbiw	r28, 0x0a	; 10
    3fc4:	c2 5f       	subi	r28, 0xF2	; 242
    3fc6:	de 4f       	sbci	r29, 0xFE	; 254
    3fc8:	f8 81       	ld	r31, Y
    3fca:	ce 50       	subi	r28, 0x0E	; 14
    3fcc:	d1 40       	sbci	r29, 0x01	; 1
    3fce:	2b 96       	adiw	r28, 0x0b	; 11
    3fd0:	ff af       	std	Y+63, r31	; 0x3f
    3fd2:	2b 97       	sbiw	r28, 0x0b	; 11
    3fd4:	c9 5f       	subi	r28, 0xF9	; 249
    3fd6:	de 4f       	sbci	r29, 0xFE	; 254
    3fd8:	28 81       	ld	r18, Y
    3fda:	c7 50       	subi	r28, 0x07	; 7
    3fdc:	d1 40       	sbci	r29, 0x01	; 1
    3fde:	24 96       	adiw	r28, 0x04	; 4
    3fe0:	2f af       	std	Y+63, r18	; 0x3f
    3fe2:	24 97       	sbiw	r28, 0x04	; 4
    3fe4:	c8 5f       	subi	r28, 0xF8	; 248
    3fe6:	de 4f       	sbci	r29, 0xFE	; 254
    3fe8:	f8 81       	ld	r31, Y
    3fea:	c8 50       	subi	r28, 0x08	; 8
    3fec:	d1 40       	sbci	r29, 0x01	; 1
    3fee:	25 96       	adiw	r28, 0x05	; 5
    3ff0:	ff af       	std	Y+63, r31	; 0x3f
    3ff2:	25 97       	sbiw	r28, 0x05	; 5
    3ff4:	c7 5f       	subi	r28, 0xF7	; 247
    3ff6:	de 4f       	sbci	r29, 0xFE	; 254
    3ff8:	28 81       	ld	r18, Y
    3ffa:	c9 50       	subi	r28, 0x09	; 9
    3ffc:	d1 40       	sbci	r29, 0x01	; 1
    3ffe:	26 96       	adiw	r28, 0x06	; 6
    4000:	2f af       	std	Y+63, r18	; 0x3f
    4002:	26 97       	sbiw	r28, 0x06	; 6
    4004:	c6 5f       	subi	r28, 0xF6	; 246
    4006:	de 4f       	sbci	r29, 0xFE	; 254
    4008:	f8 81       	ld	r31, Y
    400a:	ca 50       	subi	r28, 0x0A	; 10
    400c:	d1 40       	sbci	r29, 0x01	; 1
    400e:	27 96       	adiw	r28, 0x07	; 7
    4010:	ff af       	std	Y+63, r31	; 0x3f
    4012:	27 97       	sbiw	r28, 0x07	; 7
    4014:	cd 5f       	subi	r28, 0xFD	; 253
    4016:	de 4f       	sbci	r29, 0xFE	; 254
    4018:	28 81       	ld	r18, Y
    401a:	c3 50       	subi	r28, 0x03	; 3
    401c:	d1 40       	sbci	r29, 0x01	; 1
    401e:	2f af       	std	Y+63, r18	; 0x3f
    4020:	cc 5f       	subi	r28, 0xFC	; 252
    4022:	de 4f       	sbci	r29, 0xFE	; 254
    4024:	f8 81       	ld	r31, Y
    4026:	c4 50       	subi	r28, 0x04	; 4
    4028:	d1 40       	sbci	r29, 0x01	; 1
    402a:	21 96       	adiw	r28, 0x01	; 1
    402c:	ff af       	std	Y+63, r31	; 0x3f
    402e:	21 97       	sbiw	r28, 0x01	; 1
    4030:	cb 5f       	subi	r28, 0xFB	; 251
    4032:	de 4f       	sbci	r29, 0xFE	; 254
    4034:	28 81       	ld	r18, Y
    4036:	c5 50       	subi	r28, 0x05	; 5
    4038:	d1 40       	sbci	r29, 0x01	; 1
    403a:	22 96       	adiw	r28, 0x02	; 2
    403c:	2f af       	std	Y+63, r18	; 0x3f
    403e:	22 97       	sbiw	r28, 0x02	; 2
    4040:	ca 5f       	subi	r28, 0xFA	; 250
    4042:	de 4f       	sbci	r29, 0xFE	; 254
    4044:	f8 81       	ld	r31, Y
    4046:	c6 50       	subi	r28, 0x06	; 6
    4048:	d1 40       	sbci	r29, 0x01	; 1
    404a:	23 96       	adiw	r28, 0x03	; 3
    404c:	ff af       	std	Y+63, r31	; 0x3f
    404e:	23 97       	sbiw	r28, 0x03	; 3
    4050:	c1 50       	subi	r28, 0x01	; 1
    4052:	df 4f       	sbci	r29, 0xFF	; 255
    4054:	28 81       	ld	r18, Y
    4056:	cf 5f       	subi	r28, 0xFF	; 255
    4058:	d0 40       	sbci	r29, 0x00	; 0
    405a:	2b af       	std	Y+59, r18	; 0x3b
    405c:	c0 50       	subi	r28, 0x00	; 0
    405e:	df 4f       	sbci	r29, 0xFF	; 255
    4060:	f8 81       	ld	r31, Y
    4062:	c0 50       	subi	r28, 0x00	; 0
    4064:	d1 40       	sbci	r29, 0x01	; 1
    4066:	fc af       	std	Y+60, r31	; 0x3c
    4068:	cf 5f       	subi	r28, 0xFF	; 255
    406a:	de 4f       	sbci	r29, 0xFE	; 254
    406c:	28 81       	ld	r18, Y
    406e:	c1 50       	subi	r28, 0x01	; 1
    4070:	d1 40       	sbci	r29, 0x01	; 1
    4072:	2d af       	std	Y+61, r18	; 0x3d
    4074:	ce 5f       	subi	r28, 0xFE	; 254
    4076:	de 4f       	sbci	r29, 0xFE	; 254
    4078:	f8 81       	ld	r31, Y
    407a:	c2 50       	subi	r28, 0x02	; 2
    407c:	d1 40       	sbci	r29, 0x01	; 1
    407e:	fe af       	std	Y+62, r31	; 0x3e
    4080:	c5 50       	subi	r28, 0x05	; 5
    4082:	df 4f       	sbci	r29, 0xFF	; 255
    4084:	28 81       	ld	r18, Y
    4086:	cb 5f       	subi	r28, 0xFB	; 251
    4088:	d0 40       	sbci	r29, 0x00	; 0
    408a:	2f ab       	std	Y+55, r18	; 0x37
    408c:	c4 50       	subi	r28, 0x04	; 4
    408e:	df 4f       	sbci	r29, 0xFF	; 255
    4090:	f8 81       	ld	r31, Y
    4092:	cc 5f       	subi	r28, 0xFC	; 252
    4094:	d0 40       	sbci	r29, 0x00	; 0
    4096:	f8 af       	std	Y+56, r31	; 0x38
    4098:	c3 50       	subi	r28, 0x03	; 3
    409a:	df 4f       	sbci	r29, 0xFF	; 255
    409c:	28 81       	ld	r18, Y
    409e:	cd 5f       	subi	r28, 0xFD	; 253
    40a0:	d0 40       	sbci	r29, 0x00	; 0
    40a2:	29 af       	std	Y+57, r18	; 0x39
    40a4:	c2 50       	subi	r28, 0x02	; 2
    40a6:	df 4f       	sbci	r29, 0xFF	; 255
    40a8:	f8 81       	ld	r31, Y
    40aa:	ce 5f       	subi	r28, 0xFE	; 254
    40ac:	d0 40       	sbci	r29, 0x00	; 0
    40ae:	fa af       	std	Y+58, r31	; 0x3a
    40b0:	c9 50       	subi	r28, 0x09	; 9
    40b2:	df 4f       	sbci	r29, 0xFF	; 255
    40b4:	28 81       	ld	r18, Y
    40b6:	c7 5f       	subi	r28, 0xF7	; 247
    40b8:	d0 40       	sbci	r29, 0x00	; 0
    40ba:	2b ab       	std	Y+51, r18	; 0x33
    40bc:	c8 50       	subi	r28, 0x08	; 8
    40be:	df 4f       	sbci	r29, 0xFF	; 255
    40c0:	f8 81       	ld	r31, Y
    40c2:	c8 5f       	subi	r28, 0xF8	; 248
    40c4:	d0 40       	sbci	r29, 0x00	; 0
    40c6:	fc ab       	std	Y+52, r31	; 0x34
    40c8:	c7 50       	subi	r28, 0x07	; 7
    40ca:	df 4f       	sbci	r29, 0xFF	; 255
    40cc:	28 81       	ld	r18, Y
    40ce:	c9 5f       	subi	r28, 0xF9	; 249
    40d0:	d0 40       	sbci	r29, 0x00	; 0
    40d2:	2d ab       	std	Y+53, r18	; 0x35
    40d4:	c6 50       	subi	r28, 0x06	; 6
    40d6:	df 4f       	sbci	r29, 0xFF	; 255
    40d8:	f8 81       	ld	r31, Y
    40da:	ca 5f       	subi	r28, 0xFA	; 250
    40dc:	d0 40       	sbci	r29, 0x00	; 0
    40de:	fe ab       	std	Y+54, r31	; 0x36
    40e0:	cd 50       	subi	r28, 0x0D	; 13
    40e2:	df 4f       	sbci	r29, 0xFF	; 255
    40e4:	28 81       	ld	r18, Y
    40e6:	c3 5f       	subi	r28, 0xF3	; 243
    40e8:	d0 40       	sbci	r29, 0x00	; 0
    40ea:	2f a7       	std	Y+47, r18	; 0x2f
    40ec:	cc 50       	subi	r28, 0x0C	; 12
    40ee:	df 4f       	sbci	r29, 0xFF	; 255
    40f0:	f8 81       	ld	r31, Y
    40f2:	c4 5f       	subi	r28, 0xF4	; 244
    40f4:	d0 40       	sbci	r29, 0x00	; 0
    40f6:	f8 ab       	std	Y+48, r31	; 0x30
    40f8:	cb 50       	subi	r28, 0x0B	; 11
    40fa:	df 4f       	sbci	r29, 0xFF	; 255
    40fc:	28 81       	ld	r18, Y
    40fe:	c5 5f       	subi	r28, 0xF5	; 245
    4100:	d0 40       	sbci	r29, 0x00	; 0
    4102:	29 ab       	std	Y+49, r18	; 0x31
    4104:	ca 50       	subi	r28, 0x0A	; 10
    4106:	df 4f       	sbci	r29, 0xFF	; 255
    4108:	f8 81       	ld	r31, Y
    410a:	c6 5f       	subi	r28, 0xF6	; 246
    410c:	d0 40       	sbci	r29, 0x00	; 0
    410e:	fa ab       	std	Y+50, r31	; 0x32
    4110:	c1 51       	subi	r28, 0x11	; 17
    4112:	df 4f       	sbci	r29, 0xFF	; 255
    4114:	28 81       	ld	r18, Y
    4116:	cf 5e       	subi	r28, 0xEF	; 239
    4118:	d0 40       	sbci	r29, 0x00	; 0
    411a:	2b a7       	std	Y+43, r18	; 0x2b
    411c:	c0 51       	subi	r28, 0x10	; 16
    411e:	df 4f       	sbci	r29, 0xFF	; 255
    4120:	f8 81       	ld	r31, Y
    4122:	c0 5f       	subi	r28, 0xF0	; 240
    4124:	d0 40       	sbci	r29, 0x00	; 0
    4126:	fc a7       	std	Y+44, r31	; 0x2c
    4128:	cf 50       	subi	r28, 0x0F	; 15
    412a:	df 4f       	sbci	r29, 0xFF	; 255
    412c:	28 81       	ld	r18, Y
    412e:	c1 5f       	subi	r28, 0xF1	; 241
    4130:	d0 40       	sbci	r29, 0x00	; 0
    4132:	2d a7       	std	Y+45, r18	; 0x2d
    4134:	ce 50       	subi	r28, 0x0E	; 14
    4136:	df 4f       	sbci	r29, 0xFF	; 255
    4138:	f8 81       	ld	r31, Y
    413a:	c2 5f       	subi	r28, 0xF2	; 242
    413c:	d0 40       	sbci	r29, 0x00	; 0
    413e:	fe a7       	std	Y+46, r31	; 0x2e
    4140:	c5 51       	subi	r28, 0x15	; 21
    4142:	df 4f       	sbci	r29, 0xFF	; 255
    4144:	28 81       	ld	r18, Y
    4146:	cb 5e       	subi	r28, 0xEB	; 235
    4148:	d0 40       	sbci	r29, 0x00	; 0
    414a:	2b 87       	std	Y+11, r18	; 0x0b
    414c:	c4 51       	subi	r28, 0x14	; 20
    414e:	df 4f       	sbci	r29, 0xFF	; 255
    4150:	f8 81       	ld	r31, Y
    4152:	cc 5e       	subi	r28, 0xEC	; 236
    4154:	d0 40       	sbci	r29, 0x00	; 0
    4156:	fc 87       	std	Y+12, r31	; 0x0c
    4158:	c3 51       	subi	r28, 0x13	; 19
    415a:	df 4f       	sbci	r29, 0xFF	; 255
    415c:	28 81       	ld	r18, Y
    415e:	cd 5e       	subi	r28, 0xED	; 237
    4160:	d0 40       	sbci	r29, 0x00	; 0
    4162:	2d 87       	std	Y+13, r18	; 0x0d
    4164:	c2 51       	subi	r28, 0x12	; 18
    4166:	df 4f       	sbci	r29, 0xFF	; 255
    4168:	f8 81       	ld	r31, Y
    416a:	ce 5e       	subi	r28, 0xEE	; 238
    416c:	d0 40       	sbci	r29, 0x00	; 0
    416e:	fe 87       	std	Y+14, r31	; 0x0e
    4170:	c9 51       	subi	r28, 0x19	; 25
    4172:	df 4f       	sbci	r29, 0xFF	; 255
    4174:	18 81       	ld	r17, Y
    4176:	c7 5e       	subi	r28, 0xE7	; 231
    4178:	d0 40       	sbci	r29, 0x00	; 0
    417a:	c8 51       	subi	r28, 0x18	; 24
    417c:	df 4f       	sbci	r29, 0xFF	; 255
    417e:	b8 81       	ld	r27, Y
    4180:	c8 5e       	subi	r28, 0xE8	; 232
    4182:	d0 40       	sbci	r29, 0x00	; 0
    4184:	c7 51       	subi	r28, 0x17	; 23
    4186:	df 4f       	sbci	r29, 0xFF	; 255
    4188:	a8 81       	ld	r26, Y
    418a:	c9 5e       	subi	r28, 0xE9	; 233
    418c:	d0 40       	sbci	r29, 0x00	; 0
    418e:	c6 51       	subi	r28, 0x16	; 22
    4190:	df 4f       	sbci	r29, 0xFF	; 255
    4192:	f8 81       	ld	r31, Y
    4194:	ca 5e       	subi	r28, 0xEA	; 234
    4196:	d0 40       	sbci	r29, 0x00	; 0
    4198:	0c 94 6d 12 	jmp	0x24da	; 0x24da <SetSensorConfig+0x1b16>
    419c:	cd 51       	subi	r28, 0x1D	; 29
    419e:	de 4f       	sbci	r29, 0xFE	; 254
    41a0:	48 81       	ld	r20, Y
    41a2:	c3 5e       	subi	r28, 0xE3	; 227
    41a4:	d1 40       	sbci	r29, 0x01	; 1
    41a6:	cc 51       	subi	r28, 0x1C	; 28
    41a8:	de 4f       	sbci	r29, 0xFE	; 254
    41aa:	38 81       	ld	r19, Y
    41ac:	c4 5e       	subi	r28, 0xE4	; 228
    41ae:	d1 40       	sbci	r29, 0x01	; 1
    41b0:	cb 51       	subi	r28, 0x1B	; 27
    41b2:	de 4f       	sbci	r29, 0xFE	; 254
    41b4:	88 81       	ld	r24, Y
    41b6:	c5 5e       	subi	r28, 0xE5	; 229
    41b8:	d1 40       	sbci	r29, 0x01	; 1
    41ba:	ca 51       	subi	r28, 0x1A	; 26
    41bc:	de 4f       	sbci	r29, 0xFE	; 254
    41be:	98 81       	ld	r25, Y
    41c0:	c6 5e       	subi	r28, 0xE6	; 230
    41c2:	d1 40       	sbci	r29, 0x01	; 1
    41c4:	c1 52       	subi	r28, 0x21	; 33
    41c6:	de 4f       	sbci	r29, 0xFE	; 254
    41c8:	68 81       	ld	r22, Y
    41ca:	cf 5d       	subi	r28, 0xDF	; 223
    41cc:	d1 40       	sbci	r29, 0x01	; 1
    41ce:	c0 52       	subi	r28, 0x20	; 32
    41d0:	de 4f       	sbci	r29, 0xFE	; 254
    41d2:	78 81       	ld	r23, Y
    41d4:	c0 5e       	subi	r28, 0xE0	; 224
    41d6:	d1 40       	sbci	r29, 0x01	; 1
    41d8:	cf 51       	subi	r28, 0x1F	; 31
    41da:	de 4f       	sbci	r29, 0xFE	; 254
    41dc:	b8 80       	ld	r11, Y
    41de:	c1 5e       	subi	r28, 0xE1	; 225
    41e0:	d1 40       	sbci	r29, 0x01	; 1
    41e2:	ce 51       	subi	r28, 0x1E	; 30
    41e4:	de 4f       	sbci	r29, 0xFE	; 254
    41e6:	c8 80       	ld	r12, Y
    41e8:	c2 5e       	subi	r28, 0xE2	; 226
    41ea:	d1 40       	sbci	r29, 0x01	; 1
    41ec:	c5 52       	subi	r28, 0x25	; 37
    41ee:	de 4f       	sbci	r29, 0xFE	; 254
    41f0:	28 81       	ld	r18, Y
    41f2:	cb 5d       	subi	r28, 0xDB	; 219
    41f4:	d1 40       	sbci	r29, 0x01	; 1
    41f6:	2f 83       	std	Y+7, r18	; 0x07
    41f8:	c4 52       	subi	r28, 0x24	; 36
    41fa:	de 4f       	sbci	r29, 0xFE	; 254
    41fc:	58 81       	ld	r21, Y
    41fe:	cc 5d       	subi	r28, 0xDC	; 220
    4200:	d1 40       	sbci	r29, 0x01	; 1
    4202:	58 87       	std	Y+8, r21	; 0x08
    4204:	c3 52       	subi	r28, 0x23	; 35
    4206:	de 4f       	sbci	r29, 0xFE	; 254
    4208:	f8 81       	ld	r31, Y
    420a:	cd 5d       	subi	r28, 0xDD	; 221
    420c:	d1 40       	sbci	r29, 0x01	; 1
    420e:	f9 87       	std	Y+9, r31	; 0x09
    4210:	c2 52       	subi	r28, 0x22	; 34
    4212:	de 4f       	sbci	r29, 0xFE	; 254
    4214:	28 81       	ld	r18, Y
    4216:	ce 5d       	subi	r28, 0xDE	; 222
    4218:	d1 40       	sbci	r29, 0x01	; 1
    421a:	2a 87       	std	Y+10, r18	; 0x0a
    421c:	c9 52       	subi	r28, 0x29	; 41
    421e:	de 4f       	sbci	r29, 0xFE	; 254
    4220:	28 80       	ld	r2, Y
    4222:	c7 5d       	subi	r28, 0xD7	; 215
    4224:	d1 40       	sbci	r29, 0x01	; 1
    4226:	c8 52       	subi	r28, 0x28	; 40
    4228:	de 4f       	sbci	r29, 0xFE	; 254
    422a:	38 80       	ld	r3, Y
    422c:	c8 5d       	subi	r28, 0xD8	; 216
    422e:	d1 40       	sbci	r29, 0x01	; 1
    4230:	c7 52       	subi	r28, 0x27	; 39
    4232:	de 4f       	sbci	r29, 0xFE	; 254
    4234:	48 80       	ld	r4, Y
    4236:	c9 5d       	subi	r28, 0xD9	; 217
    4238:	d1 40       	sbci	r29, 0x01	; 1
    423a:	c6 52       	subi	r28, 0x26	; 38
    423c:	de 4f       	sbci	r29, 0xFE	; 254
    423e:	58 80       	ld	r5, Y
    4240:	ca 5d       	subi	r28, 0xDA	; 218
    4242:	d1 40       	sbci	r29, 0x01	; 1
    4244:	cd 52       	subi	r28, 0x2D	; 45
    4246:	de 4f       	sbci	r29, 0xFE	; 254
    4248:	68 80       	ld	r6, Y
    424a:	c3 5d       	subi	r28, 0xD3	; 211
    424c:	d1 40       	sbci	r29, 0x01	; 1
    424e:	cc 52       	subi	r28, 0x2C	; 44
    4250:	de 4f       	sbci	r29, 0xFE	; 254
    4252:	78 80       	ld	r7, Y
    4254:	c4 5d       	subi	r28, 0xD4	; 212
    4256:	d1 40       	sbci	r29, 0x01	; 1
    4258:	cb 52       	subi	r28, 0x2B	; 43
    425a:	de 4f       	sbci	r29, 0xFE	; 254
    425c:	88 80       	ld	r8, Y
    425e:	c5 5d       	subi	r28, 0xD5	; 213
    4260:	d1 40       	sbci	r29, 0x01	; 1
    4262:	ca 52       	subi	r28, 0x2A	; 42
    4264:	de 4f       	sbci	r29, 0xFE	; 254
    4266:	98 80       	ld	r9, Y
    4268:	c6 5d       	subi	r28, 0xD6	; 214
    426a:	d1 40       	sbci	r29, 0x01	; 1
    426c:	c1 53       	subi	r28, 0x31	; 49
    426e:	de 4f       	sbci	r29, 0xFE	; 254
    4270:	e8 81       	ld	r30, Y
    4272:	cf 5c       	subi	r28, 0xCF	; 207
    4274:	d1 40       	sbci	r29, 0x01	; 1
    4276:	c0 53       	subi	r28, 0x30	; 48
    4278:	de 4f       	sbci	r29, 0xFE	; 254
    427a:	58 81       	ld	r21, Y
    427c:	c0 5d       	subi	r28, 0xD0	; 208
    427e:	d1 40       	sbci	r29, 0x01	; 1
    4280:	cf 52       	subi	r28, 0x2F	; 47
    4282:	de 4f       	sbci	r29, 0xFE	; 254
    4284:	a8 80       	ld	r10, Y
    4286:	c1 5d       	subi	r28, 0xD1	; 209
    4288:	d1 40       	sbci	r29, 0x01	; 1
    428a:	ce 52       	subi	r28, 0x2E	; 46
    428c:	de 4f       	sbci	r29, 0xFE	; 254
    428e:	f8 81       	ld	r31, Y
    4290:	c2 5d       	subi	r28, 0xD2	; 210
    4292:	d1 40       	sbci	r29, 0x01	; 1
    4294:	fe 83       	std	Y+6, r31	; 0x06
    4296:	c5 53       	subi	r28, 0x35	; 53
    4298:	de 4f       	sbci	r29, 0xFE	; 254
    429a:	28 81       	ld	r18, Y
    429c:	cb 5c       	subi	r28, 0xCB	; 203
    429e:	d1 40       	sbci	r29, 0x01	; 1
    42a0:	2f a3       	std	Y+39, r18	; 0x27
    42a2:	c4 53       	subi	r28, 0x34	; 52
    42a4:	de 4f       	sbci	r29, 0xFE	; 254
    42a6:	f8 81       	ld	r31, Y
    42a8:	cc 5c       	subi	r28, 0xCC	; 204
    42aa:	d1 40       	sbci	r29, 0x01	; 1
    42ac:	f8 a7       	std	Y+40, r31	; 0x28
    42ae:	c3 53       	subi	r28, 0x33	; 51
    42b0:	de 4f       	sbci	r29, 0xFE	; 254
    42b2:	28 81       	ld	r18, Y
    42b4:	cd 5c       	subi	r28, 0xCD	; 205
    42b6:	d1 40       	sbci	r29, 0x01	; 1
    42b8:	29 a7       	std	Y+41, r18	; 0x29
    42ba:	c2 53       	subi	r28, 0x32	; 50
    42bc:	de 4f       	sbci	r29, 0xFE	; 254
    42be:	f8 81       	ld	r31, Y
    42c0:	ce 5c       	subi	r28, 0xCE	; 206
    42c2:	d1 40       	sbci	r29, 0x01	; 1
    42c4:	fa a7       	std	Y+42, r31	; 0x2a
    42c6:	c9 53       	subi	r28, 0x39	; 57
    42c8:	de 4f       	sbci	r29, 0xFE	; 254
    42ca:	08 81       	ld	r16, Y
    42cc:	c7 5c       	subi	r28, 0xC7	; 199
    42ce:	d1 40       	sbci	r29, 0x01	; 1
    42d0:	c8 53       	subi	r28, 0x38	; 56
    42d2:	de 4f       	sbci	r29, 0xFE	; 254
    42d4:	f8 80       	ld	r15, Y
    42d6:	c8 5c       	subi	r28, 0xC8	; 200
    42d8:	d1 40       	sbci	r29, 0x01	; 1
    42da:	c7 53       	subi	r28, 0x37	; 55
    42dc:	de 4f       	sbci	r29, 0xFE	; 254
    42de:	e8 80       	ld	r14, Y
    42e0:	c9 5c       	subi	r28, 0xC9	; 201
    42e2:	d1 40       	sbci	r29, 0x01	; 1
    42e4:	c6 53       	subi	r28, 0x36	; 54
    42e6:	de 4f       	sbci	r29, 0xFE	; 254
    42e8:	d8 80       	ld	r13, Y
    42ea:	ca 5c       	subi	r28, 0xCA	; 202
    42ec:	d1 40       	sbci	r29, 0x01	; 1
    42ee:	cd 53       	subi	r28, 0x3D	; 61
    42f0:	de 4f       	sbci	r29, 0xFE	; 254
    42f2:	28 81       	ld	r18, Y
    42f4:	c3 5c       	subi	r28, 0xC3	; 195
    42f6:	d1 40       	sbci	r29, 0x01	; 1
    42f8:	2b a3       	std	Y+35, r18	; 0x23
    42fa:	cc 53       	subi	r28, 0x3C	; 60
    42fc:	de 4f       	sbci	r29, 0xFE	; 254
    42fe:	f8 81       	ld	r31, Y
    4300:	c4 5c       	subi	r28, 0xC4	; 196
    4302:	d1 40       	sbci	r29, 0x01	; 1
    4304:	fc a3       	std	Y+36, r31	; 0x24
    4306:	cb 53       	subi	r28, 0x3B	; 59
    4308:	de 4f       	sbci	r29, 0xFE	; 254
    430a:	28 81       	ld	r18, Y
    430c:	c5 5c       	subi	r28, 0xC5	; 197
    430e:	d1 40       	sbci	r29, 0x01	; 1
    4310:	2d a3       	std	Y+37, r18	; 0x25
    4312:	ca 53       	subi	r28, 0x3A	; 58
    4314:	de 4f       	sbci	r29, 0xFE	; 254
    4316:	f8 81       	ld	r31, Y
    4318:	c6 5c       	subi	r28, 0xC6	; 198
    431a:	d1 40       	sbci	r29, 0x01	; 1
    431c:	fe a3       	std	Y+38, r31	; 0x26
    431e:	c1 54       	subi	r28, 0x41	; 65
    4320:	de 4f       	sbci	r29, 0xFE	; 254
    4322:	28 81       	ld	r18, Y
    4324:	cf 5b       	subi	r28, 0xBF	; 191
    4326:	d1 40       	sbci	r29, 0x01	; 1
    4328:	2f 8f       	std	Y+31, r18	; 0x1f
    432a:	c0 54       	subi	r28, 0x40	; 64
    432c:	de 4f       	sbci	r29, 0xFE	; 254
    432e:	f8 81       	ld	r31, Y
    4330:	c0 5c       	subi	r28, 0xC0	; 192
    4332:	d1 40       	sbci	r29, 0x01	; 1
    4334:	f8 a3       	std	Y+32, r31	; 0x20
    4336:	cf 53       	subi	r28, 0x3F	; 63
    4338:	de 4f       	sbci	r29, 0xFE	; 254
    433a:	28 81       	ld	r18, Y
    433c:	c1 5c       	subi	r28, 0xC1	; 193
    433e:	d1 40       	sbci	r29, 0x01	; 1
    4340:	29 a3       	std	Y+33, r18	; 0x21
    4342:	ce 53       	subi	r28, 0x3E	; 62
    4344:	de 4f       	sbci	r29, 0xFE	; 254
    4346:	f8 81       	ld	r31, Y
    4348:	c2 5c       	subi	r28, 0xC2	; 194
    434a:	d1 40       	sbci	r29, 0x01	; 1
    434c:	fa a3       	std	Y+34, r31	; 0x22
    434e:	c5 54       	subi	r28, 0x45	; 69
    4350:	de 4f       	sbci	r29, 0xFE	; 254
    4352:	28 81       	ld	r18, Y
    4354:	cb 5b       	subi	r28, 0xBB	; 187
    4356:	d1 40       	sbci	r29, 0x01	; 1
    4358:	2b 8f       	std	Y+27, r18	; 0x1b
    435a:	c4 54       	subi	r28, 0x44	; 68
    435c:	de 4f       	sbci	r29, 0xFE	; 254
    435e:	f8 81       	ld	r31, Y
    4360:	cc 5b       	subi	r28, 0xBC	; 188
    4362:	d1 40       	sbci	r29, 0x01	; 1
    4364:	fc 8f       	std	Y+28, r31	; 0x1c
    4366:	c3 54       	subi	r28, 0x43	; 67
    4368:	de 4f       	sbci	r29, 0xFE	; 254
    436a:	28 81       	ld	r18, Y
    436c:	cd 5b       	subi	r28, 0xBD	; 189
    436e:	d1 40       	sbci	r29, 0x01	; 1
    4370:	2d 8f       	std	Y+29, r18	; 0x1d
    4372:	c2 54       	subi	r28, 0x42	; 66
    4374:	de 4f       	sbci	r29, 0xFE	; 254
    4376:	f8 81       	ld	r31, Y
    4378:	ce 5b       	subi	r28, 0xBE	; 190
    437a:	d1 40       	sbci	r29, 0x01	; 1
    437c:	fe 8f       	std	Y+30, r31	; 0x1e
    437e:	c9 54       	subi	r28, 0x49	; 73
    4380:	de 4f       	sbci	r29, 0xFE	; 254
    4382:	28 81       	ld	r18, Y
    4384:	c7 5b       	subi	r28, 0xB7	; 183
    4386:	d1 40       	sbci	r29, 0x01	; 1
    4388:	2f 8b       	std	Y+23, r18	; 0x17
    438a:	c8 54       	subi	r28, 0x48	; 72
    438c:	de 4f       	sbci	r29, 0xFE	; 254
    438e:	f8 81       	ld	r31, Y
    4390:	c8 5b       	subi	r28, 0xB8	; 184
    4392:	d1 40       	sbci	r29, 0x01	; 1
    4394:	f8 8f       	std	Y+24, r31	; 0x18
    4396:	c7 54       	subi	r28, 0x47	; 71
    4398:	de 4f       	sbci	r29, 0xFE	; 254
    439a:	28 81       	ld	r18, Y
    439c:	c9 5b       	subi	r28, 0xB9	; 185
    439e:	d1 40       	sbci	r29, 0x01	; 1
    43a0:	29 8f       	std	Y+25, r18	; 0x19
    43a2:	c6 54       	subi	r28, 0x46	; 70
    43a4:	de 4f       	sbci	r29, 0xFE	; 254
    43a6:	f8 81       	ld	r31, Y
    43a8:	ca 5b       	subi	r28, 0xBA	; 186
    43aa:	d1 40       	sbci	r29, 0x01	; 1
    43ac:	fa 8f       	std	Y+26, r31	; 0x1a
    43ae:	cd 54       	subi	r28, 0x4D	; 77
    43b0:	de 4f       	sbci	r29, 0xFE	; 254
    43b2:	28 81       	ld	r18, Y
    43b4:	c3 5b       	subi	r28, 0xB3	; 179
    43b6:	d1 40       	sbci	r29, 0x01	; 1
    43b8:	2b 8b       	std	Y+19, r18	; 0x13
    43ba:	cc 54       	subi	r28, 0x4C	; 76
    43bc:	de 4f       	sbci	r29, 0xFE	; 254
    43be:	f8 81       	ld	r31, Y
    43c0:	c4 5b       	subi	r28, 0xB4	; 180
    43c2:	d1 40       	sbci	r29, 0x01	; 1
    43c4:	fc 8b       	std	Y+20, r31	; 0x14
    43c6:	cb 54       	subi	r28, 0x4B	; 75
    43c8:	de 4f       	sbci	r29, 0xFE	; 254
    43ca:	28 81       	ld	r18, Y
    43cc:	c5 5b       	subi	r28, 0xB5	; 181
    43ce:	d1 40       	sbci	r29, 0x01	; 1
    43d0:	2d 8b       	std	Y+21, r18	; 0x15
    43d2:	ca 54       	subi	r28, 0x4A	; 74
    43d4:	de 4f       	sbci	r29, 0xFE	; 254
    43d6:	f8 81       	ld	r31, Y
    43d8:	c6 5b       	subi	r28, 0xB6	; 182
    43da:	d1 40       	sbci	r29, 0x01	; 1
    43dc:	fe 8b       	std	Y+22, r31	; 0x16
    43de:	c1 55       	subi	r28, 0x51	; 81
    43e0:	de 4f       	sbci	r29, 0xFE	; 254
    43e2:	28 81       	ld	r18, Y
    43e4:	cf 5a       	subi	r28, 0xAF	; 175
    43e6:	d1 40       	sbci	r29, 0x01	; 1
    43e8:	2f 87       	std	Y+15, r18	; 0x0f
    43ea:	c0 55       	subi	r28, 0x50	; 80
    43ec:	de 4f       	sbci	r29, 0xFE	; 254
    43ee:	f8 81       	ld	r31, Y
    43f0:	c0 5b       	subi	r28, 0xB0	; 176
    43f2:	d1 40       	sbci	r29, 0x01	; 1
    43f4:	f8 8b       	std	Y+16, r31	; 0x10
    43f6:	cf 54       	subi	r28, 0x4F	; 79
    43f8:	de 4f       	sbci	r29, 0xFE	; 254
    43fa:	28 81       	ld	r18, Y
    43fc:	c1 5b       	subi	r28, 0xB1	; 177
    43fe:	d1 40       	sbci	r29, 0x01	; 1
    4400:	29 8b       	std	Y+17, r18	; 0x11
    4402:	ce 54       	subi	r28, 0x4E	; 78
    4404:	de 4f       	sbci	r29, 0xFE	; 254
    4406:	f8 81       	ld	r31, Y
    4408:	c2 5b       	subi	r28, 0xB2	; 178
    440a:	d1 40       	sbci	r29, 0x01	; 1
    440c:	fa 8b       	std	Y+18, r31	; 0x12
    440e:	c5 55       	subi	r28, 0x55	; 85
    4410:	de 4f       	sbci	r29, 0xFE	; 254
    4412:	28 81       	ld	r18, Y
    4414:	cb 5a       	subi	r28, 0xAB	; 171
    4416:	d1 40       	sbci	r29, 0x01	; 1
    4418:	2a 83       	std	Y+2, r18	; 0x02
    441a:	c4 55       	subi	r28, 0x54	; 84
    441c:	de 4f       	sbci	r29, 0xFE	; 254
    441e:	f8 81       	ld	r31, Y
    4420:	cc 5a       	subi	r28, 0xAC	; 172
    4422:	d1 40       	sbci	r29, 0x01	; 1
    4424:	fb 83       	std	Y+3, r31	; 0x03
    4426:	c3 55       	subi	r28, 0x53	; 83
    4428:	de 4f       	sbci	r29, 0xFE	; 254
    442a:	28 81       	ld	r18, Y
    442c:	cd 5a       	subi	r28, 0xAD	; 173
    442e:	d1 40       	sbci	r29, 0x01	; 1
    4430:	2c 83       	std	Y+4, r18	; 0x04
    4432:	c2 55       	subi	r28, 0x52	; 82
    4434:	de 4f       	sbci	r29, 0xFE	; 254
    4436:	f8 81       	ld	r31, Y
    4438:	ce 5a       	subi	r28, 0xAE	; 174
    443a:	d1 40       	sbci	r29, 0x01	; 1
    443c:	fd 83       	std	Y+5, r31	; 0x05
    443e:	c9 55       	subi	r28, 0x59	; 89
    4440:	de 4f       	sbci	r29, 0xFE	; 254
    4442:	28 81       	ld	r18, Y
    4444:	c7 5a       	subi	r28, 0xA7	; 167
    4446:	d1 40       	sbci	r29, 0x01	; 1
    4448:	a4 96       	adiw	r28, 0x24	; 36
    444a:	2f af       	std	Y+63, r18	; 0x3f
    444c:	a4 97       	sbiw	r28, 0x24	; 36
    444e:	c8 55       	subi	r28, 0x58	; 88
    4450:	de 4f       	sbci	r29, 0xFE	; 254
    4452:	f8 81       	ld	r31, Y
    4454:	c8 5a       	subi	r28, 0xA8	; 168
    4456:	d1 40       	sbci	r29, 0x01	; 1
    4458:	a5 96       	adiw	r28, 0x25	; 37
    445a:	ff af       	std	Y+63, r31	; 0x3f
    445c:	a5 97       	sbiw	r28, 0x25	; 37
    445e:	c7 55       	subi	r28, 0x57	; 87
    4460:	de 4f       	sbci	r29, 0xFE	; 254
    4462:	28 81       	ld	r18, Y
    4464:	c9 5a       	subi	r28, 0xA9	; 169
    4466:	d1 40       	sbci	r29, 0x01	; 1
    4468:	a6 96       	adiw	r28, 0x26	; 38
    446a:	2f af       	std	Y+63, r18	; 0x3f
    446c:	a6 97       	sbiw	r28, 0x26	; 38
    446e:	c6 55       	subi	r28, 0x56	; 86
    4470:	de 4f       	sbci	r29, 0xFE	; 254
    4472:	f8 81       	ld	r31, Y
    4474:	ca 5a       	subi	r28, 0xAA	; 170
    4476:	d1 40       	sbci	r29, 0x01	; 1
    4478:	a7 96       	adiw	r28, 0x27	; 39
    447a:	ff af       	std	Y+63, r31	; 0x3f
    447c:	a7 97       	sbiw	r28, 0x27	; 39
    447e:	cd 55       	subi	r28, 0x5D	; 93
    4480:	de 4f       	sbci	r29, 0xFE	; 254
    4482:	28 81       	ld	r18, Y
    4484:	c3 5a       	subi	r28, 0xA3	; 163
    4486:	d1 40       	sbci	r29, 0x01	; 1
    4488:	a0 96       	adiw	r28, 0x20	; 32
    448a:	2f af       	std	Y+63, r18	; 0x3f
    448c:	a0 97       	sbiw	r28, 0x20	; 32
    448e:	cc 55       	subi	r28, 0x5C	; 92
    4490:	de 4f       	sbci	r29, 0xFE	; 254
    4492:	f8 81       	ld	r31, Y
    4494:	c4 5a       	subi	r28, 0xA4	; 164
    4496:	d1 40       	sbci	r29, 0x01	; 1
    4498:	a1 96       	adiw	r28, 0x21	; 33
    449a:	ff af       	std	Y+63, r31	; 0x3f
    449c:	a1 97       	sbiw	r28, 0x21	; 33
    449e:	cb 55       	subi	r28, 0x5B	; 91
    44a0:	de 4f       	sbci	r29, 0xFE	; 254
    44a2:	28 81       	ld	r18, Y
    44a4:	c5 5a       	subi	r28, 0xA5	; 165
    44a6:	d1 40       	sbci	r29, 0x01	; 1
    44a8:	a2 96       	adiw	r28, 0x22	; 34
    44aa:	2f af       	std	Y+63, r18	; 0x3f
    44ac:	a2 97       	sbiw	r28, 0x22	; 34
    44ae:	ca 55       	subi	r28, 0x5A	; 90
    44b0:	de 4f       	sbci	r29, 0xFE	; 254
    44b2:	f8 81       	ld	r31, Y
    44b4:	c6 5a       	subi	r28, 0xA6	; 166
    44b6:	d1 40       	sbci	r29, 0x01	; 1
    44b8:	a3 96       	adiw	r28, 0x23	; 35
    44ba:	ff af       	std	Y+63, r31	; 0x3f
    44bc:	a3 97       	sbiw	r28, 0x23	; 35
    44be:	c1 56       	subi	r28, 0x61	; 97
    44c0:	de 4f       	sbci	r29, 0xFE	; 254
    44c2:	28 81       	ld	r18, Y
    44c4:	cf 59       	subi	r28, 0x9F	; 159
    44c6:	d1 40       	sbci	r29, 0x01	; 1
    44c8:	6c 96       	adiw	r28, 0x1c	; 28
    44ca:	2f af       	std	Y+63, r18	; 0x3f
    44cc:	6c 97       	sbiw	r28, 0x1c	; 28
    44ce:	c0 56       	subi	r28, 0x60	; 96
    44d0:	de 4f       	sbci	r29, 0xFE	; 254
    44d2:	f8 81       	ld	r31, Y
    44d4:	c0 5a       	subi	r28, 0xA0	; 160
    44d6:	d1 40       	sbci	r29, 0x01	; 1
    44d8:	6d 96       	adiw	r28, 0x1d	; 29
    44da:	ff af       	std	Y+63, r31	; 0x3f
    44dc:	6d 97       	sbiw	r28, 0x1d	; 29
    44de:	cf 55       	subi	r28, 0x5F	; 95
    44e0:	de 4f       	sbci	r29, 0xFE	; 254
    44e2:	28 81       	ld	r18, Y
    44e4:	c1 5a       	subi	r28, 0xA1	; 161
    44e6:	d1 40       	sbci	r29, 0x01	; 1
    44e8:	6e 96       	adiw	r28, 0x1e	; 30
    44ea:	2f af       	std	Y+63, r18	; 0x3f
    44ec:	6e 97       	sbiw	r28, 0x1e	; 30
    44ee:	ce 55       	subi	r28, 0x5E	; 94
    44f0:	de 4f       	sbci	r29, 0xFE	; 254
    44f2:	f8 81       	ld	r31, Y
    44f4:	c2 5a       	subi	r28, 0xA2	; 162
    44f6:	d1 40       	sbci	r29, 0x01	; 1
    44f8:	6f 96       	adiw	r28, 0x1f	; 31
    44fa:	ff af       	std	Y+63, r31	; 0x3f
    44fc:	6f 97       	sbiw	r28, 0x1f	; 31
    44fe:	c5 56       	subi	r28, 0x65	; 101
    4500:	de 4f       	sbci	r29, 0xFE	; 254
    4502:	28 81       	ld	r18, Y
    4504:	cb 59       	subi	r28, 0x9B	; 155
    4506:	d1 40       	sbci	r29, 0x01	; 1
    4508:	68 96       	adiw	r28, 0x18	; 24
    450a:	2f af       	std	Y+63, r18	; 0x3f
    450c:	68 97       	sbiw	r28, 0x18	; 24
    450e:	c4 56       	subi	r28, 0x64	; 100
    4510:	de 4f       	sbci	r29, 0xFE	; 254
    4512:	f8 81       	ld	r31, Y
    4514:	cc 59       	subi	r28, 0x9C	; 156
    4516:	d1 40       	sbci	r29, 0x01	; 1
    4518:	69 96       	adiw	r28, 0x19	; 25
    451a:	ff af       	std	Y+63, r31	; 0x3f
    451c:	69 97       	sbiw	r28, 0x19	; 25
    451e:	c3 56       	subi	r28, 0x63	; 99
    4520:	de 4f       	sbci	r29, 0xFE	; 254
    4522:	28 81       	ld	r18, Y
    4524:	cd 59       	subi	r28, 0x9D	; 157
    4526:	d1 40       	sbci	r29, 0x01	; 1
    4528:	6a 96       	adiw	r28, 0x1a	; 26
    452a:	2f af       	std	Y+63, r18	; 0x3f
    452c:	6a 97       	sbiw	r28, 0x1a	; 26
    452e:	c2 56       	subi	r28, 0x62	; 98
    4530:	de 4f       	sbci	r29, 0xFE	; 254
    4532:	f8 81       	ld	r31, Y
    4534:	ce 59       	subi	r28, 0x9E	; 158
    4536:	d1 40       	sbci	r29, 0x01	; 1
    4538:	6b 96       	adiw	r28, 0x1b	; 27
    453a:	ff af       	std	Y+63, r31	; 0x3f
    453c:	6b 97       	sbiw	r28, 0x1b	; 27
    453e:	c9 56       	subi	r28, 0x69	; 105
    4540:	de 4f       	sbci	r29, 0xFE	; 254
    4542:	28 81       	ld	r18, Y
    4544:	c7 59       	subi	r28, 0x97	; 151
    4546:	d1 40       	sbci	r29, 0x01	; 1
    4548:	64 96       	adiw	r28, 0x14	; 20
    454a:	2f af       	std	Y+63, r18	; 0x3f
    454c:	64 97       	sbiw	r28, 0x14	; 20
    454e:	c8 56       	subi	r28, 0x68	; 104
    4550:	de 4f       	sbci	r29, 0xFE	; 254
    4552:	f8 81       	ld	r31, Y
    4554:	c8 59       	subi	r28, 0x98	; 152
    4556:	d1 40       	sbci	r29, 0x01	; 1
    4558:	65 96       	adiw	r28, 0x15	; 21
    455a:	ff af       	std	Y+63, r31	; 0x3f
    455c:	65 97       	sbiw	r28, 0x15	; 21
    455e:	c7 56       	subi	r28, 0x67	; 103
    4560:	de 4f       	sbci	r29, 0xFE	; 254
    4562:	28 81       	ld	r18, Y
    4564:	c9 59       	subi	r28, 0x99	; 153
    4566:	d1 40       	sbci	r29, 0x01	; 1
    4568:	66 96       	adiw	r28, 0x16	; 22
    456a:	2f af       	std	Y+63, r18	; 0x3f
    456c:	66 97       	sbiw	r28, 0x16	; 22
    456e:	c6 56       	subi	r28, 0x66	; 102
    4570:	de 4f       	sbci	r29, 0xFE	; 254
    4572:	f8 81       	ld	r31, Y
    4574:	ca 59       	subi	r28, 0x9A	; 154
    4576:	d1 40       	sbci	r29, 0x01	; 1
    4578:	67 96       	adiw	r28, 0x17	; 23
    457a:	ff af       	std	Y+63, r31	; 0x3f
    457c:	67 97       	sbiw	r28, 0x17	; 23
    457e:	cd 56       	subi	r28, 0x6D	; 109
    4580:	de 4f       	sbci	r29, 0xFE	; 254
    4582:	28 81       	ld	r18, Y
    4584:	c3 59       	subi	r28, 0x93	; 147
    4586:	d1 40       	sbci	r29, 0x01	; 1
    4588:	60 96       	adiw	r28, 0x10	; 16
    458a:	2f af       	std	Y+63, r18	; 0x3f
    458c:	60 97       	sbiw	r28, 0x10	; 16
    458e:	cc 56       	subi	r28, 0x6C	; 108
    4590:	de 4f       	sbci	r29, 0xFE	; 254
    4592:	f8 81       	ld	r31, Y
    4594:	c4 59       	subi	r28, 0x94	; 148
    4596:	d1 40       	sbci	r29, 0x01	; 1
    4598:	61 96       	adiw	r28, 0x11	; 17
    459a:	ff af       	std	Y+63, r31	; 0x3f
    459c:	61 97       	sbiw	r28, 0x11	; 17
    459e:	cb 56       	subi	r28, 0x6B	; 107
    45a0:	de 4f       	sbci	r29, 0xFE	; 254
    45a2:	28 81       	ld	r18, Y
    45a4:	c5 59       	subi	r28, 0x95	; 149
    45a6:	d1 40       	sbci	r29, 0x01	; 1
    45a8:	62 96       	adiw	r28, 0x12	; 18
    45aa:	2f af       	std	Y+63, r18	; 0x3f
    45ac:	62 97       	sbiw	r28, 0x12	; 18
    45ae:	ca 56       	subi	r28, 0x6A	; 106
    45b0:	de 4f       	sbci	r29, 0xFE	; 254
    45b2:	f8 81       	ld	r31, Y
    45b4:	c6 59       	subi	r28, 0x96	; 150
    45b6:	d1 40       	sbci	r29, 0x01	; 1
    45b8:	63 96       	adiw	r28, 0x13	; 19
    45ba:	ff af       	std	Y+63, r31	; 0x3f
    45bc:	63 97       	sbiw	r28, 0x13	; 19
    45be:	c1 57       	subi	r28, 0x71	; 113
    45c0:	de 4f       	sbci	r29, 0xFE	; 254
    45c2:	28 81       	ld	r18, Y
    45c4:	cf 58       	subi	r28, 0x8F	; 143
    45c6:	d1 40       	sbci	r29, 0x01	; 1
    45c8:	2c 96       	adiw	r28, 0x0c	; 12
    45ca:	2f af       	std	Y+63, r18	; 0x3f
    45cc:	2c 97       	sbiw	r28, 0x0c	; 12
    45ce:	c0 57       	subi	r28, 0x70	; 112
    45d0:	de 4f       	sbci	r29, 0xFE	; 254
    45d2:	f8 81       	ld	r31, Y
    45d4:	c0 59       	subi	r28, 0x90	; 144
    45d6:	d1 40       	sbci	r29, 0x01	; 1
    45d8:	2d 96       	adiw	r28, 0x0d	; 13
    45da:	ff af       	std	Y+63, r31	; 0x3f
    45dc:	2d 97       	sbiw	r28, 0x0d	; 13
    45de:	cf 56       	subi	r28, 0x6F	; 111
    45e0:	de 4f       	sbci	r29, 0xFE	; 254
    45e2:	28 81       	ld	r18, Y
    45e4:	c1 59       	subi	r28, 0x91	; 145
    45e6:	d1 40       	sbci	r29, 0x01	; 1
    45e8:	2e 96       	adiw	r28, 0x0e	; 14
    45ea:	2f af       	std	Y+63, r18	; 0x3f
    45ec:	2e 97       	sbiw	r28, 0x0e	; 14
    45ee:	ce 56       	subi	r28, 0x6E	; 110
    45f0:	de 4f       	sbci	r29, 0xFE	; 254
    45f2:	f8 81       	ld	r31, Y
    45f4:	c2 59       	subi	r28, 0x92	; 146
    45f6:	d1 40       	sbci	r29, 0x01	; 1
    45f8:	2f 96       	adiw	r28, 0x0f	; 15
    45fa:	ff af       	std	Y+63, r31	; 0x3f
    45fc:	2f 97       	sbiw	r28, 0x0f	; 15
    45fe:	c5 57       	subi	r28, 0x75	; 117
    4600:	de 4f       	sbci	r29, 0xFE	; 254
    4602:	28 81       	ld	r18, Y
    4604:	cb 58       	subi	r28, 0x8B	; 139
    4606:	d1 40       	sbci	r29, 0x01	; 1
    4608:	28 96       	adiw	r28, 0x08	; 8
    460a:	2f af       	std	Y+63, r18	; 0x3f
    460c:	28 97       	sbiw	r28, 0x08	; 8
    460e:	c4 57       	subi	r28, 0x74	; 116
    4610:	de 4f       	sbci	r29, 0xFE	; 254
    4612:	f8 81       	ld	r31, Y
    4614:	cc 58       	subi	r28, 0x8C	; 140
    4616:	d1 40       	sbci	r29, 0x01	; 1
    4618:	29 96       	adiw	r28, 0x09	; 9
    461a:	ff af       	std	Y+63, r31	; 0x3f
    461c:	29 97       	sbiw	r28, 0x09	; 9
    461e:	c3 57       	subi	r28, 0x73	; 115
    4620:	de 4f       	sbci	r29, 0xFE	; 254
    4622:	28 81       	ld	r18, Y
    4624:	cd 58       	subi	r28, 0x8D	; 141
    4626:	d1 40       	sbci	r29, 0x01	; 1
    4628:	2a 96       	adiw	r28, 0x0a	; 10
    462a:	2f af       	std	Y+63, r18	; 0x3f
    462c:	2a 97       	sbiw	r28, 0x0a	; 10
    462e:	c2 57       	subi	r28, 0x72	; 114
    4630:	de 4f       	sbci	r29, 0xFE	; 254
    4632:	f8 81       	ld	r31, Y
    4634:	ce 58       	subi	r28, 0x8E	; 142
    4636:	d1 40       	sbci	r29, 0x01	; 1
    4638:	2b 96       	adiw	r28, 0x0b	; 11
    463a:	ff af       	std	Y+63, r31	; 0x3f
    463c:	2b 97       	sbiw	r28, 0x0b	; 11
    463e:	c9 57       	subi	r28, 0x79	; 121
    4640:	de 4f       	sbci	r29, 0xFE	; 254
    4642:	28 81       	ld	r18, Y
    4644:	c7 58       	subi	r28, 0x87	; 135
    4646:	d1 40       	sbci	r29, 0x01	; 1
    4648:	24 96       	adiw	r28, 0x04	; 4
    464a:	2f af       	std	Y+63, r18	; 0x3f
    464c:	24 97       	sbiw	r28, 0x04	; 4
    464e:	c8 57       	subi	r28, 0x78	; 120
    4650:	de 4f       	sbci	r29, 0xFE	; 254
    4652:	f8 81       	ld	r31, Y
    4654:	c8 58       	subi	r28, 0x88	; 136
    4656:	d1 40       	sbci	r29, 0x01	; 1
    4658:	25 96       	adiw	r28, 0x05	; 5
    465a:	ff af       	std	Y+63, r31	; 0x3f
    465c:	25 97       	sbiw	r28, 0x05	; 5
    465e:	c7 57       	subi	r28, 0x77	; 119
    4660:	de 4f       	sbci	r29, 0xFE	; 254
    4662:	28 81       	ld	r18, Y
    4664:	c9 58       	subi	r28, 0x89	; 137
    4666:	d1 40       	sbci	r29, 0x01	; 1
    4668:	26 96       	adiw	r28, 0x06	; 6
    466a:	2f af       	std	Y+63, r18	; 0x3f
    466c:	26 97       	sbiw	r28, 0x06	; 6
    466e:	c6 57       	subi	r28, 0x76	; 118
    4670:	de 4f       	sbci	r29, 0xFE	; 254
    4672:	f8 81       	ld	r31, Y
    4674:	ca 58       	subi	r28, 0x8A	; 138
    4676:	d1 40       	sbci	r29, 0x01	; 1
    4678:	27 96       	adiw	r28, 0x07	; 7
    467a:	ff af       	std	Y+63, r31	; 0x3f
    467c:	27 97       	sbiw	r28, 0x07	; 7
    467e:	cd 57       	subi	r28, 0x7D	; 125
    4680:	de 4f       	sbci	r29, 0xFE	; 254
    4682:	28 81       	ld	r18, Y
    4684:	c3 58       	subi	r28, 0x83	; 131
    4686:	d1 40       	sbci	r29, 0x01	; 1
    4688:	2f af       	std	Y+63, r18	; 0x3f
    468a:	cc 57       	subi	r28, 0x7C	; 124
    468c:	de 4f       	sbci	r29, 0xFE	; 254
    468e:	f8 81       	ld	r31, Y
    4690:	c4 58       	subi	r28, 0x84	; 132
    4692:	d1 40       	sbci	r29, 0x01	; 1
    4694:	21 96       	adiw	r28, 0x01	; 1
    4696:	ff af       	std	Y+63, r31	; 0x3f
    4698:	21 97       	sbiw	r28, 0x01	; 1
    469a:	cb 57       	subi	r28, 0x7B	; 123
    469c:	de 4f       	sbci	r29, 0xFE	; 254
    469e:	28 81       	ld	r18, Y
    46a0:	c5 58       	subi	r28, 0x85	; 133
    46a2:	d1 40       	sbci	r29, 0x01	; 1
    46a4:	22 96       	adiw	r28, 0x02	; 2
    46a6:	2f af       	std	Y+63, r18	; 0x3f
    46a8:	22 97       	sbiw	r28, 0x02	; 2
    46aa:	ca 57       	subi	r28, 0x7A	; 122
    46ac:	de 4f       	sbci	r29, 0xFE	; 254
    46ae:	f8 81       	ld	r31, Y
    46b0:	c6 58       	subi	r28, 0x86	; 134
    46b2:	d1 40       	sbci	r29, 0x01	; 1
    46b4:	23 96       	adiw	r28, 0x03	; 3
    46b6:	ff af       	std	Y+63, r31	; 0x3f
    46b8:	23 97       	sbiw	r28, 0x03	; 3
    46ba:	c1 58       	subi	r28, 0x81	; 129
    46bc:	de 4f       	sbci	r29, 0xFE	; 254
    46be:	28 81       	ld	r18, Y
    46c0:	cf 57       	subi	r28, 0x7F	; 127
    46c2:	d1 40       	sbci	r29, 0x01	; 1
    46c4:	2b af       	std	Y+59, r18	; 0x3b
    46c6:	c0 58       	subi	r28, 0x80	; 128
    46c8:	de 4f       	sbci	r29, 0xFE	; 254
    46ca:	f8 81       	ld	r31, Y
    46cc:	c0 58       	subi	r28, 0x80	; 128
    46ce:	d1 40       	sbci	r29, 0x01	; 1
    46d0:	fc af       	std	Y+60, r31	; 0x3c
    46d2:	cf 57       	subi	r28, 0x7F	; 127
    46d4:	de 4f       	sbci	r29, 0xFE	; 254
    46d6:	28 81       	ld	r18, Y
    46d8:	c1 58       	subi	r28, 0x81	; 129
    46da:	d1 40       	sbci	r29, 0x01	; 1
    46dc:	2d af       	std	Y+61, r18	; 0x3d
    46de:	ce 57       	subi	r28, 0x7E	; 126
    46e0:	de 4f       	sbci	r29, 0xFE	; 254
    46e2:	f8 81       	ld	r31, Y
    46e4:	c2 58       	subi	r28, 0x82	; 130
    46e6:	d1 40       	sbci	r29, 0x01	; 1
    46e8:	fe af       	std	Y+62, r31	; 0x3e
    46ea:	c5 58       	subi	r28, 0x85	; 133
    46ec:	de 4f       	sbci	r29, 0xFE	; 254
    46ee:	28 81       	ld	r18, Y
    46f0:	cb 57       	subi	r28, 0x7B	; 123
    46f2:	d1 40       	sbci	r29, 0x01	; 1
    46f4:	2f ab       	std	Y+55, r18	; 0x37
    46f6:	c4 58       	subi	r28, 0x84	; 132
    46f8:	de 4f       	sbci	r29, 0xFE	; 254
    46fa:	f8 81       	ld	r31, Y
    46fc:	cc 57       	subi	r28, 0x7C	; 124
    46fe:	d1 40       	sbci	r29, 0x01	; 1
    4700:	f8 af       	std	Y+56, r31	; 0x38
    4702:	c3 58       	subi	r28, 0x83	; 131
    4704:	de 4f       	sbci	r29, 0xFE	; 254
    4706:	28 81       	ld	r18, Y
    4708:	cd 57       	subi	r28, 0x7D	; 125
    470a:	d1 40       	sbci	r29, 0x01	; 1
    470c:	29 af       	std	Y+57, r18	; 0x39
    470e:	c2 58       	subi	r28, 0x82	; 130
    4710:	de 4f       	sbci	r29, 0xFE	; 254
    4712:	f8 81       	ld	r31, Y
    4714:	ce 57       	subi	r28, 0x7E	; 126
    4716:	d1 40       	sbci	r29, 0x01	; 1
    4718:	fa af       	std	Y+58, r31	; 0x3a
    471a:	c9 58       	subi	r28, 0x89	; 137
    471c:	de 4f       	sbci	r29, 0xFE	; 254
    471e:	28 81       	ld	r18, Y
    4720:	c7 57       	subi	r28, 0x77	; 119
    4722:	d1 40       	sbci	r29, 0x01	; 1
    4724:	2b ab       	std	Y+51, r18	; 0x33
    4726:	c8 58       	subi	r28, 0x88	; 136
    4728:	de 4f       	sbci	r29, 0xFE	; 254
    472a:	f8 81       	ld	r31, Y
    472c:	c8 57       	subi	r28, 0x78	; 120
    472e:	d1 40       	sbci	r29, 0x01	; 1
    4730:	fc ab       	std	Y+52, r31	; 0x34
    4732:	c7 58       	subi	r28, 0x87	; 135
    4734:	de 4f       	sbci	r29, 0xFE	; 254
    4736:	28 81       	ld	r18, Y
    4738:	c9 57       	subi	r28, 0x79	; 121
    473a:	d1 40       	sbci	r29, 0x01	; 1
    473c:	2d ab       	std	Y+53, r18	; 0x35
    473e:	c6 58       	subi	r28, 0x86	; 134
    4740:	de 4f       	sbci	r29, 0xFE	; 254
    4742:	f8 81       	ld	r31, Y
    4744:	ca 57       	subi	r28, 0x7A	; 122
    4746:	d1 40       	sbci	r29, 0x01	; 1
    4748:	fe ab       	std	Y+54, r31	; 0x36
    474a:	cd 58       	subi	r28, 0x8D	; 141
    474c:	de 4f       	sbci	r29, 0xFE	; 254
    474e:	28 81       	ld	r18, Y
    4750:	c3 57       	subi	r28, 0x73	; 115
    4752:	d1 40       	sbci	r29, 0x01	; 1
    4754:	2f a7       	std	Y+47, r18	; 0x2f
    4756:	cc 58       	subi	r28, 0x8C	; 140
    4758:	de 4f       	sbci	r29, 0xFE	; 254
    475a:	f8 81       	ld	r31, Y
    475c:	c4 57       	subi	r28, 0x74	; 116
    475e:	d1 40       	sbci	r29, 0x01	; 1
    4760:	f8 ab       	std	Y+48, r31	; 0x30
    4762:	cb 58       	subi	r28, 0x8B	; 139
    4764:	de 4f       	sbci	r29, 0xFE	; 254
    4766:	28 81       	ld	r18, Y
    4768:	c5 57       	subi	r28, 0x75	; 117
    476a:	d1 40       	sbci	r29, 0x01	; 1
    476c:	29 ab       	std	Y+49, r18	; 0x31
    476e:	ca 58       	subi	r28, 0x8A	; 138
    4770:	de 4f       	sbci	r29, 0xFE	; 254
    4772:	f8 81       	ld	r31, Y
    4774:	c6 57       	subi	r28, 0x76	; 118
    4776:	d1 40       	sbci	r29, 0x01	; 1
    4778:	fa ab       	std	Y+50, r31	; 0x32
    477a:	c1 59       	subi	r28, 0x91	; 145
    477c:	de 4f       	sbci	r29, 0xFE	; 254
    477e:	28 81       	ld	r18, Y
    4780:	cf 56       	subi	r28, 0x6F	; 111
    4782:	d1 40       	sbci	r29, 0x01	; 1
    4784:	2b a7       	std	Y+43, r18	; 0x2b
    4786:	c0 59       	subi	r28, 0x90	; 144
    4788:	de 4f       	sbci	r29, 0xFE	; 254
    478a:	f8 81       	ld	r31, Y
    478c:	c0 57       	subi	r28, 0x70	; 112
    478e:	d1 40       	sbci	r29, 0x01	; 1
    4790:	fc a7       	std	Y+44, r31	; 0x2c
    4792:	cf 58       	subi	r28, 0x8F	; 143
    4794:	de 4f       	sbci	r29, 0xFE	; 254
    4796:	28 81       	ld	r18, Y
    4798:	c1 57       	subi	r28, 0x71	; 113
    479a:	d1 40       	sbci	r29, 0x01	; 1
    479c:	2d a7       	std	Y+45, r18	; 0x2d
    479e:	ce 58       	subi	r28, 0x8E	; 142
    47a0:	de 4f       	sbci	r29, 0xFE	; 254
    47a2:	f8 81       	ld	r31, Y
    47a4:	c2 57       	subi	r28, 0x72	; 114
    47a6:	d1 40       	sbci	r29, 0x01	; 1
    47a8:	fe a7       	std	Y+46, r31	; 0x2e
    47aa:	c5 59       	subi	r28, 0x95	; 149
    47ac:	de 4f       	sbci	r29, 0xFE	; 254
    47ae:	28 81       	ld	r18, Y
    47b0:	cb 56       	subi	r28, 0x6B	; 107
    47b2:	d1 40       	sbci	r29, 0x01	; 1
    47b4:	2b 87       	std	Y+11, r18	; 0x0b
    47b6:	c4 59       	subi	r28, 0x94	; 148
    47b8:	de 4f       	sbci	r29, 0xFE	; 254
    47ba:	f8 81       	ld	r31, Y
    47bc:	cc 56       	subi	r28, 0x6C	; 108
    47be:	d1 40       	sbci	r29, 0x01	; 1
    47c0:	fc 87       	std	Y+12, r31	; 0x0c
    47c2:	c3 59       	subi	r28, 0x93	; 147
    47c4:	de 4f       	sbci	r29, 0xFE	; 254
    47c6:	28 81       	ld	r18, Y
    47c8:	cd 56       	subi	r28, 0x6D	; 109
    47ca:	d1 40       	sbci	r29, 0x01	; 1
    47cc:	2d 87       	std	Y+13, r18	; 0x0d
    47ce:	c2 59       	subi	r28, 0x92	; 146
    47d0:	de 4f       	sbci	r29, 0xFE	; 254
    47d2:	f8 81       	ld	r31, Y
    47d4:	ce 56       	subi	r28, 0x6E	; 110
    47d6:	d1 40       	sbci	r29, 0x01	; 1
    47d8:	fe 87       	std	Y+14, r31	; 0x0e
    47da:	c9 59       	subi	r28, 0x99	; 153
    47dc:	de 4f       	sbci	r29, 0xFE	; 254
    47de:	18 81       	ld	r17, Y
    47e0:	c7 56       	subi	r28, 0x67	; 103
    47e2:	d1 40       	sbci	r29, 0x01	; 1
    47e4:	c8 59       	subi	r28, 0x98	; 152
    47e6:	de 4f       	sbci	r29, 0xFE	; 254
    47e8:	b8 81       	ld	r27, Y
    47ea:	c8 56       	subi	r28, 0x68	; 104
    47ec:	d1 40       	sbci	r29, 0x01	; 1
    47ee:	c7 59       	subi	r28, 0x97	; 151
    47f0:	de 4f       	sbci	r29, 0xFE	; 254
    47f2:	a8 81       	ld	r26, Y
    47f4:	c9 56       	subi	r28, 0x69	; 105
    47f6:	d1 40       	sbci	r29, 0x01	; 1
    47f8:	c6 59       	subi	r28, 0x96	; 150
    47fa:	de 4f       	sbci	r29, 0xFE	; 254
    47fc:	f8 81       	ld	r31, Y
    47fe:	ca 56       	subi	r28, 0x6A	; 106
    4800:	d1 40       	sbci	r29, 0x01	; 1
    4802:	0c 94 6d 12 	jmp	0x24da	; 0x24da <SetSensorConfig+0x1b16>

00004806 <SetExposure>:
    4806:	0f 93       	push	r16
    4808:	1f 93       	push	r17
    480a:	cf 93       	push	r28
    480c:	df 93       	push	r29
    480e:	1f 92       	push	r1
    4810:	cd b7       	in	r28, 0x3d	; 61
    4812:	de b7       	in	r29, 0x3e	; 62
    4814:	80 91 80 01 	lds	r24, 0x0180	; 0x800180 <SpiFifo>
    4818:	90 91 81 01 	lds	r25, 0x0181	; 0x800181 <SpiFifo+0x1>
    481c:	0e 94 f5 02 	call	0x5ea	; 0x5ea <QueueIsEmpty>
    4820:	81 11       	cpse	r24, r1
    4822:	f8 cf       	rjmp	.-16     	; 0x4814 <SetExposure+0xe>
    4824:	80 91 80 01 	lds	r24, 0x0180	; 0x800180 <SpiFifo>
    4828:	90 91 81 01 	lds	r25, 0x0181	; 0x800181 <SpiFifo+0x1>
    482c:	0e 94 cb 02 	call	0x596	; 0x596 <QueuePop>
    4830:	08 2f       	mov	r16, r24
    4832:	80 91 80 01 	lds	r24, 0x0180	; 0x800180 <SpiFifo>
    4836:	90 91 81 01 	lds	r25, 0x0181	; 0x800181 <SpiFifo+0x1>
    483a:	0e 94 f5 02 	call	0x5ea	; 0x5ea <QueueIsEmpty>
    483e:	81 11       	cpse	r24, r1
    4840:	f8 cf       	rjmp	.-16     	; 0x4832 <SetExposure+0x2c>
    4842:	80 91 80 01 	lds	r24, 0x0180	; 0x800180 <SpiFifo>
    4846:	90 91 81 01 	lds	r25, 0x0181	; 0x800181 <SpiFifo+0x1>
    484a:	0e 94 cb 02 	call	0x596	; 0x596 <QueuePop>
    484e:	18 2f       	mov	r17, r24
    4850:	19 82       	std	Y+1, r1	; 0x01
    4852:	e0 91 16 01 	lds	r30, 0x0116	; 0x800116 <WriteSpiMaster>
    4856:	f0 91 17 01 	lds	r31, 0x0117	; 0x800117 <WriteSpiMaster+0x1>
    485a:	61 e0       	ldi	r22, 0x01	; 1
    485c:	70 e0       	ldi	r23, 0x00	; 0
    485e:	ce 01       	movw	r24, r28
    4860:	01 96       	adiw	r24, 0x01	; 1
    4862:	09 95       	icall
    4864:	81 2f       	mov	r24, r17
    4866:	90 e0       	ldi	r25, 0x00	; 0
    4868:	90 2b       	or	r25, r16
    486a:	90 93 83 01 	sts	0x0183, r25	; 0x800183 <exposure_ticks+0x1>
    486e:	80 93 82 01 	sts	0x0182, r24	; 0x800182 <exposure_ticks>
    4872:	0f 90       	pop	r0
    4874:	df 91       	pop	r29
    4876:	cf 91       	pop	r28
    4878:	1f 91       	pop	r17
    487a:	0f 91       	pop	r16
    487c:	08 95       	ret

0000487e <ProgramPhotodiodeArray_Implementation>:
    487e:	cf 92       	push	r12
    4880:	df 92       	push	r13
    4882:	ef 92       	push	r14
    4884:	ff 92       	push	r15
    4886:	6b 01       	movw	r12, r22
    4888:	7c 01       	movw	r14, r24
    488a:	0e 94 8b 01 	call	0x316	; 0x316 <EnterLisProgrammingMode>
    488e:	21 e0       	ldi	r18, 0x01	; 1
    4890:	30 e0       	ldi	r19, 0x00	; 0
    4892:	41 e0       	ldi	r20, 0x01	; 1
    4894:	50 e0       	ldi	r21, 0x00	; 0
    4896:	ca 01       	movw	r24, r20
    4898:	02 2e       	mov	r0, r18
    489a:	02 c0       	rjmp	.+4      	; 0x48a0 <ProgramPhotodiodeArray_Implementation+0x22>
    489c:	88 0f       	add	r24, r24
    489e:	99 1f       	adc	r25, r25
    48a0:	0a 94       	dec	r0
    48a2:	e2 f7       	brpl	.-8      	; 0x489c <ProgramPhotodiodeArray_Implementation+0x1e>
    48a4:	09 2e       	mov	r0, r25
    48a6:	00 0c       	add	r0, r0
    48a8:	aa 0b       	sbc	r26, r26
    48aa:	bb 0b       	sbc	r27, r27
    48ac:	8c 21       	and	r24, r12
    48ae:	9d 21       	and	r25, r13
    48b0:	ae 21       	and	r26, r14
    48b2:	bf 21       	and	r27, r15
    48b4:	89 2b       	or	r24, r25
    48b6:	8a 2b       	or	r24, r26
    48b8:	8b 2b       	or	r24, r27
    48ba:	a1 f0       	breq	.+40     	; 0x48e4 <ProgramPhotodiodeArray_Implementation+0x66>
    48bc:	5e 9a       	sbi	0x0b, 6	; 11
    48be:	a9 9a       	sbi	0x15, 1	; 21
    48c0:	a9 9b       	sbis	0x15, 1	; 21
    48c2:	fe cf       	rjmp	.-4      	; 0x48c0 <ProgramPhotodiodeArray_Implementation+0x42>
    48c4:	a9 9a       	sbi	0x15, 1	; 21
    48c6:	aa 9a       	sbi	0x15, 2	; 21
    48c8:	aa 9b       	sbis	0x15, 2	; 21
    48ca:	fe cf       	rjmp	.-4      	; 0x48c8 <ProgramPhotodiodeArray_Implementation+0x4a>
    48cc:	aa 9a       	sbi	0x15, 2	; 21
    48ce:	2f 5f       	subi	r18, 0xFF	; 255
    48d0:	3f 4f       	sbci	r19, 0xFF	; 255
    48d2:	2d 31       	cpi	r18, 0x1D	; 29
    48d4:	31 05       	cpc	r19, r1
    48d6:	f9 f6       	brne	.-66     	; 0x4896 <ProgramPhotodiodeArray_Implementation+0x18>
    48d8:	ff 90       	pop	r15
    48da:	ef 90       	pop	r14
    48dc:	df 90       	pop	r13
    48de:	cf 90       	pop	r12
    48e0:	0c 94 b5 01 	jmp	0x36a	; 0x36a <ExitLisProgrammingMode>
    48e4:	5e 98       	cbi	0x0b, 6	; 11
    48e6:	eb cf       	rjmp	.-42     	; 0x48be <ProgramPhotodiodeArray_Implementation+0x40>

000048e8 <main>:
/* =====[ Allocate memory for one Frame of pixel data ]===== */
/* #define npixels 784 */
uint8_t frame[npixels*2];

int main()
{
    48e8:	cf 93       	push	r28
    48ea:	df 93       	push	r29
    48ec:	1f 92       	push	r1
    48ee:	cd b7       	in	r28, 0x3d	; 61
    48f0:	de b7       	in	r29, 0x3e	; 62
    48f2:	38 9a       	sbi	0x07, 0	; 7
    48f4:	39 9a       	sbi	0x07, 1	; 7
}
inline void ClearBit(uint8_t volatile * const port, uint8_t const bit)
{
    *port &= ~(1<<bit);
    48f6:	40 98       	cbi	0x08, 0	; 8
    48f8:	41 98       	cbi	0x08, 1	; 8
    // Turn both LEDs green.
    BiColorLedGreen(led_0);
    BiColorLedGreen(led_1);
    // Sensor is a SPI slave.
    // See SPI interrupt routine at `ISR(SPI_STC_vect)`.
    SpiSlaveInit();
    48fa:	0e 94 7a 00 	call	0xf4	; 0xf4 <SpiSlaveInit>
    // Create a FIFO buffer to queue bytes incoming over SPI.
    SpiFifo = QueueInit(spi_rx_buffer, max_length_of_queue);
    48fe:	65 e0       	ldi	r22, 0x05	; 5
    4900:	70 e0       	ldi	r23, 0x00	; 0
    4902:	85 e8       	ldi	r24, 0x85	; 133
    4904:	91 e0       	ldi	r25, 0x01	; 1
    4906:	0e 94 9f 02 	call	0x53e	; 0x53e <QueueInit>
    490a:	90 93 81 01 	sts	0x0181, r25	; 0x800181 <SpiFifo+0x1>
    490e:	80 93 80 01 	sts	0x0180, r24	; 0x800180 <SpiFifo>
    // Use UART to talk to ADC with SPI interface.
    UartSpiInit();
    4912:	0e 94 db 00 	call	0x1b6	; 0x1b6 <UartSpiInit>
    // Power up the linear array. Start 50kHz clock.
    LisInit();
    4916:	0e 94 d8 01 	call	0x3b0	; 0x3b0 <LisInit>
    // Use globals because it is an easy way to share data with an ISR.
    /* HasSpiData = false; // global flag to track if there is SpiData */
    /* SpiData = 0x00; // global one-byte register to store SpiData */
    /* =====[ Initialize Globals: Photodiode Array Config ]===== */
    // Use globals because it is an easy way to share data with lib SensorVis
    binning = binning_on; // default to 392 pixels
    491a:	81 e0       	ldi	r24, 0x01	; 1
    491c:	80 93 84 01 	sts	0x0184, r24	; 0x800184 <binning>
    gain = gain1x; // default to 1x gain
    4920:	80 93 8b 01 	sts	0x018B, r24	; 0x80018b <gain>
    active_rows = all_rows_active; // default to using all 5 pixel rows
    4924:	8f e1       	ldi	r24, 0x1F	; 31
    4926:	80 93 8a 01 	sts	0x018A, r24	; 0x80018a <active_rows>
    exposure_ticks = 50; // multiply by 20us to get integration time in seconds
    492a:	82 e3       	ldi	r24, 0x32	; 50
    492c:	90 e0       	ldi	r25, 0x00	; 0
    492e:	90 93 83 01 	sts	0x0183, r25	; 0x800183 <exposure_ticks+0x1>
    4932:	80 93 82 01 	sts	0x0182, r24	; 0x800182 <exposure_ticks>

/* --------------------------------------------------------------------------------------- */
/* Define command functions in jump table */
void ReplyCommandInvalid(void)
{
    uint8_t cmd_invalid[] = {invalid_cmd};
    4936:	12 e0       	ldi	r17, 0x02	; 2
    // Loop forever acting on commands from the SPI Master.
    while(1) Get_commands_from_SpiMaster();
}
void Get_commands_from_SpiMaster(void)
{
    while (QueueIsEmpty(SpiFifo)); // idle until a command is received
    4938:	80 91 80 01 	lds	r24, 0x0180	; 0x800180 <SpiFifo>
    493c:	90 91 81 01 	lds	r25, 0x0181	; 0x800181 <SpiFifo+0x1>
    4940:	0e 94 f5 02 	call	0x5ea	; 0x5ea <QueueIsEmpty>
    4944:	81 11       	cpse	r24, r1
    4946:	f8 cf       	rjmp	.-16     	; 0x4938 <main+0x50>
    // Queue is no longer empty once a command byte is received over SPI.
    // The SPI ISR pushes the command byte onto the SPI Rx Queue.
    // Pop the command and execute it.
    SensorCmd* SensorCmdFn = LookupSensorCmd(QueuePop(SpiFifo));
    4948:	80 91 80 01 	lds	r24, 0x0180	; 0x800180 <SpiFifo>
    494c:	90 91 81 01 	lds	r25, 0x0181	; 0x800181 <SpiFifo+0x1>
    4950:	0e 94 cb 02 	call	0x596	; 0x596 <QueuePop>
        GetExposure, // 9
        SetExposure, // 10
        CaptureFrame, // 11
        };
    // Return func ptr. Prevent attempts at out-of-bounds access.
    if (key < sizeof(pf)/sizeof(*pf)) return pf[key];
    4954:	8c 30       	cpi	r24, 0x0C	; 12
    4956:	58 f0       	brcs	.+22     	; 0x496e <main+0x86>

/* --------------------------------------------------------------------------------------- */
/* Define command functions in jump table */
void ReplyCommandInvalid(void)
{
    uint8_t cmd_invalid[] = {invalid_cmd};
    4958:	19 83       	std	Y+1, r17	; 0x01
    WriteSpiMaster(cmd_invalid, 1);
    495a:	e0 91 16 01 	lds	r30, 0x0116	; 0x800116 <WriteSpiMaster>
    495e:	f0 91 17 01 	lds	r31, 0x0117	; 0x800117 <WriteSpiMaster+0x1>
    4962:	61 e0       	ldi	r22, 0x01	; 1
    4964:	70 e0       	ldi	r23, 0x00	; 0
    4966:	ce 01       	movw	r24, r28
    4968:	01 96       	adiw	r24, 0x01	; 1
    496a:	09 95       	icall
    496c:	e5 cf       	rjmp	.-54     	; 0x4938 <main+0x50>
        GetExposure, // 9
        SetExposure, // 10
        CaptureFrame, // 11
        };
    // Return func ptr. Prevent attempts at out-of-bounds access.
    if (key < sizeof(pf)/sizeof(*pf)) return pf[key];
    496e:	e8 2f       	mov	r30, r24
    4970:	f0 e0       	ldi	r31, 0x00	; 0
    4972:	ee 0f       	add	r30, r30
    4974:	ff 1f       	adc	r31, r31
    4976:	e0 5e       	subi	r30, 0xE0	; 224
    4978:	fe 4f       	sbci	r31, 0xFE	; 254
    497a:	01 90       	ld	r0, Z+
    497c:	f0 81       	ld	r31, Z
    497e:	e0 2d       	mov	r30, r0
    if (SensorCmdFn == NULL) ReplyCommandInvalid();
    4980:	30 97       	sbiw	r30, 0x00	; 0
    4982:	51 f3       	breq	.-44     	; 0x4958 <main+0x70>
    else SensorCmdFn();
    4984:	09 95       	icall
    4986:	d8 cf       	rjmp	.-80     	; 0x4938 <main+0x50>

00004988 <__vector_17>:
}
ISR(SPI_STC_vect)
{
    4988:	1f 92       	push	r1
    498a:	0f 92       	push	r0
    498c:	0f b6       	in	r0, 0x3f	; 63
    498e:	0f 92       	push	r0
    4990:	11 24       	eor	r1, r1
    4992:	2f 93       	push	r18
    4994:	3f 93       	push	r19
    4996:	4f 93       	push	r20
    4998:	5f 93       	push	r21
    499a:	6f 93       	push	r22
    499c:	7f 93       	push	r23
    499e:	8f 93       	push	r24
    49a0:	9f 93       	push	r25
    49a2:	af 93       	push	r26
    49a4:	bf 93       	push	r27
    49a6:	ef 93       	push	r30
    49a8:	ff 93       	push	r31
    // Program counter jumped from "client" code.
    // ISR is the same routine, whether "client" is in a SPI read or a SPI write.

    // Client stuck in loop `while (QueueIsEmpty(SpiFifo));` when ISR is called
    //
    if (QueueIsFull(SpiFifo)) DEBUG_LedsShowError(); // TODO: add error handler
    49aa:	80 91 80 01 	lds	r24, 0x0180	; 0x800180 <SpiFifo>
    49ae:	90 91 81 01 	lds	r25, 0x0181	; 0x800181 <SpiFifo+0x1>
    49b2:	0e 94 ea 02 	call	0x5d4	; 0x5d4 <QueueIsFull>
    49b6:	88 23       	and	r24, r24
    49b8:	99 f0       	breq	.+38     	; 0x49e0 <__vector_17+0x58>
/* | 2019-03-04 WIP: inline version of ReadWriteBits | */
/* --------------------------------------------------- */

inline void SetBit(uint8_t volatile * const port, uint8_t const bit)
{
    *port |= 1<<bit;
    49ba:	40 9a       	sbi	0x08, 0	; 8
    49bc:	41 9a       	sbi	0x08, 1	; 8
    // so that it does not send the byte before the Slave has a chance to see
    // the queue is empty. The Slave waits for QueueIsEmpty to be true after
    // writing each byte to the Master (to avoid overwriting SPDR during a
    // transmission). So the Slave would hang if it does not get a chance to see
    // the queue is empty after the final byte is transmitted.
}
    49be:	ff 91       	pop	r31
    49c0:	ef 91       	pop	r30
    49c2:	bf 91       	pop	r27
    49c4:	af 91       	pop	r26
    49c6:	9f 91       	pop	r25
    49c8:	8f 91       	pop	r24
    49ca:	7f 91       	pop	r23
    49cc:	6f 91       	pop	r22
    49ce:	5f 91       	pop	r21
    49d0:	4f 91       	pop	r20
    49d2:	3f 91       	pop	r19
    49d4:	2f 91       	pop	r18
    49d6:	0f 90       	pop	r0
    49d8:	0f be       	out	0x3f, r0	; 63
    49da:	0f 90       	pop	r0
    49dc:	1f 90       	pop	r1
    49de:	18 95       	reti
    // Client stuck in loop `while (QueueIsEmpty(SpiFifo));` when ISR is called
    //
    if (QueueIsFull(SpiFifo)) DEBUG_LedsShowError(); // TODO: add error handler
    else
    {
        QueuePush(SpiFifo, *Spi_spdr); // "client" must pop data from SpiFifo queue
    49e0:	6e b5       	in	r22, 0x2e	; 46
    49e2:	80 91 80 01 	lds	r24, 0x0180	; 0x800180 <SpiFifo>
    49e6:	90 91 81 01 	lds	r25, 0x0181	; 0x800181 <SpiFifo+0x1>
    49ea:	0e 94 ab 02 	call	0x556	; 0x556 <QueuePush>
    // so that it does not send the byte before the Slave has a chance to see
    // the queue is empty. The Slave waits for QueueIsEmpty to be true after
    // writing each byte to the Master (to avoid overwriting SPDR during a
    // transmission). So the Slave would hang if it does not get a chance to see
    // the queue is empty after the final byte is transmitted.
}
    49ee:	e7 cf       	rjmp	.-50     	; 0x49be <__vector_17+0x36>

000049f0 <GlobalInterruptEnable_Implementation>:
#include <avr/interrupt.h>      // defines macros `sei()` and `cli()`
#include <util/delay_basic.h>   // defines microsecond delay loop

// sei()
static void GlobalInterruptEnable_Implementation(void)
{ sei(); }
    49f0:	78 94       	sei
    49f2:	08 95       	ret

000049f4 <GlobalInterruptDisable_Implementation>:
void (*GlobalInterruptEnable)(void) = GlobalInterruptEnable_Implementation;

// cli()
static void GlobalInterruptDisable_Implementation(void)
{ cli(); }
    49f4:	f8 94       	cli
    49f6:	08 95       	ret

000049f8 <Delay3CpuCyclesPerTick_Implementation>:
    can be achieved.
*/
void
_delay_loop_1(uint8_t __count)
{
	__asm__ volatile (
    49f8:	8a 95       	dec	r24
    49fa:	f1 f7       	brne	.-4      	; 0x49f8 <Delay3CpuCyclesPerTick_Implementation>
    49fc:	08 95       	ret

000049fe <_exit>:
    49fe:	f8 94       	cli

00004a00 <__stop_program>:
    4a00:	ff cf       	rjmp	.-2      	; 0x4a00 <__stop_program>
