
build/simBrd.elf:     file format elf32-avr

Sections:
Idx Name          Size      VMA       LMA       File off  Algn
  0 .data         00000036  00800100  000004d8  0000056c  2**0
                  CONTENTS, ALLOC, LOAD, DATA
  1 .text         000004d8  00000000  00000000  00000094  2**1
                  CONTENTS, ALLOC, LOAD, READONLY, CODE
  2 .bss          00000007  00800136  00800136  000005a2  2**0
                  ALLOC
  3 .comment      00000030  00000000  00000000  000005a2  2**0
                  CONTENTS, READONLY
  4 .note.gnu.avr.deviceinfo 00000040  00000000  00000000  000005d4  2**2
                  CONTENTS, READONLY
  5 .debug_aranges 00000220  00000000  00000000  00000614  2**0
                  CONTENTS, READONLY, DEBUGGING
  6 .debug_info   00001848  00000000  00000000  00000834  2**0
                  CONTENTS, READONLY, DEBUGGING
  7 .debug_abbrev 00000c55  00000000  00000000  0000207c  2**0
                  CONTENTS, READONLY, DEBUGGING
  8 .debug_line   000009f8  00000000  00000000  00002cd1  2**0
                  CONTENTS, READONLY, DEBUGGING
  9 .debug_frame  0000044c  00000000  00000000  000036cc  2**2
                  CONTENTS, READONLY, DEBUGGING
 10 .debug_str    00000aec  00000000  00000000  00003b18  2**0
                  CONTENTS, READONLY, DEBUGGING
 11 .debug_loc    000005bd  00000000  00000000  00004604  2**0
                  CONTENTS, READONLY, DEBUGGING
 12 .debug_ranges 000001d0  00000000  00000000  00004bc1  2**0
                  CONTENTS, READONLY, DEBUGGING

Disassembly of section .text:

00000000 <__vectors>:
   0:	0c 94 34 00 	jmp	0x68	; 0x68 <__ctors_end>
   4:	0c 94 51 00 	jmp	0xa2	; 0xa2 <__bad_interrupt>
   8:	0c 94 51 00 	jmp	0xa2	; 0xa2 <__bad_interrupt>
   c:	0c 94 51 00 	jmp	0xa2	; 0xa2 <__bad_interrupt>
  10:	0c 94 51 00 	jmp	0xa2	; 0xa2 <__bad_interrupt>
  14:	0c 94 51 00 	jmp	0xa2	; 0xa2 <__bad_interrupt>
  18:	0c 94 51 00 	jmp	0xa2	; 0xa2 <__bad_interrupt>
  1c:	0c 94 51 00 	jmp	0xa2	; 0xa2 <__bad_interrupt>
  20:	0c 94 51 00 	jmp	0xa2	; 0xa2 <__bad_interrupt>
  24:	0c 94 51 00 	jmp	0xa2	; 0xa2 <__bad_interrupt>
  28:	0c 94 51 00 	jmp	0xa2	; 0xa2 <__bad_interrupt>
  2c:	0c 94 51 00 	jmp	0xa2	; 0xa2 <__bad_interrupt>
  30:	0c 94 51 00 	jmp	0xa2	; 0xa2 <__bad_interrupt>
  34:	0c 94 51 00 	jmp	0xa2	; 0xa2 <__bad_interrupt>
  38:	0c 94 51 00 	jmp	0xa2	; 0xa2 <__bad_interrupt>
  3c:	0c 94 51 00 	jmp	0xa2	; 0xa2 <__bad_interrupt>
  40:	0c 94 51 00 	jmp	0xa2	; 0xa2 <__bad_interrupt>
  44:	0c 94 51 00 	jmp	0xa2	; 0xa2 <__bad_interrupt>
  48:	0c 94 51 00 	jmp	0xa2	; 0xa2 <__bad_interrupt>
  4c:	0c 94 51 00 	jmp	0xa2	; 0xa2 <__bad_interrupt>
  50:	0c 94 51 00 	jmp	0xa2	; 0xa2 <__bad_interrupt>
  54:	0c 94 51 00 	jmp	0xa2	; 0xa2 <__bad_interrupt>
  58:	0c 94 51 00 	jmp	0xa2	; 0xa2 <__bad_interrupt>
  5c:	0c 94 51 00 	jmp	0xa2	; 0xa2 <__bad_interrupt>
  60:	0c 94 51 00 	jmp	0xa2	; 0xa2 <__bad_interrupt>
  64:	0c 94 51 00 	jmp	0xa2	; 0xa2 <__bad_interrupt>

00000068 <__ctors_end>:
  68:	11 24       	eor	r1, r1
  6a:	1f be       	out	0x3f, r1	; 63
  6c:	cf ef       	ldi	r28, 0xFF	; 255
  6e:	d8 e0       	ldi	r29, 0x08	; 8
  70:	de bf       	out	0x3e, r29	; 62
  72:	cd bf       	out	0x3d, r28	; 61

00000074 <__do_copy_data>:
  74:	11 e0       	ldi	r17, 0x01	; 1
  76:	a0 e0       	ldi	r26, 0x00	; 0
  78:	b1 e0       	ldi	r27, 0x01	; 1
  7a:	e8 ed       	ldi	r30, 0xD8	; 216
  7c:	f4 e0       	ldi	r31, 0x04	; 4
  7e:	02 c0       	rjmp	.+4      	; 0x84 <__do_copy_data+0x10>
  80:	05 90       	lpm	r0, Z+
  82:	0d 92       	st	X+, r0
  84:	a6 33       	cpi	r26, 0x36	; 54
  86:	b1 07       	cpc	r27, r17
  88:	d9 f7       	brne	.-10     	; 0x80 <__do_copy_data+0xc>

0000008a <__do_clear_bss>:
  8a:	21 e0       	ldi	r18, 0x01	; 1
  8c:	a6 e3       	ldi	r26, 0x36	; 54
  8e:	b1 e0       	ldi	r27, 0x01	; 1
  90:	01 c0       	rjmp	.+2      	; 0x94 <.do_clear_bss_start>

00000092 <.do_clear_bss_loop>:
  92:	1d 92       	st	X+, r1

00000094 <.do_clear_bss_start>:
  94:	ad 33       	cpi	r26, 0x3D	; 61
  96:	b2 07       	cpc	r27, r18
  98:	e1 f7       	brne	.-8      	; 0x92 <.do_clear_bss_loop>
  9a:	0e 94 66 02 	call	0x4cc	; 0x4cc <main>
  9e:	0c 94 6a 02 	jmp	0x4d4	; 0x4d4 <_exit>

000000a2 <__bad_interrupt>:
  a2:	0c 94 00 00 	jmp	0	; 0x0 <__vectors>

000000a6 <SetBit>:
    *port ^= (1<<bit);
}

bool BitIsSet(uint8_t volatile * const port, uint8_t const bit) {
    return *port & (1<<bit);
}
  a6:	fc 01       	movw	r30, r24
  a8:	40 81       	ld	r20, Z
  aa:	21 e0       	ldi	r18, 0x01	; 1
  ac:	30 e0       	ldi	r19, 0x00	; 0
  ae:	02 c0       	rjmp	.+4      	; 0xb4 <SetBit+0xe>
  b0:	22 0f       	add	r18, r18
  b2:	33 1f       	adc	r19, r19
  b4:	6a 95       	dec	r22
  b6:	e2 f7       	brpl	.-8      	; 0xb0 <SetBit+0xa>
  b8:	24 2b       	or	r18, r20
  ba:	20 83       	st	Z, r18
  bc:	08 95       	ret

000000be <ClearBit>:
  be:	fc 01       	movw	r30, r24
  c0:	90 81       	ld	r25, Z
  c2:	21 e0       	ldi	r18, 0x01	; 1
  c4:	30 e0       	ldi	r19, 0x00	; 0
  c6:	02 c0       	rjmp	.+4      	; 0xcc <ClearBit+0xe>
  c8:	22 0f       	add	r18, r18
  ca:	33 1f       	adc	r19, r19
  cc:	6a 95       	dec	r22
  ce:	e2 f7       	brpl	.-8      	; 0xc8 <ClearBit+0xa>
  d0:	20 95       	com	r18
  d2:	29 23       	and	r18, r25
  d4:	20 83       	st	Z, r18
  d6:	08 95       	ret

000000d8 <BitIsClear>:

bool BitIsClear(uint8_t volatile * const port, uint8_t const bit) {
    return !(*port & (1<<bit));
  d8:	fc 01       	movw	r30, r24
  da:	80 81       	ld	r24, Z
  dc:	90 e0       	ldi	r25, 0x00	; 0
  de:	02 c0       	rjmp	.+4      	; 0xe4 <BitIsClear+0xc>
  e0:	95 95       	asr	r25
  e2:	87 95       	ror	r24
  e4:	6a 95       	dec	r22
  e6:	e2 f7       	brpl	.-8      	; 0xe0 <BitIsClear+0x8>
  e8:	f1 e0       	ldi	r31, 0x01	; 1
  ea:	8f 27       	eor	r24, r31
}
  ec:	81 70       	andi	r24, 0x01	; 1
  ee:	08 95       	ret

000000f0 <DebugLedTurnOn_Implementation>:
    DebugLedTurnGreen();
}

static void DebugLedTurnOn_Implementation(void)
{
    SetBit(ddr_register_, debug_led_);
  f0:	60 91 36 01 	lds	r22, 0x0136	; 0x800136 <__data_end>
  f4:	80 91 3b 01 	lds	r24, 0x013B	; 0x80013b <ddr_register_>
  f8:	90 91 3c 01 	lds	r25, 0x013C	; 0x80013c <ddr_register_+0x1>
  fc:	0e 94 53 00 	call	0xa6	; 0xa6 <SetBit>
 100:	08 95       	ret

00000102 <DebugLedTurnRed>:
}
void (*DebugLedTurnGreen)(void) = DebugLedTurnGreen_Implementation;

void DebugLedTurnRed(void)
{
    SetBit(port_register_, debug_led_);
 102:	60 91 36 01 	lds	r22, 0x0136	; 0x800136 <__data_end>
 106:	80 91 39 01 	lds	r24, 0x0139	; 0x800139 <port_register_>
 10a:	90 91 3a 01 	lds	r25, 0x013A	; 0x80013a <port_register_+0x1>
 10e:	0e 94 53 00 	call	0xa6	; 0xa6 <SetBit>
 112:	08 95       	ret

00000114 <DebugLedTurnGreen_Implementation>:
    ClearBit(ddr_register_, debug_led_);
}

static void DebugLedTurnGreen_Implementation(void)
{
    ClearBit(port_register_, debug_led_);
 114:	60 91 36 01 	lds	r22, 0x0136	; 0x800136 <__data_end>
 118:	80 91 39 01 	lds	r24, 0x0139	; 0x800139 <port_register_>
 11c:	90 91 3a 01 	lds	r25, 0x013A	; 0x80013a <port_register_+0x1>
 120:	0e 94 5f 00 	call	0xbe	; 0xbe <ClearBit>
 124:	08 95       	ret

00000126 <DebugLedInit>:
    uint8_t volatile * const ddr_register,
    uint8_t volatile * const port_register,
    uint8_t volatile * const pin_register,
    uint8_t const debug_led)
{
    ddr_register_ = ddr_register;
 126:	90 93 3c 01 	sts	0x013C, r25	; 0x80013c <ddr_register_+0x1>
 12a:	80 93 3b 01 	sts	0x013B, r24	; 0x80013b <ddr_register_>
    port_register_ = port_register;
 12e:	70 93 3a 01 	sts	0x013A, r23	; 0x80013a <port_register_+0x1>
 132:	60 93 39 01 	sts	0x0139, r22	; 0x800139 <port_register_>
    pin_register_ = pin_register;
 136:	50 93 38 01 	sts	0x0138, r21	; 0x800138 <pin_register_+0x1>
 13a:	40 93 37 01 	sts	0x0137, r20	; 0x800137 <pin_register_>
    debug_led_ = debug_led;
 13e:	20 93 36 01 	sts	0x0136, r18	; 0x800136 <__data_end>
    DebugLedTurnOn();
 142:	e0 91 04 01 	lds	r30, 0x0104	; 0x800104 <DebugLedTurnOn>
 146:	f0 91 05 01 	lds	r31, 0x0105	; 0x800105 <DebugLedTurnOn+0x1>
 14a:	09 95       	icall
    DebugLedTurnGreen();
 14c:	e0 91 02 01 	lds	r30, 0x0102	; 0x800102 <DebugLedTurnGreen>
 150:	f0 91 03 01 	lds	r31, 0x0103	; 0x800103 <DebugLedTurnGreen+0x1>
 154:	09 95       	icall
 156:	08 95       	ret

00000158 <FtSendCommand_Implementation>:
bool (*FtHasDataToRead)(void) = FtIsBusOk_Implementation;

static bool FtHasRoomToWrite_Implementation(void)
{
    return BitIsClear(FtMiosio_pin, FtMiosio0);
}
 158:	cf 93       	push	r28
 15a:	c8 2f       	mov	r28, r24
 15c:	e0 91 1a 01 	lds	r30, 0x011A	; 0x80011a <FtActivateInterface>
 160:	f0 91 1b 01 	lds	r31, 0x011B	; 0x80011b <FtActivateInterface+0x1>
 164:	09 95       	icall
 166:	e0 91 16 01 	lds	r30, 0x0116	; 0x800116 <FtPushData>
 16a:	f0 91 17 01 	lds	r31, 0x0117	; 0x800117 <FtPushData+0x1>
 16e:	09 95       	icall
 170:	e0 91 10 01 	lds	r30, 0x0110	; 0x800110 <FtLetMasterDriveBus>
 174:	f0 91 11 01 	lds	r31, 0x0111	; 0x800111 <FtLetMasterDriveBus+0x1>
 178:	09 95       	icall
 17a:	e0 91 14 01 	lds	r30, 0x0114	; 0x800114 <FtOutputByte>
 17e:	f0 91 15 01 	lds	r31, 0x0115	; 0x800115 <FtOutputByte+0x1>
 182:	8c 2f       	mov	r24, r28
 184:	09 95       	icall
 186:	e0 91 12 01 	lds	r30, 0x0112	; 0x800112 <FtPullData>
 18a:	f0 91 13 01 	lds	r31, 0x0113	; 0x800113 <FtPullData+0x1>
 18e:	09 95       	icall
 190:	cf 91       	pop	r28
 192:	08 95       	ret

00000194 <FtBusTurnaround_Implementation>:
 194:	e0 91 0e 01 	lds	r30, 0x010E	; 0x80010e <FtLetSlaveDriveBus>
 198:	f0 91 0f 01 	lds	r31, 0x010F	; 0x80010f <FtLetSlaveDriveBus+0x1>
 19c:	09 95       	icall
 19e:	e0 91 16 01 	lds	r30, 0x0116	; 0x800116 <FtPushData>
 1a2:	f0 91 17 01 	lds	r31, 0x0117	; 0x800117 <FtPushData+0x1>
 1a6:	09 95       	icall
 1a8:	e0 91 12 01 	lds	r30, 0x0112	; 0x800112 <FtPullData>
 1ac:	f0 91 13 01 	lds	r31, 0x0113	; 0x800113 <FtPullData+0x1>
 1b0:	09 95       	icall
 1b2:	e0 91 0c 01 	lds	r30, 0x010C	; 0x80010c <FtIsBusOk>
 1b6:	f0 91 0d 01 	lds	r31, 0x010D	; 0x80010d <FtIsBusOk+0x1>
 1ba:	09 95       	icall
 1bc:	08 95       	ret

000001be <FtRead_Implementation>:
 1be:	0f 93       	push	r16
 1c0:	1f 93       	push	r17
 1c2:	cf 93       	push	r28
 1c4:	8c 01       	movw	r16, r24
 1c6:	e0 91 16 01 	lds	r30, 0x0116	; 0x800116 <FtPushData>
 1ca:	f0 91 17 01 	lds	r31, 0x0117	; 0x800117 <FtPushData+0x1>
 1ce:	09 95       	icall
 1d0:	e0 91 12 01 	lds	r30, 0x0112	; 0x800112 <FtPullData>
 1d4:	f0 91 13 01 	lds	r31, 0x0113	; 0x800113 <FtPullData+0x1>
 1d8:	09 95       	icall
 1da:	e0 91 0c 01 	lds	r30, 0x010C	; 0x80010c <FtIsBusOk>
 1de:	f0 91 0d 01 	lds	r31, 0x010D	; 0x80010d <FtIsBusOk+0x1>
 1e2:	09 95       	icall
 1e4:	c8 2f       	mov	r28, r24
 1e6:	88 23       	and	r24, r24
 1e8:	39 f0       	breq	.+14     	; 0x1f8 <FtRead_Implementation+0x3a>
 1ea:	e0 91 08 01 	lds	r30, 0x0108	; 0x800108 <FtReadData>
 1ee:	f0 91 09 01 	lds	r31, 0x0109	; 0x800109 <FtReadData+0x1>
 1f2:	09 95       	icall
 1f4:	f8 01       	movw	r30, r16
 1f6:	80 83       	st	Z, r24
 1f8:	8c 2f       	mov	r24, r28
 1fa:	cf 91       	pop	r28
 1fc:	1f 91       	pop	r17
 1fe:	0f 91       	pop	r16
 200:	08 95       	ret

00000202 <FtWrite_Implementation>:
 202:	cf 93       	push	r28
 204:	df 93       	push	r29
 206:	ec 01       	movw	r28, r24
 208:	e0 91 10 01 	lds	r30, 0x0110	; 0x800110 <FtLetMasterDriveBus>
 20c:	f0 91 11 01 	lds	r31, 0x0111	; 0x800111 <FtLetMasterDriveBus+0x1>
 210:	09 95       	icall
 212:	e0 91 16 01 	lds	r30, 0x0116	; 0x800116 <FtPushData>
 216:	f0 91 17 01 	lds	r31, 0x0117	; 0x800117 <FtPushData+0x1>
 21a:	09 95       	icall
 21c:	e0 91 06 01 	lds	r30, 0x0106	; 0x800106 <FtWriteData>
 220:	f0 91 07 01 	lds	r31, 0x0107	; 0x800107 <FtWriteData+0x1>
 224:	88 81       	ld	r24, Y
 226:	09 95       	icall
 228:	e0 91 12 01 	lds	r30, 0x0112	; 0x800112 <FtPullData>
 22c:	f0 91 13 01 	lds	r31, 0x0113	; 0x800113 <FtPullData+0x1>
 230:	09 95       	icall
 232:	e0 91 0c 01 	lds	r30, 0x010C	; 0x80010c <FtIsBusOk>
 236:	f0 91 0d 01 	lds	r31, 0x010D	; 0x80010d <FtIsBusOk+0x1>
 23a:	09 95       	icall
 23c:	df 91       	pop	r29
 23e:	cf 91       	pop	r28
 240:	08 95       	ret

00000242 <FtOutputByte_Implementation>:
 242:	e0 91 2b 01 	lds	r30, 0x012B	; 0x80012b <FtMiosio_port>
 246:	f0 91 2c 01 	lds	r31, 0x012C	; 0x80012c <FtMiosio_port+0x1>
 24a:	80 83       	st	Z, r24
 24c:	08 95       	ret

0000024e <FtLetMasterDriveBus_Implementation>:
 24e:	e0 91 2d 01 	lds	r30, 0x012D	; 0x80012d <FtMiosio_ddr>
 252:	f0 91 2e 01 	lds	r31, 0x012E	; 0x80012e <FtMiosio_ddr+0x1>
 256:	8f ef       	ldi	r24, 0xFF	; 255
 258:	80 83       	st	Z, r24
 25a:	08 95       	ret

0000025c <FtLetSlaveDriveBus_Implementation>:
 25c:	e0 91 2d 01 	lds	r30, 0x012D	; 0x80012d <FtMiosio_ddr>
 260:	f0 91 2e 01 	lds	r31, 0x012E	; 0x80012e <FtMiosio_ddr+0x1>
 264:	10 82       	st	Z, r1
 266:	08 95       	ret

00000268 <FtReadData_Implementation>:
 268:	e0 91 29 01 	lds	r30, 0x0129	; 0x800129 <FtMiosio_pin>
 26c:	f0 91 2a 01 	lds	r31, 0x012A	; 0x80012a <FtMiosio_pin+0x1>
 270:	80 81       	ld	r24, Z
 272:	08 95       	ret

00000274 <FtWriteData_Implementation>:
 274:	e0 91 2b 01 	lds	r30, 0x012B	; 0x80012b <FtMiosio_port>
 278:	f0 91 2c 01 	lds	r31, 0x012C	; 0x80012c <FtMiosio_port+0x1>
 27c:	80 83       	st	Z, r24
 27e:	08 95       	ret

00000280 <FtActivateInterface_Implementation>:
 280:	60 91 28 01 	lds	r22, 0x0128	; 0x800128 <Ft1248_Ss>
 284:	80 91 31 01 	lds	r24, 0x0131	; 0x800131 <Ft1248_port>
 288:	90 91 32 01 	lds	r25, 0x0132	; 0x800132 <Ft1248_port+0x1>
 28c:	0e 94 5f 00 	call	0xbe	; 0xbe <ClearBit>
 290:	08 95       	ret

00000292 <FtPullData_Implementation>:
 292:	60 91 27 01 	lds	r22, 0x0127	; 0x800127 <Ft1248_Sck>
 296:	80 91 31 01 	lds	r24, 0x0131	; 0x800131 <Ft1248_port>
 29a:	90 91 32 01 	lds	r25, 0x0132	; 0x800132 <Ft1248_port+0x1>
 29e:	0e 94 5f 00 	call	0xbe	; 0xbe <ClearBit>
 2a2:	08 95       	ret

000002a4 <FtDeactivateInterface_Implementation>:
 2a4:	60 91 28 01 	lds	r22, 0x0128	; 0x800128 <Ft1248_Ss>
 2a8:	80 91 31 01 	lds	r24, 0x0131	; 0x800131 <Ft1248_port>
 2ac:	90 91 32 01 	lds	r25, 0x0132	; 0x800132 <Ft1248_port+0x1>
 2b0:	0e 94 53 00 	call	0xa6	; 0xa6 <SetBit>
 2b4:	08 95       	ret

000002b6 <FtPushData_Implementation>:
 2b6:	60 91 27 01 	lds	r22, 0x0127	; 0x800127 <Ft1248_Sck>
 2ba:	80 91 31 01 	lds	r24, 0x0131	; 0x800131 <Ft1248_port>
 2be:	90 91 32 01 	lds	r25, 0x0132	; 0x800132 <Ft1248_port+0x1>
 2c2:	0e 94 53 00 	call	0xa6	; 0xa6 <SetBit>
 2c6:	08 95       	ret

000002c8 <FtIsBusOk_Implementation>:
 2c8:	60 91 26 01 	lds	r22, 0x0126	; 0x800126 <Ft1248_Miso>
 2cc:	80 91 2f 01 	lds	r24, 0x012F	; 0x80012f <Ft1248_pin>
 2d0:	90 91 30 01 	lds	r25, 0x0130	; 0x800130 <Ft1248_pin+0x1>
 2d4:	0e 94 6c 00 	call	0xd8	; 0xd8 <BitIsClear>
 2d8:	08 95       	ret

000002da <FtSetMisoAsInput>:
    FtSckLow();
    FtSsHigh();
}
void FtSetMisoAsInput(void)
{
    ClearBit(Ft1248_ddr, Ft1248_Miso);
 2da:	60 91 26 01 	lds	r22, 0x0126	; 0x800126 <Ft1248_Miso>
 2de:	80 91 33 01 	lds	r24, 0x0133	; 0x800133 <Ft1248_ddr>
 2e2:	90 91 34 01 	lds	r25, 0x0134	; 0x800134 <Ft1248_ddr+0x1>
 2e6:	0e 94 5f 00 	call	0xbe	; 0xbe <ClearBit>
 2ea:	08 95       	ret

000002ec <FtEnablePullupOnMiso>:
}
void FtEnablePullupOnMiso(void)
{
    SetBit(Ft1248_port, Ft1248_Miso);
 2ec:	60 91 26 01 	lds	r22, 0x0126	; 0x800126 <Ft1248_Miso>
 2f0:	80 91 31 01 	lds	r24, 0x0131	; 0x800131 <Ft1248_port>
 2f4:	90 91 32 01 	lds	r25, 0x0132	; 0x800132 <Ft1248_port+0x1>
 2f8:	0e 94 53 00 	call	0xa6	; 0xa6 <SetBit>
 2fc:	08 95       	ret

000002fe <FtSetMiosioAsInputs>:
}
void FtSetMiosioAsInputs(void)
{
    *FtMiosio_ddr = 0x00;
 2fe:	e0 91 2d 01 	lds	r30, 0x012D	; 0x80012d <FtMiosio_ddr>
 302:	f0 91 2e 01 	lds	r31, 0x012E	; 0x80012e <FtMiosio_ddr+0x1>
 306:	10 82       	st	Z, r1
 308:	08 95       	ret

0000030a <FtEnablePullupsOnMiosio>:
}
void FtEnablePullupsOnMiosio(void)
{
    *FtMiosio_port = 0xFF;
 30a:	e0 91 2b 01 	lds	r30, 0x012B	; 0x80012b <FtMiosio_port>
 30e:	f0 91 2c 01 	lds	r31, 0x012C	; 0x80012c <FtMiosio_port+0x1>
 312:	8f ef       	ldi	r24, 0xFF	; 255
 314:	80 83       	st	Z, r24
 316:	08 95       	ret

00000318 <FtSckLow>:
}
void FtSckLow(void)
{
 318:	cf 93       	push	r28
    ClearBit(Ft1248_port, Ft1248_Sck);  // drive low
 31a:	c0 91 27 01 	lds	r28, 0x0127	; 0x800127 <Ft1248_Sck>
 31e:	6c 2f       	mov	r22, r28
 320:	80 91 31 01 	lds	r24, 0x0131	; 0x800131 <Ft1248_port>
 324:	90 91 32 01 	lds	r25, 0x0132	; 0x800132 <Ft1248_port+0x1>
 328:	0e 94 5f 00 	call	0xbe	; 0xbe <ClearBit>
    SetBit(Ft1248_ddr, Ft1248_Sck);     // cfg as output
 32c:	6c 2f       	mov	r22, r28
 32e:	80 91 33 01 	lds	r24, 0x0133	; 0x800133 <Ft1248_ddr>
 332:	90 91 34 01 	lds	r25, 0x0134	; 0x800134 <Ft1248_ddr+0x1>
 336:	0e 94 53 00 	call	0xa6	; 0xa6 <SetBit>
}
 33a:	cf 91       	pop	r28
 33c:	08 95       	ret

0000033e <FtSsHigh>:
void FtSsHigh(void)
{
 33e:	cf 93       	push	r28
    SetBit(Ft1248_port, Ft1248_Ss);     // drive high
 340:	c0 91 28 01 	lds	r28, 0x0128	; 0x800128 <Ft1248_Ss>
 344:	6c 2f       	mov	r22, r28
 346:	80 91 31 01 	lds	r24, 0x0131	; 0x800131 <Ft1248_port>
 34a:	90 91 32 01 	lds	r25, 0x0132	; 0x800132 <Ft1248_port+0x1>
 34e:	0e 94 53 00 	call	0xa6	; 0xa6 <SetBit>
    SetBit(Ft1248_ddr, Ft1248_Ss);      // cfg as output
 352:	6c 2f       	mov	r22, r28
 354:	80 91 33 01 	lds	r24, 0x0133	; 0x800133 <Ft1248_ddr>
 358:	90 91 34 01 	lds	r25, 0x0134	; 0x800134 <Ft1248_ddr+0x1>
 35c:	0e 94 53 00 	call	0xa6	; 0xa6 <SetBit>
}
 360:	cf 91       	pop	r28
 362:	08 95       	ret

00000364 <FtInit>:

//=====[ High-level API ]=====
#include "DebugLed.h"
void FtInit(void)
{
    FtSetMisoAsInput();
 364:	0e 94 6d 01 	call	0x2da	; 0x2da <FtSetMisoAsInput>
    FtEnablePullupOnMiso();
 368:	0e 94 76 01 	call	0x2ec	; 0x2ec <FtEnablePullupOnMiso>
    FtSetMiosioAsInputs();
 36c:	0e 94 7f 01 	call	0x2fe	; 0x2fe <FtSetMiosioAsInputs>
    FtEnablePullupsOnMiosio();
 370:	0e 94 85 01 	call	0x30a	; 0x30a <FtEnablePullupsOnMiosio>
    FtSckLow();
 374:	0e 94 8c 01 	call	0x318	; 0x318 <FtSckLow>
    FtSsHigh();
 378:	0e 94 9f 01 	call	0x33e	; 0x33e <FtSsHigh>
 37c:	08 95       	ret

0000037e <UsbInit>:
#include "Ft1248.h"
#include "DebugLed.h"

void UsbInit(void)
{
    FtInit();
 37e:	0e 94 b2 01 	call	0x364	; 0x364 <FtInit>
 382:	08 95       	ret

00000384 <UsbRead>:
}
uint16_t UsbRead(uint8_t *read_buffer)
{
 384:	0f 93       	push	r16
 386:	1f 93       	push	r17
 388:	cf 93       	push	r28
 38a:	df 93       	push	r29
 38c:	8c 01       	movw	r16, r24
    uint16_t num_bytes_read = 0;
    FtSendCommand(FtCmd_Read);
 38e:	e0 91 22 01 	lds	r30, 0x0122	; 0x800122 <FtSendCommand>
 392:	f0 91 23 01 	lds	r31, 0x0123	; 0x800123 <FtSendCommand+0x1>
 396:	80 91 25 01 	lds	r24, 0x0125	; 0x800125 <FtCmd_Read>
 39a:	09 95       	icall
    bool has_data_to_read = FtBusTurnaround();
 39c:	e0 91 20 01 	lds	r30, 0x0120	; 0x800120 <FtBusTurnaround>
 3a0:	f0 91 21 01 	lds	r31, 0x0121	; 0x800121 <FtBusTurnaround+0x1>
 3a4:	09 95       	icall
    if (!has_data_to_read)
 3a6:	81 11       	cpse	r24, r1
 3a8:	0f c0       	rjmp	.+30     	; 0x3c8 <UsbRead+0x44>
    {
        // sad path
        DebugLedTurnRedToShowError();
 3aa:	e0 91 00 01 	lds	r30, 0x0100	; 0x800100 <DebugLedTurnRedToShowError>
 3ae:	f0 91 01 01 	lds	r31, 0x0101	; 0x800101 <DebugLedTurnRedToShowError+0x1>
 3b2:	09 95       	icall
        FtDeactivateInterface();
 3b4:	e0 91 18 01 	lds	r30, 0x0118	; 0x800118 <FtDeactivateInterface>
 3b8:	f0 91 19 01 	lds	r31, 0x0119	; 0x800119 <FtDeactivateInterface+0x1>
 3bc:	09 95       	icall
        return num_bytes_read;
 3be:	c0 e0       	ldi	r28, 0x00	; 0
 3c0:	d0 e0       	ldi	r29, 0x00	; 0
 3c2:	13 c0       	rjmp	.+38     	; 0x3ea <UsbRead+0x66>
    }
    while (FtRead(read_buffer++))
    {
        num_bytes_read++;
 3c4:	21 96       	adiw	r28, 0x01	; 1
 3c6:	02 c0       	rjmp	.+4      	; 0x3cc <UsbRead+0x48>
 3c8:	c0 e0       	ldi	r28, 0x00	; 0
 3ca:	d0 e0       	ldi	r29, 0x00	; 0
        // sad path
        DebugLedTurnRedToShowError();
        FtDeactivateInterface();
        return num_bytes_read;
    }
    while (FtRead(read_buffer++))
 3cc:	e0 91 1e 01 	lds	r30, 0x011E	; 0x80011e <FtRead>
 3d0:	f0 91 1f 01 	lds	r31, 0x011F	; 0x80011f <FtRead+0x1>
 3d4:	c8 01       	movw	r24, r16
 3d6:	8c 0f       	add	r24, r28
 3d8:	9d 1f       	adc	r25, r29
 3da:	09 95       	icall
 3dc:	81 11       	cpse	r24, r1
 3de:	f2 cf       	rjmp	.-28     	; 0x3c4 <UsbRead+0x40>
    {
        num_bytes_read++;
    }

    FtDeactivateInterface();
 3e0:	e0 91 18 01 	lds	r30, 0x0118	; 0x800118 <FtDeactivateInterface>
 3e4:	f0 91 19 01 	lds	r31, 0x0119	; 0x800119 <FtDeactivateInterface+0x1>
 3e8:	09 95       	icall
    return num_bytes_read;
}
 3ea:	ce 01       	movw	r24, r28
 3ec:	df 91       	pop	r29
 3ee:	cf 91       	pop	r28
 3f0:	1f 91       	pop	r17
 3f2:	0f 91       	pop	r16
 3f4:	08 95       	ret

000003f6 <UsbWrite>:
uint16_t UsbWrite(uint8_t *write_buffer, uint16_t nbytes)
{
 3f6:	ef 92       	push	r14
 3f8:	ff 92       	push	r15
 3fa:	0f 93       	push	r16
 3fc:	1f 93       	push	r17
 3fe:	cf 93       	push	r28
 400:	df 93       	push	r29
 402:	8c 01       	movw	r16, r24
 404:	7b 01       	movw	r14, r22
    uint16_t num_bytes_sent = 0;
    FtSendCommand(FtCmd_Write);
 406:	e0 91 22 01 	lds	r30, 0x0122	; 0x800122 <FtSendCommand>
 40a:	f0 91 23 01 	lds	r31, 0x0123	; 0x800123 <FtSendCommand+0x1>
 40e:	80 91 24 01 	lds	r24, 0x0124	; 0x800124 <FtCmd_Write>
 412:	09 95       	icall
    if (!FtBusTurnaround())
 414:	e0 91 20 01 	lds	r30, 0x0120	; 0x800120 <FtBusTurnaround>
 418:	f0 91 21 01 	lds	r31, 0x0121	; 0x800121 <FtBusTurnaround+0x1>
 41c:	09 95       	icall
 41e:	81 11       	cpse	r24, r1
 420:	0d c0       	rjmp	.+26     	; 0x43c <__LOCK_REGION_LENGTH__+0x3c>
    {
        DebugLedTurnRedToShowError();
 422:	e0 91 00 01 	lds	r30, 0x0100	; 0x800100 <DebugLedTurnRedToShowError>
 426:	f0 91 01 01 	lds	r31, 0x0101	; 0x800101 <DebugLedTurnRedToShowError+0x1>
 42a:	09 95       	icall
        FtDeactivateInterface();
 42c:	e0 91 18 01 	lds	r30, 0x0118	; 0x800118 <FtDeactivateInterface>
 430:	f0 91 19 01 	lds	r31, 0x0119	; 0x800119 <FtDeactivateInterface+0x1>
 434:	09 95       	icall
        return num_bytes_sent;
 436:	c0 e0       	ldi	r28, 0x00	; 0
 438:	d0 e0       	ldi	r29, 0x00	; 0
 43a:	15 c0       	rjmp	.+42     	; 0x466 <__LOCK_REGION_LENGTH__+0x66>
 43c:	c0 e0       	ldi	r28, 0x00	; 0
 43e:	d0 e0       	ldi	r29, 0x00	; 0
    }
    // TODO: rename `byte_sent` as `byte_sent_OK` or `byte_was_sent`
    bool byte_sent = true; bool finished = false;
    while (byte_sent && !finished)
    {
        byte_sent = FtWrite(write_buffer++);
 440:	e0 91 1c 01 	lds	r30, 0x011C	; 0x80011c <FtWrite>
 444:	f0 91 1d 01 	lds	r31, 0x011D	; 0x80011d <FtWrite+0x1>
 448:	c8 01       	movw	r24, r16
 44a:	8c 0f       	add	r24, r28
 44c:	9d 1f       	adc	r25, r29
 44e:	09 95       	icall
        if (byte_sent) num_bytes_sent++;
 450:	88 23       	and	r24, r24
 452:	21 f0       	breq	.+8      	; 0x45c <__LOCK_REGION_LENGTH__+0x5c>
 454:	21 96       	adiw	r28, 0x01	; 1
        FtDeactivateInterface();
        return num_bytes_sent;
    }
    // TODO: rename `byte_sent` as `byte_sent_OK` or `byte_was_sent`
    bool byte_sent = true; bool finished = false;
    while (byte_sent && !finished)
 456:	ce 15       	cp	r28, r14
 458:	df 05       	cpc	r29, r15
 45a:	90 f3       	brcs	.-28     	; 0x440 <__LOCK_REGION_LENGTH__+0x40>
    {
        byte_sent = FtWrite(write_buffer++);
        if (byte_sent) num_bytes_sent++;
        finished = (num_bytes_sent >= nbytes);
    }
    FtDeactivateInterface();
 45c:	e0 91 18 01 	lds	r30, 0x0118	; 0x800118 <FtDeactivateInterface>
 460:	f0 91 19 01 	lds	r31, 0x0119	; 0x800119 <FtDeactivateInterface+0x1>
 464:	09 95       	icall
    return num_bytes_sent;
}
 466:	ce 01       	movw	r24, r28
 468:	df 91       	pop	r29
 46a:	cf 91       	pop	r28
 46c:	1f 91       	pop	r17
 46e:	0f 91       	pop	r16
 470:	ff 90       	pop	r15
 472:	ef 90       	pop	r14
 474:	08 95       	ret

00000476 <UsbHasDataToRead>:
bool UsbHasDataToRead(void) { return FtHasDataToRead(); }
 476:	e0 91 0a 01 	lds	r30, 0x010A	; 0x80010a <FtHasDataToRead>
 47a:	f0 91 0b 01 	lds	r31, 0x010B	; 0x80010b <FtHasDataToRead+0x1>
 47e:	09 95       	icall
 480:	08 95       	ret

00000482 <EchoByte>:
    /* =====[ Operate ]===== */
    UsbInit(); while(1) if ( UsbHasDataToRead() ) EchoByte();
}
void test_EchoByte(void)
{
    EchoByte_reads_a_byte_and_writes_it_back_to_the_host();
 482:	cf 93       	push	r28
 484:	df 93       	push	r29
 486:	1f 92       	push	r1
 488:	cd b7       	in	r28, 0x3d	; 61
 48a:	de b7       	in	r29, 0x3e	; 62
 48c:	ce 01       	movw	r24, r28
 48e:	01 96       	adiw	r24, 0x01	; 1
 490:	0e 94 c2 01 	call	0x384	; 0x384 <UsbRead>
 494:	bc 01       	movw	r22, r24
 496:	ce 01       	movw	r24, r28
 498:	01 96       	adiw	r24, 0x01	; 1
 49a:	0e 94 fb 01 	call	0x3f6	; 0x3f6 <UsbWrite>
 49e:	0f 90       	pop	r0
 4a0:	df 91       	pop	r29
 4a2:	cf 91       	pop	r28
 4a4:	08 95       	ret

000004a6 <EchoByte_reads_a_byte_and_writes_it_back_to_the_host>:
 4a6:	0e 94 bf 01 	call	0x37e	; 0x37e <UsbInit>
 4aa:	0e 94 3b 02 	call	0x476	; 0x476 <UsbHasDataToRead>
 4ae:	88 23       	and	r24, r24
 4b0:	e1 f3       	breq	.-8      	; 0x4aa <EchoByte_reads_a_byte_and_writes_it_back_to_the_host+0x4>
 4b2:	0e 94 41 02 	call	0x482	; 0x482 <EchoByte>
 4b6:	f9 cf       	rjmp	.-14     	; 0x4aa <EchoByte_reads_a_byte_and_writes_it_back_to_the_host+0x4>

000004b8 <SetupDebugLed>:
}
void SetupDebugLed(void)
{
    DebugLedInit(
 4b8:	23 e0       	ldi	r18, 0x03	; 3
 4ba:	46 e2       	ldi	r20, 0x26	; 38
 4bc:	50 e0       	ldi	r21, 0x00	; 0
 4be:	68 e2       	ldi	r22, 0x28	; 40
 4c0:	70 e0       	ldi	r23, 0x00	; 0
 4c2:	87 e2       	ldi	r24, 0x27	; 39
 4c4:	90 e0       	ldi	r25, 0x00	; 0
 4c6:	0e 94 93 00 	call	0x126	; 0x126 <DebugLedInit>
 4ca:	08 95       	ret

000004cc <main>:
    //
    // Pick one test group to run.
    // Uncomment that test group.
    // Leave the other test groups commented out.
    //
    SetupDebugLed();
 4cc:	0e 94 5c 02 	call	0x4b8	; 0x4b8 <SetupDebugLed>
    /* =====[ Operate ]===== */
    UsbInit(); while(1) if ( UsbHasDataToRead() ) EchoByte();
}
void test_EchoByte(void)
{
    EchoByte_reads_a_byte_and_writes_it_back_to_the_host();
 4d0:	0e 94 53 02 	call	0x4a6	; 0x4a6 <EchoByte_reads_a_byte_and_writes_it_back_to_the_host>

000004d4 <_exit>:
 4d4:	f8 94       	cli

000004d6 <__stop_program>:
 4d6:	ff cf       	rjmp	.-2      	; 0x4d6 <__stop_program>
